xc:_glClearStencil
leg:_UInt16_System_IConvertible_ToChar_m2096055221_AdjustorThunk
qJf:_Array_TrueForAll_TisRuntimeObject_m1084992726_gshared
Hhj:__ZN6il2cpp2vm5Array13GetByteLengthEP11Il2CppArray
cyi:_KeyBuilder_get_Rng_m3373220441
sSa:__Z30GetIntermediateRendererManagerv
Xxa:__Z21SourceMipLevelForBlitiiii
UWa:__ZN31CanvasBatchIntermediateRenderer15AddAsRenderNodeER15RenderNodeQueueRK20DeprecatedSourceData
Cbg:_TimeSpan_get_Hours_m550761902
tOd:_UnmanagedMemoryStream_Write_m930787521
yr:__ZN11UnityEngine9Animation28GenericAnimationBindingCacheD2Ev
Loi:_X509Store_LoadCrl_m1881903843
G0h:_Array_Sort_TisUICharInfo_t75501106_TisUICharInfo_t75501106_m722747892_gshared
S6a:__ZNSt3__26vectorI13dynamic_arrayI8Vector2fLj4EENS_9allocatorIS3_EEEC2INS_11__wrap_iterIPS3_EEEET_SB_RKS5_PNS_9enable_ifIXaasr21__is_forward_iteratorISB_EE5valuesr16is_constructibleIS3_NS_15iterator_traitsISB_E9referenceEEE5valueEvE4typeE
ZXb:__Z18RestoreRenderStateR20CameraRenderOldStateR17ShaderPassContext
tyb:__Z18Transfer_BlittableI18StreamedBinaryReadILb1EELb1E5RectTIfEEvRK29SerializationCommandArgumentsR31RuntimeSerializationCommandInfo
lub:__Z18Transfer_BlittableI24GenerateTypeTreeTransferLb0E11ColorRGBA32EvRK29SerializationCommandArgumentsR31RuntimeSerializationCommandInfo
eDb:__Z25scripting_class_from_name17ScriptingImagePtrPKcS1_
lMf:_Array_InternalArray__IndexOf_TisKeyValuePair_2_t3699644050_m1021241249_gshared
l2i:__ZN14dense_hash_mapI10KeyWrapperINSt3__24pairIPK12PropertyInfoP11Il2CppClassEEEj17ReflectionMapHashIS8_ENS9_14EqualsComparerINS1_8equal_toIS8_EEEENS1_9allocatorINS2_IKS9_jEEEEE15set_deleted_keyERSH_
FEb:__Z29scripting_class_enum_basetype17ScriptingClassPtr
puj:_Hacker_SayThings_m3442410375
ote:_InternalEnumerator_1_get_Current_m1477715453_gshared
Ilb:__ZNK20LocalFileSystemPosix6ParentERK13FileEntryDataRN4core12basic_stringIcNS3_20StringStorageDefaultIcEEEE
xvg:_RectTransform_GetWorldCorners_m3553547973
Veh:_Collection_1_System_Collections_IList_Remove_m1476284619_gshared
tQd:_MonoType_IsPrimitiveImpl_m2401722705
Ejf:_SHA1CryptoServiceProvider__ctor_m4195188793
dlg:_CSSMeasureFunc_BeginInvoke_m3802154595
D8c:_Dropdown_Hide_m504034854
HLa:__ZN17PersistentManager22CheckInstanceIDsLoadedEPii
P3a:__ZN9Texture2D25CreateScaledAndPaddedDataEPP17SharedTextureDataS2_
rzg:_Vector2_get_up_m2647420593
Bva:__ZN7ApiGLES17CopyBufferSubDataEjjlll
mPf:_Array_InternalArray__ICollection_CopyTo_TisUInt64_t4134040092_m691431926_gshared
raf:_IPAddress_ToString_m1181734207
i7f:_StringBuilder_Append_m1965104174
Toc:__ZN5Unity9rapidjson15GenericDocumentINS0_4UTF8IcEE13JSONAllocatorS4_E11ParseStreamILj1ES3_NS0_25GenericInsituStringStreamIS3_EEEERS5_RT1_
PVf:_EqualityComparer_1__cctor_m3766928733_gshared
eQb:__ZN25CameraStackRenderingState20GetOrCreateBuiltinRTE24BuiltinRenderTextureTypeii17DepthBufferFormat19RenderTextureFormatj22RenderTextureReadWrite14VRTextureUsagei
_gi:_UnityAction_1_Invoke_m610765085_gshared
tO:__ZN11AudioModule26SetDefaultMicrophoneDriverEPv
b6d:_Kernel_modInverse_m652700340
k8a:__ZNK14Texture2DArray26CanReuploadDataToGfxDeviceEv
tUb:__ZN17PrePassRenderLoop14RenderBasePassEP13RenderTextureRK14LightingLayersR13dynamic_arrayI16RenderObjectDataLj4EERbR10MinMaxAABB
Imc:__ZN5IMGUI18RepaintModalWindowER8GUIState
k4:__ZNK15dense_hashtableINSt3__24pairIKN9ShaderLab7Program23ShaderKeywordSetAndHashEPKNS2_10SubProgramEEES4_NS3_24ShaderKeywordHashFunctorEN14dense_hash_mapIS4_S8_SA_NS0_8equal_toIS4_EE13stl_allocatorIS9_L18MemLabelIdentifier67ELi16EEE9SelectKeyESD_SG_E23find_position_with_hashERS5_j
TDf:_CompareInfo_Finalize_m404687489
V6a:__Z23SetSpriteMeshIndexCountP14SharedMeshDataj
e9f:_UTF8Decoder_GetChars_m1236346907
Jxg:_TouchScreenKeyboard_Open_m231964201
X_a:__ZN7Texture13SetFilterModeEi
hjj:__ZN6il2cpp8metadata13GenericMethod9GetMethodEPK19Il2CppGenericMethod
mq:__ZNSt3__26vectorIN4core12basic_stringIcNS1_20StringStorageDefaultIcEEEENS_9allocatorIS5_EEE7reserveEj
_Td:_Default_SelectProperty_m1220817815
dEe:_RemotingConfiguration_IsRemotelyActivatedClientType_m4117048589
zvg:_Transform_TransformPoint_m226827784
upa:__ZN13GfxDeviceGLES11SetViewportERK5RectTIiE
yjc:__Z24Time_Get_Custom_PropTimev
Od:_emscripten_glDepthRange
Mge:_SslStreamBase_BeginNegotiateHandshake_m4180435790
m_b:__ZNSt3__26vectorINS_4pairIN4core12basic_stringIcNS2_20StringStorageDefaultIcEEEES6_EE13stl_allocatorIS7_L18MemLabelIdentifier38ELi16EEE12__move_rangeEPS7_SC_SC_
Eia:__Z14resize_trimmedINSt3__26vectorIN9ShaderLab20SerializedSubProgram12UAVParameterENS0_9allocatorIS4_EEEEEvRT_j
lpc:__ZN5Unity9rapidjson13GenericReaderINS0_4UTF8IcEES3_13JSONAllocatorE11ParseObjectILj1ENS0_25GenericInsituStringStreamIS3_EENS0_15GenericDocumentIS3_S4_S4_EEEEvRT0_RT1_
X2c:_StandaloneInputModule_GetRawMoveVector_m2737091079
tXh:__ZL62Selectable_t3250028441_CustomAttributesCacheGenerator_m_ColorsP21CustomAttributesCache
dhe:_SslStreamBase_EndWrite_m4073224031
J1:__ZNSt3__218__insertion_sort_3IRNS_6__lessI14ObjectLoadDataS2_EEPS2_EEvT0_S6_T_
rxa:__ZN4crndL20crnd_default_reallocEPvjPjbS0_
lyj:__ZNSt3__212basic_stringIcNS_11char_traitsIcEENS_9allocatorIcEEEC2ERKS5_
L7a:__ZN18SpriteAtlasManager19AddRequestingSpriteE4PPtrI6SpriteE
jjc:__Z33Texture_CUSTOM_Internal_GetHeightP12Il2CppObject
vBe:_ValueCollection_System_Collections_ICollection_get_SyncRoot_m3381653267_gshared
cXb:__ZN23ScriptableRenderContextC2Ev
rbd:_GridLayoutGroup_get_spacing_m2409263614
oAe:_Enumerator_MoveNext_m3051926902_gshared
V2f:_List_1_CheckIndex_m581273900_gshared
CGc:_UNITY_FT_Stream_GetChar
Uyb:__Z18Transfer_BlittableI18StreamedBinaryReadILb1EELb1EdEvRK29SerializationCommandArgumentsR31RuntimeSerializationCommandInfo
NEb:__Z26BuildSerializationCacheFor17ScriptingClassPtrRb
BDa:__ZN7ApiGLES15BlitFramebufferEN2gl6HandleILNS0_10ObjectTypeE9EEENS0_15FramebufferReadES3_S3_iiiiiiiiNS0_15FramebufferTypeE
fNg:__Z112RuntimeInvoker_RuntimeObject_RuntimeObject_RuntimeObject_RuntimeObject_RuntimeObject_RuntimeObject_RuntimeObjectPFvvEPK10MethodInfoPvPS4_
Dse:_InternalEnumerator_1_System_Collections_IEnumerator_get_Current_m3553395619_AdjustorThunk
wnd:_Array_SetValue_m3998268557
Dvc:__ZN8JSONRead8TransferI8Vector4fEEvRT_PKc17TransferMetaFlagsb
N5c:_ColorBlock_set_highlightedColor_m2089444414_AdjustorThunk
ivg:_RectTransform_INTERNAL_set_anchoredPosition_m939517950
xde:_Context_EndSwitchingSecurityParameters_m4148956166
GBc:_otv_PairPos_validate
aw:__ZN7mecanim9animation14CopyHumanPosesEPKNS0_18AnimationNodeStateEPS1_RKNS_6bitsetILj83EEE
fUi:__ZN6il2cpp6icalls8mscorlib6SystemL8IsStaticEPK12PropertyInfo
cGb:__Z9InitInputv
BDc:_UNITY_tt_face_build_cmaps
IZi:__ZN6il2cpp2gc19AppendOnlyGCHashMapINSt3__24pairIPK10MethodInfoP11Il2CppClassEEP22Il2CppReflectionMethod17ReflectionMapHashIS9_ENS2_8equal_toIS9_EEE3AddERKS9_SB_
Nmb:__ZN16MemoryFileSystem6DeleteER13FileEntryDatab
RHg:__Z81RuntimeInvoker_Void_t1185182177_RuntimeObject_Int64_t3736567304_Int32_t2950945753PFvvEPK10MethodInfoPvPS4_
e4f:_List_1_set_Item_m1979164443_gshared
nya:__ZL21BlitScaleStbImageImplRK14ImageReferenceRS_NS_10ColorSpaceE
$pd:_Boolean_System_IConvertible_ToUInt16_m3465173538_AdjustorThunk
OPe:_InputField_get_keyboardType_m1248105267
cqb:__Z29Transfer_Blittable_ArrayFieldI14SafeBinaryReadyEvRT_R9ArrayInfoRK23StaticTransferFieldInfo
iM:__ZN20SoundChannelInstance15setChannelGroupEPN4FMOD12ChannelGroupE
hpi:_Match__ctor_m2425511580
lc:invoke_vifffii
_8i:__ZN6il2cpp2vm9Exception27RaiseNullReferenceExceptionEv
wOa:__ZNK25MultiBlocksMemoryFileData5CloneEv
Poj:_GC_add_ext_descriptor
ZXi:__ZNK15dense_hashtableINSt3__24pairIK10KeyWrapperINS1_IPK14Il2CppAssemblyP11Il2CppClassEEEjEES9_17ReflectionMapHashIS8_EN14dense_hash_mapIS9_jSD_NS9_14EqualsComparerINS0_8equal_toIS8_EEEENS0_9allocatorISB_EEE9SelectKeyESI_SK_E23find_position_with_hashERSA_j
A2h:_LayoutGroup_SetProperty_TisSingle_t1397266774_m793506911_gshared
Dfd:_CryptoConfig_CreateFromName_m1538277313
mAj:dynCall_iiiiiiiiiiii
ZPe:_InputField_set_caretPositionInternal_m3823580651
AZe:_Selectable_set_interactable_m3105888815
eXa:__ZL26KeywordSetToStringDontSortRKNSt3__26vectorIN4core12basic_stringIcNS1_20StringStorageDefaultIcEEEENS_9allocatorIS5_EEEERS5_
fAa:__ZN6prcoreL17RemapGenericFloatI16TexFormatRGFloat17TexFormatRGBAHalfEEvPKNS_9InnerInfoE
rG:__ZN12AudioManager22CreateFMODSoundFromWWWEP10IWWWStream15FMOD_SOUND_TYPE17FMOD_SOUND_FORMATjjbbP10SampleClip
R5b:__ZNK32RendererMaterialAnimationBinding15GenerateBindingERKN4core12basic_stringIcNS0_20StringStorageDefaultIcEEEEbRN11UnityEngine9Animation14GenericBindingE
$2d:_TargetException__ctor_m4172127019
i3g:_List_1_CheckCollection_m274117203_gshared
WRh:__ZL70EventSystem_t1003666588_CustomAttributesCacheGenerator_m_FirstSelectedP21CustomAttributesCache
d_:__ZN8Remapper23GetOrGenerateInstanceIDERK26SerializedObjectIdentifier
z6c:_ColorTween_get_startColor_m3792586410_AdjustorThunk
Ya:invoke_iiiiiifffiiifii
OEg:__Z85RuntimeInvoker_Void_t1185182177_Int32_t2950945753_Int32_t2950945753_Int32_t2950945753PFvvEPK10MethodInfoPvPS4_
PRd:_CustomInfo__ctor_m426096741
q$c:_EventSystem_ToString_m3779610692
e7a:__ZN6Sprite8TransferI24GenerateTypeTreeTransferEEvRT_
nkc:__Z48Register_UnityEngine_Transform_SetAsFirstSiblingv
q1a:__ZNK18DelayedCallManager22GetTypeVirtualInternalEv
h7a:__ZN7SubMesh8TransferI24GenerateTypeTreeTransferEEvRT_
gVi:_NativeTypeAttribute__ctor_m133676646
Jhh:_Collection_1_System_Collections_IList_Contains_m296643274_gshared
vId:_DirectoryInfo__ctor_m126519516
A$d:_MethodBase_GetMethodFromIntPtr_m3014201362
rcc:__ZN9Transform23SetSiblingIndexInternalEib
Oyd:_Enumerator_MoveNext_m635366482
mkd:_X509Extension_Equals_m1222951829
uu:__ZN7mecanim5human12HumanPoseSubERNS0_9HumanPoseERKS1_S4_
edj:__ZN6il2cpp8metadata15GenericMetadata15GetGenericClassEiPK17Il2CppGenericInst
Dob:__Z18Transfer_BlittableI14SafeBinaryReadLb0E10Matrix4x4fEvRK29SerializationCommandArgumentsR31RuntimeSerializationCommandInfo
cEb:__Z24GetFixedBehaviourManagerv
bTi:__ZN6il2cpp2vm10ThreadPool4WaitEP17Il2CppAsyncResultPPv
H$e:_Text_UpdateGeometry_m3634850647
voi:_X509Crl_VerifySignature_m1377612461
Avj:_vfprintf
fnc:__ZN10GUIManager12AddGUIScriptER8ListNodeI13MonoBehaviourE
bzd:_Stack_Clear_m2010200235
kyc:_cf2_getVStore
g1c:_PointerEventData_set_pointerPressRaycast_m1363193059
aOb:__ZN20DynamicPropertySheetD0Ev
p5d:_SafeHandle_Dispose_m4229010569
q_b:__ZN14SafeBinaryRead17RegisterConverterEPKcS1_PFbPvRS_E
BKh:__ZL77RuntimePlatform_t4159857903_CustomAttributesCacheGenerator_OSXDashboardPlayerP21CustomAttributesCache
o8:__ZN35RegisterRuntimeInitializeAndCleanup8RegisterEPFvPvES2_iS0_
$li:_SubjectAltNameExtension_get_IPAddresses_m1641002124
GXd:_FieldBuilder_SetValue_m828035213
mQf:_Array_InternalArray__Insert_TisSingle_t1397266774_m3161726127_gshared
rkc:__Z21Object_CUSTOM_DestroyP12Il2CppObjectf
hoa:__ZN8Material26ResetAllCachedMaterialDataEP6Shader
JLg:__Z63RuntimeInvoker_Void_t1185182177_RuntimeObject_Int16_t2552820387PFvvEPK10MethodInfoPvPS4_
OGc:_UNITY_TT_Get_MM_Var
mOe:_ObjectManager_AddFixup_m2154325362
Fue:_Comparer_1__cctor_m3761458313_gshared
qwf:_DateTimeOffset_CompareTo_m1350732322_AdjustorThunk
aa:invoke_diddi
NOc:__ZNK2UI6Canvas13GetRenderModeEv
Umg:_PersistentCall__ctor_m1217622171
qLf:_Array_compare_TisCustomAttributeTypedArgument_t2723150157_m1384644047_gshared
d7e:_StrongName_get_TokenAlgorithm_m1794722022
Onb:__Z18Transfer_BlittableI14SafeBinaryReadLb0EiEvRK29SerializationCommandArgumentsR31RuntimeSerializationCommandInfo
PRi:__ZN6il2cpp2vm13MetadataCache30GetPropertyDefinitionFromIndexEi
kyi:_SymmetricTransform_Transform_m1683494363
JVc:__ZN22BaseUnityConnectClient17InitializeSessionERKN4core12basic_stringIcNS0_20StringStorageDefaultIcEEEES6_N19CloudServiceHandler13InitModeFlagsE
BRg:__Z74RuntimeInvoker_RuntimeObject_Int32_t2950945753_RuntimeObject_RuntimeObjectPFvvEPK10MethodInfoPvPS4_
c9g:_List_1_get_Item_m200663048_gshared
iGj:_emscripten_glDeleteBuffers__wrapper
Udc:__ZN13MonoBehaviour34StopCoroutineFromEnumeratorManagedE18ScriptingObjectPtr
hig:_Application_set_targetFrameRate_m3682352535
wzg:_Vector3__ctor_m1719387948_AdjustorThunk
dgb:__ZN30RuntimeInitializeOnLoadManager8TransferI18StreamedBinaryReadILb0EEEEvRT_
Cvf:_DateTimeOffset__ctor_m2084804982
bDc:_UNITY_tt_face_load_pclt
odc:__ZL34GetComponentsImplementationRecurseILb1ELi0ELi2EEbR10GameObjectbRK17CompareParametersRK39GetComponentsImplementation_ReturnValue
kpg:_Material_GetTexture_m3545614349
ACg:__Z64RuntimeInvoker_RuntimeObject_Int32_t2950945753_Int16_t2552820387PFvvEPK10MethodInfoPvPS4_
LWf:_EqualityComparer_1__cctor_m4244842342_gshared
xNb:__ZNK6Camera18WorldToScreenPointERK8Vector3fPb
uwg:_SendMouseEvents_DoSendMouseEvents_m2140870850
hqi:_PatternCompiler_EmitJump_m3915926156
KCa:__Z18IsCompressedFormat14GraphicsFormat
Pu:__ZN7mecanim9animation19AdjustPoseForMotionERKNS0_14AvatarConstantERKNS0_14SkeletonTQSMapERKN4math4trsXERNS_10ValueArrayERNS_8skeleton13SkeletonPoseTIS8_EESG_
Rbg:__Z33il2cpp_codegen_check_add_overflowxx
fZ:__ZNSt3__227__insertion_sort_incompleteIRPFbRKN18AwakeFromLoadQueue4ItemES4_EPS2_EEbT0_S9_T_
JKh:__ZL73RuntimePlatform_t4159857903_CustomAttributesCacheGenerator_MetroPlayerARMP21CustomAttributesCache
OHd:_InvalidOperationException__ctor_m1685032583
PPi:__ZN14dense_hash_mapI10KeyWrapperIN6il2cpp5utils13dynamic_arrayIPK10Il2CppTypeLj4EEEEPFvvENS1_8metadata19Il2CppSignatureHashENS8_14EqualsComparerINSB_22Il2CppSignatureCompareEEENSt3__29allocatorINSG_4pairIKS8_SA_EEEEE15set_deleted_keyERSJ_
xcg:_TimeSpan_op_Subtraction_m3592306516
JYf:_EqualityComparer_1_System_Collections_IEqualityComparer_GetHashCode_m1517903420_gshared
G4a:__ZN26EnlightenSystemInformation8TransferI14SafeBinaryReadEEvRT_
ifb:__ZN24GenerateTypeTreeTransfer8TransferINSt3__26vectorIN15ResourceManager10DependencyE13stl_allocatorIS4_L18MemLabelIdentifier52ELi16EEEEEEvRT_PKc17TransferMetaFlags
eIi:_CanvasRenderer_SplitUIVertexStreams_m2753637362
ZSg:__Z119RuntimeInvoker_Void_t1185182177_RuntimeObject_Single_t1397266774_Single_t1397266774_SByte_t1669577662_Int32_t2950945753PFvvEPK10MethodInfoPvPS4_
YWc:__ZN11UnityEngine15PlatformWrapper20SetPlayerPrefsUInt64ERKN4core12basic_stringIcNS1_20StringStorageDefaultIcEEEEy
vbb:__ZN12MeshRendererD0Ev
GP:__ZN12AudioManager35GetCurrentSpatializerDefinitionNameEv
zh:_utime
Bsi:_BalancingGroup_Compile_m2575117193
GB:__Z28SetExposedSkeletonTransformsRKN7mecanim9animation14AvatarConstantERKN11UnityEngine9Animation30AnimatorGenericBindingConstantERKNS_8skeleton13SkeletonPoseTIN4math4trsXEEERKNSA_INSB_7affineXEEERNS5_21AvatarBindingConstantEy
eXi:__ZNSt3__26vectorIN6il2cpp2vm17TypeNameParseInfoENS_9allocatorIS3_EEE8allocateEj
cpi:_Mark_get_Index_m3048692661_AdjustorThunk
qn:FUNCTION_TABLE_viiiiif
jue:_DefaultComparer_Compare_m3931992727_gshared
vn:FUNCTION_TABLE_viiiiii
fte:_InternalEnumerator_1_System_Collections_IEnumerator_get_Current_m1847780851_AdjustorThunk
axi:_GUILayoutUtility_get_spaceStyle_m3392862907
CFd:_Int32_System_IConvertible_ToType_m3009233912_AdjustorThunk
Dvf:_DateTimeOffset__ctor_m74032857
gD:__ZN7mecanim9animation22DestroyAvatarWorkspaceEPNS0_15AvatarWorkspaceERNS_6memory9AllocatorE
qdg:_Type_type_is_assignable_from_m76737532
xUb:__ZN15LightmapSTCacheC2ER13BatchRendererR15RenderLoopStats
j1a:__ZN14PlayableOutput17SetSourcePlayableEP8Playable
wC:__ZN7mecanim9animation29MotionOutputGetDeltaTransformEPKNS0_12MotionOutputE
Qbi:_ReadOnlyCollection_1_System_Collections_Generic_ICollectionU3CTU3E_Add_m2369252587_gshared
Mjc:__Z43Transform_CUSTOM_INTERNAL_get_localRotationP12Il2CppObjectP11Quaternionf
yEf:_CultureInfo_get_Parent_m672689885
hpj:__ZN6il2cpp6icalls8mscorlib6System10Reflection4Emit13ModuleBuilder13RegisterTokenEP29Il2CppReflectionModuleBuilderP12Il2CppObjecti
oEj:_glGetShaderInfoLog__wrapper
XNe:_ObjectReader_ReadObjectGraph_m340866276
ci:_emscripten_glGetTexParameteriv
YSc:__ZN11UnityEngine7Connect15DeviceInfoEvent7GFXInfoD2Ev
LFj:_glGenTextures__wrapper
$ia:__ZN9ShaderLab20SerializedSubProgram14ConstantBufferaSERKS1_
z2b:__Z13RegisterClassI4MeshEvv
QNh:__ZL74SharedBetweenAnimatorsAttribute_t2857104338_CustomAttributesCacheGeneratorP21CustomAttributesCache
I_a:__ZN8PlayableD0Ev
wg:emscriptenWebGLGetBufferBinding
WH:__ZN12AudioManager8TransferI19StreamedBinaryWriteILb0EEEEvRT_
b_e:_Slider_UpdateCachedReferences_m3259451627
Tge:_SslStreamBase_get_KeyExchangeStrength_m217695965
dKg:__Z50RuntimeInvoker_Double_t594665363_Double_t594665363PFvvEPK10MethodInfoPvPS4_
Kzb:__ZN18StreamedBinaryReadILb1EE21TransferSTLStyleArrayI13dynamic_arrayI11ColorRGBA32Lj4EEEEvRT_17TransferMetaFlags
S5i:__ZN15dense_hashtableINSt3__24pairIK10KeyWrapperINS1_IP11Il2CppClassjEEES4_EES6_N6il2cpp8metadata14ArrayClassHashEN14dense_hash_mapIS6_S4_SB_NS6_14EqualsComparerINSA_17ArrayClassCompareEEENS0_9allocatorIS8_EEE9SelectKeyESF_SH_E6insertERKS8_
_8c:_U3CShowU3Ec__AnonStorey1_U3CU3Em__0_m2340880019
oli:_TlsStream_Flush_m3793197834
qlb:__ZN22LocalFileSystemHandler9MakeLocalER13FileEntryDatab
Fkj:__ZN6il2cpp2vm8Profiler10AllocationEP12Il2CppObjectP11Il2CppClass
mVh:__ZL61Graphic_t1660335611_CustomAttributesCacheGenerator_m_MaterialP21CustomAttributesCache
jLc:__ZNSt3__23mapIN20TextRenderingPrivate7FontRefENS1_6OSFontENS_4lessIS2_EENS_9allocatorINS_4pairIKS2_S3_EEEEEixERS8_
oga:__Z13FormatOrderedPKcz
CUi:__ZN6il2cpp2vm8basepathEPKc
Qdf:_X509Chain_GetAuthorityKeyIdentifier_m614536199
JIc:__ZN14SafeBinaryRead21TransferSTLStyleArrayI10vector_mapINSt3__24pairIttEEfN20TextRenderingPrivate8FontImpl14KerningCompareENS2_9allocatorINS3_IS4_fEEEEEEEvRT_17TransferMetaFlags
kce:_TlsServerFinished__ctor_m1445633918
ZDd:_NumberFormatter_FastIntegerToString_m390846811
KKh:__ZL68RuntimePlatform_t4159857903_CustomAttributesCacheGenerator_WP8PlayerP21CustomAttributesCache
iUb:__ZN25DeferredRenderLoopScratchD0Ev
Sw:__ZN27AnimationLayerMixerPlayable14SetInputWeightEif
L0c:_PhysicsRaycaster_Raycast_m776323695
Ryg:_UnityException__ctor_m1456865679
qu:__ZN7mecanim9animation17EvaluateHumanPoseERKNS0_18ClipMuscleConstantERKNS0_15ClipMuscleInputEPKfRKNS0_12MotionOutputERNS_5human9HumanPoseE
jia:__ZN15dense_hashtableINSt3__24pairIKiN4core17string_with_labelILi1EEEEEi18SInt32HashFunctionN14dense_hash_mapIiS5_S7_NS0_8equal_toIiEE13stl_allocatorIS6_L18MemLabelIdentifier1ELi16EEE9SelectKeyESA_SD_E9copy_fromERKSG_j
yUd:_CustomAttributeNamedArgument_GetHashCode_m2317130892
Feb:__ZN15ResourceManagerD0Ev
zMe:_WellKnownClientTypeEntry_ToString_m1119458503
x4:__ZN22CreateGpuProgramOutputD2Ev
f8g:_List_1_get_Item_m1378751541_gshared
Gjf:_SHA1CryptoServiceProvider_Finalize_m1793183797
o_f:_HashSet_1_System_Collections_Generic_ICollectionU3CTU3E_CopyTo_m408073502_gshared
T8d:_EncryptedPrivateKeyInfo_get_EncryptedData_m491452551
Bkb:__ZN12HandlerChain4OpenER13FileEntryData14FilePermission16FileAutoBehavior
SYg:__Z72RuntimeInvoker_Void_t1185182177_Int32_t2950945753_RaycastHit_t1056001966PFvvEPK10MethodInfoPvPS4_
MZi:__ZN15dense_hashtableINSt3__24pairIK10KeyWrapperINS1_IPK10MethodInfoP11Il2CppClassEEEjEES9_17ReflectionMapHashIS8_EN14dense_hash_mapIS9_jSD_NS9_14EqualsComparerINS0_8equal_toIS8_EEEENS0_9allocatorISB_EEE9SelectKeyESI_SK_E6insertERKSB_
T8f:_UTF8Encoding_GetCharCount_m2272165989
und:_Array_SetValue_m394135409
b1:__ZN14FileCacherReadD2Ev
Dhb:__ZN13RendererScene23UpdatePreviousFrameDataEii
Vqf:_String_Remove_m562998446
Kfc:__Z50Register_UnityEngine_CullingGroup_FinalizerFailurev
tmf:_SecurityPermission_IsSubsetOf_m545000671
lib:__ZN27UnloadUnusedAssetsOperationD0Ev
EPb:__ZN28LightProbeProxyVolumeContextC2E10MemLabelId
kyj:__ZNKSt3__221__basic_string_commonILb1EE20__throw_out_of_rangeEv
ulg:_Cursor_get_lockState_m2828192107
PVi:_UpdatedEventHandler_Invoke_m1320302085
JF:__ZN9AudioClip23VirtualRedirectTransferER18StreamedBinaryReadILb0EE
D8g:_List_1_AddEnumerable_m2724989594_gshared
$Rg:__Z82RuntimeInvoker_Vector2_t2156229523_Vector2_t2156229523_RuntimeObject_RuntimeObjectPFvvEPK10MethodInfoPvPS4_
rHa:__ZN18GlslGpuProgramGLESC2ERK13dynamic_arrayIhLj1EER22CreateGpuProgramOutput
slc:__Z70Register_UnityEngine_Playables_PlayableHandle_GetPlayableType_Injectedv
M7d:_ARC4Managed_TransformBlock_m1687647868
Ej:_glCopyTexSubImage2D
Wyg:_UnitySynchronizationContext_ExecuteTasks_m1310741010
mif:_RIPEMD160Managed_CompressFinal_m497690796
GZb:__ZN18ScreenManagerWebGL13SetShowCursorEb
DJb:__ZN13DrawImmediateC2ER9GfxDevice
Lvj:_frexp
zob:__Z18Transfer_BlittableI14SafeBinaryReadLb0E5RectTIfEEvRK29SerializationCommandArgumentsR31RuntimeSerializationCommandInfo
ZGd:_NumberFormatter_NumberToString_m2562899600
OBc:_otv_u_C_x_Ox
Xwa:__ZN18AsyncUploadManager19AsyncResourceUploadER9GfxDeviceii9TextureID
hua:__ZN14GfxContextGLES14GetFramebufferEv
zGj:_emscripten_glGenVertexArrays__wrapper
Bhg:_Version_Clone_m1749041863
Sya:__ZN6prcoreL21CreateRemapAnyBlitterE13TextureFormatS0_
p9d:_RSAManaged_ExportParameters_m1754454264
wbc:__ZN17AnimationCurveTplIfE16StripInvalidKeysEv
mqd:_Boolean_Equals_m535526264_AdjustorThunk
UOc:__ZNK2UI6Canvas17GetSortingLayerIDEv
b4i:_il2cpp_method_has_attribute
r2b:__Z13RegisterClassI17GlobalGameManagerEvv
p6:__ZN8Renderer24SetupNewRendererForSceneEv
ldg:_Type_internal_from_name_m1721940673
yCf:_Environment_get_TickCount_m2088073110
uJe:_RemotingServices_GetMethodBaseFromName_m3194612939
Ntc:__Z35Transfer_Blittable_FixedBufferFieldI8JSONReadtEvRK29SerializationCommandArgumentsR31RuntimeSerializationCommandInfo
G8b:__ZN14PlayableOutput6HandleEv
D6a:__ZNK6Sprite22GetTypeVirtualInternalEv
qZc:__ZN13RuntimeStaticINSt3__26vectorI23UnityVRDeviceDefinition13stl_allocatorIS2_L18MemLabelIdentifier90ELi16EEEELb0EE13StaticDestroyEPv
pn:FUNCTION_TABLE_iiiiiiiiiiiiii
FCc:_UNITY_tt_get_cmap_info
lvb:__Z29Transfer_Blittable_ArrayFieldI24GenerateTypeTreeTransfer5RectTIiEEvRT_R9ArrayInfoRK23StaticTransferFieldInfo
LXa:__ZN16ReflectionProbes8ScheduleEN18ReflectionProbeJob7JobTypeEP15ReflectionProbei
oce:_ClientSessionInfo_KeepAlive_m1020179566
cPc:__ZN13dynamic_arrayIN2UI13UIInstructionELj4EE12emplace_backEv
lMa:__Z18IsDirectoryCreatedRKN4core12basic_stringIcNS_20StringStorageDefaultIcEEEE
gmf:_String_FormatHelper_m3913915042
TNc:__ZN2UI13CanvasManagerD2Ev
dUd:_ConstructorInfo__cctor_m1016079270
_Mi:__ZN15dense_hashtableINSt3__24pairIK10KeyWrapperIPKcEP11Il2CppClassEES5_N6il2cpp5utils11StringUtils12StringHasherIS4_EEN14dense_hash_mapIS5_S8_SE_NS5_14EqualsComparerINSB_13VmStringUtils21CaseSensitiveComparerEEENS0_9allocatorIS9_EEE9SelectKeyESJ_SL_E15set_deleted_keyERKS9_
sld:_AttrListImpl_get_Names_m977594476
MKc:_UNITY_FT_GlyphLoader_Done
T2d:_Pointer_Box_m389276611
mAf:_StackTrace_get_FrameCount_m344690939
gOd:_UnexceptionalStreamWriter_Write_m363195622
hLc:__ZN20TextRenderingPrivate25ReadFontFileAndAddToCacheERKN4core12basic_stringIcNS0_20StringStorageDefaultIcEEEE
GDc:_tt_cmap14_char_var_index
MQe:_Selectable_OnPointerDown_m1086067264
RHc:_psh_globals_new
s8c:_Dropdown_SetupTemplate_m628218778
k9f:_Thread_GetCompressedStack_m2923422412
cvd:_SynchronizedArrayListWrapper_CopyTo_m4207791406
dcf:_X509BasicConstraintsExtension_ToString_m1809935297
Goa:__ZN9GfxDevice20SetMaxBufferedFramesEi
gji:_TweenRunner_1_StartTween_m1055628540_gshared
d7h:_ReadOnlyCollection_1_System_Collections_IList_Remove_m4129318771_gshared
m2h:_GameObject_GetComponents_TisRuntimeObject_m1246177135_gshared
CAj:dynCall_vdd
ROd:_MethodAccessException__ctor_m3542088436
L$b:__Z23ConvertIntegerToTypePtrIsEbPvR14SafeBinaryRead
_Vf:_EqualityComparer_1_System_Collections_IEqualityComparer_GetHashCode_m2230215241_gshared
AYh:__ZL60ContentSizeFitter_t3850442145_CustomAttributesCacheGeneratorP21CustomAttributesCache
kxd:_Hashtable_Contains_m2145146412
pFh:__ZL64UnmarshalledAttribute_t1517743549_CustomAttributesCacheGeneratorP21CustomAttributesCache
Cac:__ZN4Mesh24UpdateSubMeshVertexRangeEi
ODd:_Int32_FindCurrency_m3541026887
Uhf:_Interval_CompareTo_m3282557545
xHj:_pthread_cond_wait__wrapper
vTb:__ZNK14RenderSettings19GetFlatAmbientColorEv
sya:__ZN6prcoreL10inner_flipILj4EEEvPhS1_j
ndb:__ZN18StreamedBinaryReadILb0EE21TransferSTLStyleArrayI10vector_mapIPKN5Unity4TypeE7Hash128NSt3__24lessIS6_EENS8_9allocatorINS8_4pairIS6_S7_EEEEEEEvRT_17TransferMetaFlags
Py:__ZNK27StateMachineBehaviourPlayer15IsSenderEnabledEv
Sid:_RijndaelManagedTransform_TransformBlock_m1610137419
ikc:__Z40Register_UnityEngine_Transform_SetParentv
s8a:__ZN14Texture2DArray17UploadToGfxDeviceEv
DJ:__Z14FMODMemoryFreePvjPKc
Nmg:_NetFxCoreExtensions_GetMethodInfo_m444570327
ARb:__Z14SetSHConstantsR13BatchRendererR17ShaderPassContextRK20SphericalHarmonicsL2b
Nrd:_Char_System_IConvertible_ToDecimal_m3534906463
Ryc:_cf2_glyphpath_moveTo
bxg:_StackTraceUtility_SetProjectFolder_m830524047
qv:__ZN7mecanim23TransformValueArrayLoopEiiiRKN4math4trsXES3_RNS_10ValueArrayEf
Dce:_ClientSessionInfo_Finalize_m2165787049
anc:__ZN5IMGUI14GUIWindowStateD2Ev
Abe:_ClientContext_Clear_m1774063253
Oac:__ZN4Mesh17SetIndicesComplexEPKvjj16GfxPrimitiveTypeij
Uuf:_DateTime_AddSeconds_m332574389_AdjustorThunk
Kyg:_RequestAtlasCallback_Invoke_m378128467
Vqd:_Byte_System_IConvertible_ToSByte_m1869482168
eIg:__Z99RuntimeInvoker_RuntimeObject_RuntimeObject_RuntimeObject_StreamingContext_t3711869237_RuntimeObjectPFvvEPK10MethodInfoPvPS4_
IB:__ZN7mecanim5human10RetargetToEPKNS0_5HumanEPKNS0_9HumanPoseES6_RKN4math4trsXEPS4_PNS_8skeleton13SkeletonPoseTIS8_EESF_
iv:__ZN7mecanim9animation8SeekClipERKNS0_12StreamedClipERNS0_18StreamedClipMemoryEf
Xng:_GameObject_Internal_AddComponentWithType_m3797731663
km:_emscripten_glIsTexture
Rk:_emscripten_glHint
Eyi:_Check_SourceAndPredicate_m2332465641
tRg:__Z67RuntimeInvoker_Boolean_t97287965_TextGenerationSettings_t1351628751PFvvEPK10MethodInfoPvPS4_
AGc:_ft_var_readpackeddeltas
xnf:_String_op_Inequality_m215368492
pyb:__Z35Transfer_Blittable_FixedBufferFieldI18StreamedBinaryReadILb1EEtEvRK29SerializationCommandArgumentsR31RuntimeSerializationCommandInfo
tfg:_UInt32_System_IConvertible_ToInt64_m2261037378
nm:_SDL_UpperBlit
HXa:__Z35GetTextureDecodeValuesWithIntensity16TextureUsageMode17TextureColorSpace10ColorSpacef
pIf:_Array_InternalArray__ICollection_Remove_TisChar_t3634460470_m4143749387_gshared
RJb:__ZN15dense_hashtableINSt3__24pairIK9TextureIDiEES2_14GfxGenericHashIS2_EN14GfxDoubleCacheIS2_iS6_NS0_8equal_toIS2_EEN31GfxDoubleCacheConcurrencyPolicy11LocklessGetE42GfxDoubleCacheDefaultEmptyDeletedGeneratorIS2_EE9SelectKeyES9_13stl_allocatorIS4_L18MemLabelIdentifier24ELi16EEE14squash_deletedEv
e2i:__ZN15dense_hashtableINSt3__24pairIK10KeyWrapperINS1_IPK9EventInfoP11Il2CppClassEEEjEES9_17ReflectionMapHashIS8_EN14dense_hash_mapIS9_jSD_NS9_14EqualsComparerINS0_8equal_toIS8_EEEENS0_9allocatorISB_EEE9SelectKeyESI_SK_E15set_deleted_keyERKSB_
P5f:_Encoding_GetBytes_m3823106599
muf:_GregorianCalendar__ctor_m979779718
Sfe:_SslClientStream__ctor_m2402546929
kEb:__ZN14SafeBinaryRead20OverrideRootTypeNameEPKc
r8e:_DictionaryNodeEnumerator_get_Entry_m2309234501
f1:__ZN14FileCacherRead16UnlockCacheBlockEj
t9:__ZN10InstancingL21OnGraphicsCapsChangedEv
kbg:_WaitHandle_get_Handle_m3260446580
B1f:_Enumerator_VerifyState_m1745883925_AdjustorThunk
Jc:_emscripten_glUniform1f
hyd:_SortedList__ctor_m1261191695
pLc:__Z20ParseImageParametersR11UTF16StringRiRN20TextRenderingPrivate16TextFormatChangeE
pYh:__ZL55CanvasScaler_t2767979955_CustomAttributesCacheGeneratorP21CustomAttributesCache
Oc:_emscripten_glUniform1i
Jtb:__Z18Transfer_BlittableI24GenerateTypeTreeTransferLb1EN4math12int3_storageEEvRK29SerializationCommandArgumentsR31RuntimeSerializationCommandInfo
EWe:__Z14bankers_roundff
dka:__ZN9ShaderLab16SerializedTagMapaSERKS0_
fS:__ZN11UnityEngine15CloudWebService16SessionContainer20RestoreSessionHeaderERKN4core12basic_stringIcNS2_20StringStorageDefaultIcEEEES8_RNS0_13SessionHeaderE
Zqj:__ZN6il2cpp2os12Cryptography23GetCryptographyProviderEv
WC:__ZN11UnityEngine9Animation27CreateAvatarBindingConstantER9TransformPKN7mecanim9animation14AvatarConstantERNS3_6memory9AllocatorE
tPc:__ZN2UI14CanvasRenderer13SyncTransformENS0_8SyncFlagEb
uHg:__Z151RuntimeInvoker_RuntimeObject_Int32_t2950945753_RuntimeObject_ObjectU5BU5DU26_t712384779_RuntimeObject_RuntimeObject_RuntimeObject_ObjectU26_t2146539884PFvvEPK10MethodInfoPvPS4_
gec:__ZN9BlobWriteC2ER13dynamic_arrayIhLj16EE24TransferInstructionFlags19BuildTargetPlatform
c5c:_CanvasUpdateRegistry__ctor_m2005397069
t$:__ZN14MessageHandler3GetEv
p0d:_MonoMethodInfo_GetCallingConvention_m3156036493
fTe:_LayoutGroup_SetLayoutInputForAxis_m2458344630
ad:_emscripten_glAttachShader
Foa:__ZN9GfxDevice13SetActiveTierE12GraphicsTier
Ucd:_Image__cctor_m1927508576
vka:__ZNSt3__26vectorIN4core12basic_stringIcNS1_20StringStorageDefaultIcEEEENS_9allocatorIS5_EEE6assignIPS5_EENS_9enable_ifIXaasr21__is_forward_iteratorIT_EE5valuesr16is_constructibleIS5_NS_15iterator_traitsISC_E9referenceEEE5valueEvE4typeESC_SC_
Wqj:__ZN6il2cpp6icalls8mscorlib6System21CurrentSystemTimeZone15GetTimeZoneDataEiPP11Il2CppArrayS6_
gob:__Z18Transfer_BlittableI14SafeBinaryReadLb0E11QuaternionfEvRK29SerializationCommandArgumentsR31RuntimeSerializationCommandInfo
vBb:__Z18Transfer_BlittableI18StreamedBinaryReadILb0EELb1E12PropertyNameEvRK29SerializationCommandArgumentsR31RuntimeSerializationCommandInfo
KW:_tlsf_walk_heap
jHg:__Z49RuntimeInvoker_Void_t1185182177_OpCode_t123070264PFvvEPK10MethodInfoPvPS4_
nCd:_Convert_ToUInt32_m3592050311
jb:invoke_vif
b2h:_Component_GetComponents_TisRuntimeObject_m2416546752_gshared
kb:invoke_vid
Cyj:__ZNSt3__212basic_stringIcNS_11char_traitsIcEENS_9allocatorIcEEE6insertEjPKc
lb:invoke_vii
YMb:__ZNK12ImageFilters8DoRenderER17ShaderPassContextP13RenderTextureS3_RKNSt3__26vectorI11ImageFilterNS4_9allocatorIS6_EEEE
_Ka:__ZN12TLSAllocatorI14StackAllocatorE16ThreadInitializeEP13BaseAllocator
JIg:__Z82RuntimeInvoker_Boolean_t97287965_SByte_t1669577662_RuntimeObject_SByte_t1669577662PFvvEPK10MethodInfoPvPS4_
epa:__ZN9GfxDevice32UpdateStereoViewProjectionMatrixE21MonoOrStereoscopicEye
UQc:__Z41CanvasRenderer_CUSTOM_DisableRectClippingP12Il2CppObject
aQd:_MonoType_GetConstructorImpl_m441167626
A7c:_DefaultControls_CreateRawImage_m4219873755
odh:_Collection_1_IsFixedSize_m3709118201_gshared
hPa:__ZN25SingleBlockMemoryFileDataD0Ev
fLa:__ZNSt3__26vectorI14ConstantStringNS_9allocatorIS1_EEE6assignINS_11__wrap_iterIPS1_EEEENS_9enable_ifIXaasr21__is_forward_iteratorIT_EE5valuesr16is_constructibleIS1_NS_15iterator_traitsISA_E9referenceEEE5valueEvE4typeESA_SA_
aS:__ZN11UnityEngine15CloudWebService16SessionContainer21ConvertFromFolderTimeERKN4core12basic_stringIcNS2_20StringStorageDefaultIcEEEEPjPt
jfd:_CodeAccessPermission_Equals_m1555575992
Tpb:__ZNSt3__26vectorI8GUIStyle13stl_allocatorIS1_L18MemLabelIdentifier1ELi16EEE7reserveEj
X7i:__ZN6il2cpp6icalls8mscorlib6System9Threading6Thread27GetSerializedCurrentCultureEP12Il2CppThread
_ce:_Context_set_ReadSequenceNumber_m2154909392
Nid:_RijndaelTransform_SubByte_m3037693507
b1b:__Z31CalculateHierarchyTransformType23TransformAccessReadOnly
N2b:__Z13RegisterClassI11TimeManagerEvv
uJ:__ZN4FMOD8ChannelI11setPositionEjj
Bog:_Input_INTERNAL_CALL_GetTouch_m3481893561
Smj:_GC_set_fl_marks
Kfb:__ZNSt3__26vectorIN30RuntimeInitializeOnLoadManager15ClassMethodInfoE13stl_allocatorIS2_L18MemLabelIdentifier13ELi16EEE7reserveEj
hpa:__ZN9GfxDevice17SetStereoViewportE15StereoscopicEyeRK5RectTIiE
Lfa:__ZN17BaseObjectManager13StaticDestroyEPv
ZKa:__ZNK12TLSAllocatorI14StackAllocatorE24GetBookKeepingMemorySizeEv
RHi:_CanvasRenderer_INTERNAL_CALL_GetColor_m597074473
Rue:_Comparer_1__cctor_m3891417387_gshared
E8f:_UTF7Decoder_GetChars_m3413809261
XWd:_EnumBuilder_GetEvent_m4074915332
yh:_sysconf
iyg:_Vector3_get_forward_m3100859705
cBf:_Double_Equals_m2309369974_AdjustorThunk
mI:__ZN4FMOD6Reverb13setPropertiesEPK22FMOD_REVERB_PROPERTIES
JOb:__ZN9DepthPass13PrepareSubsetEjRK10RenderNodeifRK17ShaderReplaceData
fqf:_String_IndexOf_m3406607758
ija:__ZN9ShaderLab20SerializedSubProgram16TextureParameter8TransferI14SafeBinaryReadEEvRT_
Vac:__Z35SetMeshComponentFromArrayFromScriptR4Mesh30InternalScriptingShaderChannel34InternalScriptingVertexChannelTypei17ScriptingArrayPtri
RNf:_Array_InternalArray__ICollection_Add_TisCustomAttributeNamedArgument_t287865710_m4157175270_gshared
fq:__ZN4core20StringStorageDefaultIcE6assignEPKcj
ygg:_UInt64_System_IConvertible_ToUInt64_m2135047981_AdjustorThunk
u6d:_BigInteger_ModPow_m3776562770
qej:__ZN15dense_hashtableINSt3__24pairIK10KeyWrapperIP12Il2CppObjectEN6il2cpp2gc9CachedCCWEEES5_NS7_5utils11PointerHashIS3_EEN14dense_hash_mapIS5_S9_SD_NS5_14EqualsComparerINS0_8equal_toIS4_EEEENS0_9allocatorISA_EEE9SelectKeyESI_SK_E3endEv
Zee:_RecordProtocol_ProcessChangeCipherSpec_m15839975
ptd:_ArrayList_IndexOf_m305368842
KXb:__ZN6Camera6SetFarEf
RMe:_FormatterConverter_ToBoolean_m1680758923
Iza:__ZN6prcoreL12RemapGenericI17TexFormatABGR888817TexFormatARGB8888EEvPKNS_9InnerInfoE
bQa:__ZN11GameManager17MainThreadCleanupEv
f5h:_ReadOnlyCollection_1__ctor_m1345363288_gshared
zSc:__Z50Register_UnityEngine_UISystemProfilerApi_EndSamplev
Hb:invoke_vffff
QNe:_SerializationCallbacks_GetSerializationCallbacks_m2939476649
Swd:_Hashtable__cctor_m4112166779
jFc:_UNITY_tt_slot_init
SKb:__ZZ23InitPlayerLoopCallbacksvEN41PostLateUpdateUpdateResolutionRegistrator7ForwardEv
gDb:__Z25scripting_array_class_get17ScriptingClassPtrj
Prc:__ZL22Transfer_ManagedObjectI9JSONWriteLb1EEvRK29SerializationCommandArgumentsR31RuntimeSerializationCommandInfo
rF:__ZNK10SampleClip22GetTypeVirtualInternalEv
qqa:__ZN9GfxDevice20DestroyRenderSurfaceER12ObjectHandleI17RenderSurface_TagP17RenderSurfaceBaseE
Xyd:_Stack__ctor_m2602729586
wJa:__ZN9GfxDevice22UpdateComputeResourcesEjPK9TextureIDPK16TextureDimensionPKijPKjjPK15ComputeBufferIDS7_PK20ComputeBufferCounterjSC_S2_S5_S9_SF_
W1:__ZN12_GLOBAL__N_15qAsinEff
rle:_InternalEnumerator_1_System_Collections_IEnumerator_get_Current_m2629988057_AdjustorThunk
$Ka:__ZN12TLSAllocatorI14StackAllocatorE13ThreadCleanupEv
zkj:__ZThn4_N6il2cpp2vm13ComObjectBase16MarshalInterfaceEP13Il2CppIStreamRK10Il2CppGuidPvjS7_j
JAd:_Convert_ToDouble_m996590115
UFb:__Z27FindActiveTransformWithPathPKc
p9h:_ReadOnlyCollection_1_System_Collections_IList_Remove_m4169110229_gshared
Zeg:_UInt16_ToString_m3020002356
DTe:_LayoutRebuilder_LayoutComplete_m68578143
Owi:_GUIStyle_get_fixedWidth_m2576616348
xyd:_SortedList_Find_m3363512987
pY:__ZNK6Camera7GetNearEv
NXd:_GenericTypeParameterBuilder_GetConstructorImpl_m863833310
DCa:__ZN7ApiGLES11UnmapBufferEjN2gl12BufferTargetE
Nkj:__ZN6il2cpp5utilsL24Utf32CharToSurrogatePairEjRA2_Ds
l3a:__Z25GetNextAllowedTextureSizeib13TextureFormat
MFb:__ZN20LocalFileSystemWebGL4CopyER13FileEntryDataS1_
JU:__ZN19CloudServiceHandler6RetainEv
X5h:_ReadOnlyCollection_1_System_Collections_IList_IndexOf_m198887188_gshared
Lnc:__Z36Event_CUSTOM_Internal_SetNativeEventPv
W7f:_UTF32Encoding_GetBytes_m3180303867
E3:__ZN12BaseRenderer20FlattenToRenderQueueER15RenderNodeQueueRK20DeprecatedSourceData
D7h:_ReadOnlyCollection_1_System_Collections_IList_Clear_m2007013334_gshared
Aib:__Z34scripting_liveness_calculation_endPv
kgj:__ZN6il2cpp2os6ThreadC2Ev
Fwf:_DateTimeOffset_get_UtcDateTime_m1021718282_AdjustorThunk
Fu:__ZN21AnimationClipPlayable22ProcessAnimationNoClipEPK35AnimationPlayableEvaluationConstantPK32AnimationPlayableEvaluationInputP33AnimationPlayableEvaluationOutput
P7e:_HybridDictionary_get_Count_m1166314536
jli:_TlsStream_Write_m1412844442
ptc:__Z18Transfer_BlittableI8JSONReadLb0E8Vector3fEvRK29SerializationCommandArgumentsR31RuntimeSerializationCommandInfo
n6i:__ZN6il2cpp2vm6Thread6DetachEP12Il2CppThread
Mli:_GeneralNames_get_DNSNames_m3788548987
twc:__GLOBAL__sub_I_runtime_dynamics_2_cpp
guj:_Hacker_OnUserInput_m1095014035
aD:__ZN7mecanim8skeleton30SkeletonBuildReverseIndexArrayEPiPKiPKNS0_8SkeletonES6_
Qlc:__Z19GetGUIBlendMaterialv
HOd:_Math_Round_m3018379666
$gj:__ZN6il2cpp2os10ThreadImpl5SleepEjb
Z5h:_ReadOnlyCollection_1_System_Collections_IList_Remove_m1965826685_gshared
Hzf:_Delegate_CreateDelegate_m1051651521
wJf:_PlayableHandle_IsPlayableOfType_TisRuntimeObject_m503495943_AdjustorThunk
$Fj:_glBindSampler__wrapper
VPa:__ZNSt3__26vectorIN20ArchiveStorageHeader12StorageBlockE13stl_allocatorIS2_L18MemLabelIdentifier55ELi16EEE8__appendEj
Hf:_emscripten_set_mouseup_callback
Lpg:_Mathf_Clamp_m3350697880
WIg:__Z165RuntimeInvoker_Void_t1185182177_UInt32U26_t3735378166_Int32_t2950945753_UInt32U26_t3735378166_Int32_t2950945753_Int32_t2950945753_Int32_t2950945753_Int32_t2950945753PFvvEPK10MethodInfoPvPS4_
t3f:_List_1_System_Collections_IList_Remove_m3140917266_gshared
Tqi:_CompositeExpression__ctor_m2434860303
fff:_X509ChainElementCollection_System_Collections_IEnumerable_GetEnumerator_m3829089536
KZb:__ZNK18ScreenManagerWebGL8GetWidthEv
oF:__ZN10SampleClipD2Ev
Xei:_Predicate_1_Invoke_m2389850270_gshared
Vhb:__Z13GetGISettingsv
tU:__ZN11UnityEngine15CloudWebService20WebRequestRestClientC2Ev
CAc:_cff_cmap_unicode_init
CHf:_Array_InternalArray__ICollection_Contains_TisRuntimeObject_m4067783231_gshared
Rbh:_Collection_1_IsValidItem_m3080586124_gshared
E5c:_ClipperRegistry_Register_m2407166513
cxj:_readlink
H$i:__ZN15dense_hashtableINSt3__24pairIK10KeyWrapperINS1_IPK9EventInfoP11Il2CppClassEEEjEES9_17ReflectionMapHashIS8_EN14dense_hash_mapIS9_jSD_NS9_14EqualsComparerINS0_8equal_toIS8_EEEENS0_9allocatorISB_EEE9SelectKeyESI_SK_E12resize_deltaEjj
k0d:_MonoCMethod_Invoke_m2700167622
Oxd:_KeyMarker__cctor_m2590194914
Iwe:_Enumerator_Reset_m627751027_AdjustorThunk
Wbb:__ZNK6Sprite9GetBoundsE8Vector2fbb
rTa:__ZNK19RenderEventsContext21CleanupCommandBuffersEv
aHi:_TextGenerator_PopulateWithErrors_m1222498386
kua:__ZN11ContextGLES6CreateEi
v2g:_List_1_set_Capacity_m3382070520_gshared
bSe:_U3CMouseDragOutsideRectU3Ec__Iterator1_Dispose_m267465418
Fyf:_Decimal_CompareTo_m3502307243_AdjustorThunk
jCb:__Z19TransferField_ArrayI18StreamedBinaryReadILb0EE27Converter_SimpleNativeClassI17AnimationCurveTplIfEEEvRK23StaticTransferFieldInfoR31RuntimeSerializationCommandInfoRT0_
CKa:__ZN14StackAllocator16FrameMaintenanceEb
NMa:__Z18ReadStringFromFilePN4core17string_with_labelILi1EEERKNS_12basic_stringIcNS_20StringStorageDefaultIcEEEE
DWe:_Scrollbar_get_value_m760470106
uY:__ZNK10GameObject20QueryComponentByTypeEPKN5Unity4TypeE
Uxf:_Decimal_System_IConvertible_ToInt32_m1488426794_AdjustorThunk
ouj:_Hacker_SelectLevel_m2571921339
hPd:_MonoCustomAttrs_IsUserCattrProvider_m2878058089
UVh:__ZL71InputField_t3762917431_CustomAttributesCacheGenerator_m_HideMobileInputP21CustomAttributesCache
x2a:__ZN11TextureData5ResetEv
rgc:__Z53Register_UnityEngine_GameObject_get_activeInHierarchyv
slf:_ToBase64Transform_InternalTransformFinalBlock_m360524956
zld:_ActivationContext_Dispose_m2038725770
L_:__ZL30InitializeCoreScriptingClassesv
Eg:_glBlitFramebuffer
y1f:_Enumerator_System_Collections_IEnumerator_get_Current_m3594024719_gshared
Grb:__Z35Transfer_Blittable_SingleValueFieldI14SafeBinaryReadhEvRT_R17GeneralMonoObjectRK23StaticTransferFieldInfo
G9b:__ZN12CachedWriter15CompleteWritingEv
C1a:__ZNK12CubemapArray22GetTypeVirtualInternalEv
Mn:FUNCTION_TABLE_vif
Nn:FUNCTION_TABLE_vid
On:FUNCTION_TABLE_vii
Lib:__Z40scripting_liveness_calculation_from_root18ScriptingObjectPtrPv
z_a:__ZN7Texture23VirtualRedirectTransferER24GenerateTypeTreeTransfer
fKc:_UNITY_FT_Set_Transform
tdj:__ZN6il2cpp8metadata15GenericMetadata20RegisterGenericClassEP18Il2CppGenericClass
EFj:_glDeleteFramebuffers__wrapper
rFg:__Z220RuntimeInvoker_Boolean_t97287965_RuntimeObject_Int32U26_t1369213839_Int32_t2950945753_Int32_t2950945753_Int32_t2950945753_RuntimeObject_SByte_t1669577662_Int32_t2950945753_ContractionU26_t961830454_ContextU26_t3937453398PFvvEPK10MethodInfoPvPS4_
Kyc:_cff_blend_build_vector
hbf:_WebHeaderCollection_ToString_m1263025316
n6b:__ZZN12MeshRenderer15InitializeClassEvEN29FunctorImpl_134kDidDeleteMesh4CallEPviR11MessageData
s2d:_GetterAdapter_Invoke_m3767885970
x3g:_List_1__ctor_m747758800_gshared
Erf:_String_CreateString_m2818852475
I4a:__ZN28EnlightenRendererInformation8TransferI14SafeBinaryReadEEvRT_
nIi:_CanvasRenderer_get_hasMoved_m2236392341
trg:_MessageEvent__ctor_m1231650089
xha:__ZNK15Lz4Decompressor16DecompressMemoryEPKvPjPvS2_
VSa:__Z11IsCoroutine18ScriptingMethodPtrRK22CommonScriptingClasses
P1b:__ZN4core8hash_mapINS_12basic_stringIcNS_20StringStorageDefaultIcEEEE10vector_setI4PPtrI11SpriteAtlasENSt3__24lessIS8_EE13stl_allocatorIS8_L18MemLabelIdentifier81ELi16EEENS_4hashIS4_EENS9_8equal_toIS4_EEEixERKS4_
uh:_glGetAttribLocation
z0a:__Z35UnityPropertySheet_MakeSortedColorsRKNSt3__23mapIN9ShaderLab16FastPropertyNameE10ColorRGBAfNS_4lessIS2_EENS_9allocatorINS_4pairIKS2_S3_EEEEEER10vector_mapIS2_S3_S5_NS6_INS7_IS2_S3_EEEEE
XCc:_UNITY_tt_face_load_os2
_qb:__Z29Transfer_Blittable_ArrayFieldI14SafeBinaryRead8Vector4fEvRT_R9ArrayInfoRK23StaticTransferFieldInfo
STd:_Default_check_arguments_m3882727959
Y8f:_UTF8Encoding_GetMaxCharCount_m3762459613
bVd:_ModuleBuilder_RegisterToken_m4166846047
JKb:__ZZ23InitPlayerLoopCallbacksvEN51PostLateUpdateUpdateCustomRenderTexturesRegistrator7ForwardEv
MVe:_RawImage_OnPopulateMesh_m1115858855
YRi:__ZN6il2cpp2vm13MetadataCache25GetStringLiteralFromIndexEi
$ld:_Hashtable_ToPrime_m33531354
bv:__ZN7mecanim9animation12EvaluateClipEPKNS0_4ClipEPKNS0_9ClipInputEPNS0_10ClipMemoryEPNS0_10ClipOutputE
mih:_Collection_1_IsSynchronized_m1117613618_gshared
ceg:_TypeInitializationException__ctor_m3546444694
xcc:__ZNK9Transform16GetLocalRotationEv
TT:__ZN11UnityEngine15CloudWebService23WebRequestUploadHandler17ConsumeUploadDataEj
sTg:__Z68RuntimeInvoker_Void_t1185182177_Single_t1397266774_SByte_t1669577662PFvvEPK10MethodInfoPvPS4_
fLd:_MemoryStream_set_Position_m3169779190
CWb:__ZN13RenderManager29SetCurrentCameraAndStackStateEP6CameraP25CameraStackRenderingState
p0c:_ExecuteEvents_get_scrollHandler_m2659345019
QRa:__ZNSt3__26__treeINS_12__value_typeIjN4core12basic_stringIcNS2_20StringStorageDefaultIcEEEEEENS_19__map_value_compareIjS7_NS_4lessIjEELb1EEE13stl_allocatorIS7_L18MemLabelIdentifier7ELi16EEE7destroyEPNS_11__tree_nodeIS7_PvEE
_5i:__ZN15dense_hashtableINSt3__24pairIK10KeyWrapperINS1_IP11Il2CppClassjEEES4_EES6_N6il2cpp8metadata14ArrayClassHashEN14dense_hash_mapIS6_S4_SB_NS6_14EqualsComparerINSA_17ArrayClassCompareEEENS0_9allocatorIS8_EEE9SelectKeyESF_SH_E12resize_deltaEjj
Th:_JS_WebRequest_Release
AS:__ZN11UnityEngine15CloudWebService14DataErrorEventD0Ev
P9i:__ZN6il2cpp6icalls8mscorlib6System4Type20internal_from_handleEi
xGe:_Context__ctor_m254302079
pdj:__ZN6il2cpp8metadata15GenericMetadata7InflateEPK19Il2CppGenericMethodPK20Il2CppGenericContext
Z3a:__ZN19ShaderPropertySheet16SetArrayPropertyEN9ShaderLab16FastPropertyNameENS_12PropertyTypeEPKvj
lXe:_Selectable_FindSelectable_m2348614027
a9c:_DropdownItem_OnPointerEnter_m1492957598
HNc:__ZN2UI11CanvasGroup23VirtualRedirectTransferER19StreamedBinaryWriteILb0EE
inc:__ZN8GUIState8EndOnGUIEv
qFc:_UNITY_TT_Get_VMetrics
Fud:_SimpleEnumerator__cctor_m2844299657
vOd:_LocalDataStoreSlot__ctor_m4104083971
I9h:_ReadOnlyCollection_1_System_Collections_Generic_IListU3CTU3E_RemoveAt_m3849058645_gshared
EAi:_AudioSource_ReadExtensionName_m725112169
Mni:_X509CertificateEnumerator_System_Collections_IEnumerator_Reset_m2039524926
dMg:__Z128RuntimeInvoker_Void_t1185182177_RuntimeObject_BooleanU26_t4125257963_SByte_t1669577662_Int32U26_t1369213839_Int32U26_t1369213839PFvvEPK10MethodInfoPvPS4_
bxa:__ZN7Texture21GetMasterTextureLimitEv
rYb:__Z12CanAddScriptR10GameObject17ScriptingClassPtrPS1_S2_
H2i:__ZN6il2cpp2vm10Reflection12HasAttributeEP12Il2CppObjectP11Il2CppClass
Bci:_Comparison_1_BeginInvoke_m3263247262_gshared
P9:__ZN9ShaderLabL25StaticInitializeShaderLabEPv
U:Math_max
KYh:__ZL64HorizontalLayoutGroup_t2586782146_CustomAttributesCacheGeneratorP21CustomAttributesCache
h3i:_il2cpp_class_get_methods
Dwg:_HitInfo_SendMessage_m1343099429_AdjustorThunk
Mtb:__Z18Transfer_BlittableI24GenerateTypeTreeTransferLb0EN4math12int2_storageEEvRK29SerializationCommandArgumentsR31RuntimeSerializationCommandInfo
lAf:_StackTrace_get_trace_m1194606084
epf:_Single_CompareTo_m2785801815_AdjustorThunk
sgj:__ZN6il2cpp2os6Thread16GetCurrentThreadEv
DQf:_Array_InternalArray__Insert_TisUILineInfo_t4195266810_m3191124053_gshared
M7b:__ZN10GameObject13ComponentPair15SetComponentPtrEPN5Unity9ComponentE
ZDj:_glBlitFramebuffer__wrapper
A2b:__Z13RegisterClassI10MeshFilterEvv
WRa:__ZN10TagManager8TransferI19StreamedBinaryWriteILb0EEEEvRT_
eib:__ZN11PreloadData23VirtualRedirectTransferER18StreamedBinaryReadILb0EE
Lsg:_PropertyNameUtils_PropertyNameFromString_Injected_m1259736140
Lrd:_Char_System_IConvertible_ToDateTime_m3564102661
B6a:__ZN6Sprite17MainThreadCleanupEv
fEj:_glBlendFuncSeparate__wrapper
$K:__ZN10AudioMixer14UpdateMuteSoloEv
hRa:__ZN9Transform35SetLocalPositionWithoutNotificationERKN4math7_float3Ey
MLg:__Z69RuntimeInvoker_UInt64_t4134040092_Int32_t2950945753_SByte_t1669577662PFvvEPK10MethodInfoPvPS4_
Ui:_JS_Eval_ClearTimeout
mWe:_Raycast2DCallback_Invoke_m1500574149
NBa:__ZN7ApiGLES16SetPatchVerticesEi
Xsi:_CharacterClass_Compile_m3296067317
jij:__ZN6il2cpp2gc16GarbageCollector16InvokeFinalizersEv
Uqd:_Byte_System_IConvertible_ToInt64_m285584218_AdjustorThunk
eug:_Rect_get_size_m477575021_AdjustorThunk
zKi:__ZN6il2cpp2vm5Class20FromGenericParameterEPK22Il2CppGenericParameter
gV:__ZN19CloudServiceHandler11FlushEventsEv
bfa:__ZN15GlobalCallbacksC2Ev
TNf:_Array_InternalArray__ICollection_Add_TisLabelData_t360167391_m1648183135_gshared
Mve:_Comparer_1_System_Collections_IComparer_Compare_m2016223770_gshared
bLg:__Z74RuntimeInvoker_DateTime_t3738529785_DateTime_t3738529785_Int32_t2950945753PFvvEPK10MethodInfoPvPS4_
uLc:_UNITY_FT_New_Memory_Face
Teh:_Collection_1_System_Collections_IList_IndexOf_m3271188411_gshared
yJc:__ZN20TextRenderingPrivate21TextMeshGeneratorImpl5FlushEv
TKd:_MonoIO_GetFileStat_m678141354
mBc:_UNITY_FT_Load_Sfnt_Table
G7c:__Z15CastclassSealedP12Il2CppObjectP11Il2CppClass
uyf:_Decimal_IsZero_m4250358244_AdjustorThunk
hOd:_UnmanagedMemoryStream_get_CanRead_m3770815400
jXb:__ZN16ReflectionProbes40UpdateRealtimeReflectionProbesTimeslicedEv
kyf:_Decimal_u64_m3374804932
veg:_UInt16_System_IConvertible_ToInt32_m1950778303_AdjustorThunk
tfb:__ZNK30RuntimeInitializeOnLoadManager22GetTypeVirtualInternalEv
hPi:__ZN15dense_hashtableINSt3__24pairIK10KeyWrapperIN6il2cpp5utils13dynamic_arrayIPK10Il2CppTypeLj4EEEEPFvvEEESA_NS3_8metadata19Il2CppSignatureHashEN14dense_hash_mapISA_SD_SG_NSA_14EqualsComparerINSF_22Il2CppSignatureCompareEEENS0_9allocatorISE_EEE9SelectKeyESK_SM_E12resize_deltaEjj
v5b:__ZN16ReflectionProbes15InitializeClassEv
H1h:_Dictionary_2_Do_ICollectionCopyTo_TisKeyValuePair_2_t3699644050_m4159638770_gshared
obj:__ZN6il2cpp2vm5Image9GetCorlibEv
Ozg:_Vector3_get_left_m2428419009
eA:__ZN8Animator13BatchedFKPassERK13dynamic_arrayIP14PlayableOutputLj4EE
Hnj:_GC_reclaim_uninit
c0c:_ExecuteEvents_Execute_m113814934
yba:__ZN13RuntimeStaticINSt3__23mapIN4core12basic_stringIcNS2_20StringStorageDefaultIcEEEES6_NS0_4lessIS6_EE13stl_allocatorINS0_4pairIKS6_S6_EEL18MemLabelIdentifier13ELi16EEEELb0EE13StaticDestroyEPv
o$h:_Array_qsort_TisColor32_t2600501292_m1362211604_gshared
Sve:_Enumerator_System_Collections_IEnumerator_get_Current_m2979767597_AdjustorThunk
iid:_MD5CryptoServiceProvider_ProcessFinalBlock_m2241588515
vYe:_ScrollRect_GetBounds_m449872505
Tj:_glIsVertexArray
Kkd:_SmallXmlParser_Read_m3485223434
DDd:_Int16_Parse_m2276856944
ea:invoke_fff
Twj:_mbsinit
NCj:b14
SMc:__ZN2UI6Canvas17MainThreadCleanupEv
qza:__ZN6prcoreL12RemapGenericI17TexFormatARGB155517TexFormatRGBA8888EEvPKNS_9InnerInfoE
tMi:__ZN13Il2CppHashMapIPK19Il2CppGenericMethodPK26Il2CppGenericMethodIndicesN6il2cpp8metadata23Il2CppGenericMethodHashENS7_26Il2CppGenericMethodCompareENSt3__29allocatorINSA_4pairIK10KeyWrapperIS2_ES5_EEEEEC2EjRKS8_RKS9_
H_d:_TypeBuilder_HasElementTypeImpl_m1871001960
jof:_SecurityFrame__ctor_m2140076703_AdjustorThunk
wVf:_DefaultComparer_Equals_m2458578172_gshared
pDa:__ZN7ApiGLES13CreateProgramEv
Qwe:_Enumerator_VerifyState_m4003066746_gshared
qxa:__ZN4crnd12crn_unpackerD2Ev
ek:_emscripten_glTexImage2D
Gue:_Comparer_1_System_Collections_IComparer_Compare_m2537217645_gshared
z_:__ZN18ScriptingArguments9AddStringEPKc
$nj:_setup_header
Ksd:_Char_ToString_m3588025615
A4e:_CryptoConvert_ToCapiKeyBlob_m3371450375
yya:__ZL23stbir__resize_arbitraryPvPKviiiS_iiiffffPfiij14stbir_datatype12stbir_filterS4_10stbir_edgeS5_16stbir_colorspace
eub:__Z18Transfer_BlittableI24GenerateTypeTreeTransferLb1E8Vector4fEvRK29SerializationCommandArgumentsR31RuntimeSerializationCommandInfo
RCj:b18
pk:_pthread_detach
nSi:__ZN6il2cpp2vm19SocketPollingThread7RunLoopEv
I9c:_FontUpdateTracker_UntrackText_m1981515690
o8b:__ZN15DirectorManager20ScheduleGraphDestroyERK14HPlayableGraph
YCb:__ZNSt3__213__stable_sortIRN10vector_mapI17ScriptingClassPtrPKN5Unity4TypeENS_4lessIS2_EENS_9allocatorINS_4pairIS2_S6_EEEEE13value_compareENS_11__wrap_iterIPSB_EEEEvT0_SJ_T_NS_15iterator_traitsISJ_E15difference_typeEPNSM_10value_typeEi
j1e:_SimpleCollator_FillSurrogateSortKeyRaw_m725998232
M5g:_List_1_AddEnumerable_m1284696147_gshared
uaf:_IPAddress_Equals_m1823478787
oHe:_Context_CreateNewContext_m3053563976
Yka:__ZN9ShaderLab25SerializedTextureProperty8TransferI24GenerateTypeTreeTransferEEvRT_
z0i:__ZN6il2cpp2gc19AppendOnlyGCHashMapINSt3__24pairIPK14Il2CppAssemblyP11Il2CppClassEEP24Il2CppReflectionAssembly17ReflectionMapHashIS9_ENS2_8equal_toIS9_EEEC2Ev
Rwb:__Z18Transfer_BlittableI19StreamedBinaryWriteILb0EELb0EdEvRK29SerializationCommandArgumentsR31RuntimeSerializationCommandInfo
$ka:__ZN11NamedObject8TransferI18StreamedBinaryReadILb0EEEEvRT_
Jmg:_InvokableCall_remove_Delegate_m1376110510
jxd:_Hashtable_Clear_m3112193608
G8f:_UTF8Encoding_InternalGetByteCount_m771565606
H4e:_DSAManaged_GenerateKeyPair_m2236915969
P0g:_List_1_System_Collections_IList_Remove_m3654336679_gshared
DHh:__ZL51GUILayer_t2783472903_CustomAttributesCacheGeneratorP21CustomAttributesCache
Mk:_emscripten_glMatrixMode
ZUe:_MaskableGraphic_UnityEngine_UI_IClippable_get_gameObject_m1739855597
Ps:__ZN8Animator23VirtualRedirectTransferER18StreamedBinaryReadILb0EE
uGf:_Guid__ctor_m3562600567_AdjustorThunk
Itf:_DateTime_System_IConvertible_ToInt16_m3239820399
WR:__ZN11UnityEngine15CloudWebService14DataDispatcher16PrepareDataBlockERNS0_16SessionContainerE
YHa:__ZN18GfxFramebufferGLES5ClearE13GfxClearFlagsRK10ColorRGBAffib
sNf:_MonoProperty_StaticGetterAdapterFrame_TisRuntimeObject_m4131530968_gshared
ABb:__ZL26Transfer_SimpleNativeClassI18StreamedBinaryReadILb0EE10RectOffsetLb0EEvRK29SerializationCommandArgumentsR31RuntimeSerializationCommandInfo
eoe:_InternalEnumerator_1_get_Current_m2316281569_gshared
sOb:__ZL12DepthPassJobPN21GfxDeviceAsyncCommand10ArgScratchEPKNS_3ArgE
kja:__ZNSt3__26vectorIN9ShaderLab20SerializedSubProgram16TextureParameterENS_9allocatorIS3_EEE6assignINS_11__wrap_iterIPS3_EEEENS_9enable_ifIXaasr21__is_forward_iteratorIT_EE5valuesr16is_constructibleIS3_NS_15iterator_traitsISC_E9referenceEEE5valueEvE4typeESC_SC_
Ipc:__ZN5Unity9rapidjson6WriterI16TempBufferWriterNS0_4UTF8IcEES4_13JSONAllocatorE11WriteDoubleEd
mag:_Thread_SetCachedCurrentUICulture_m1729523031
QQc:__Z55Register_UnityEngine_CanvasGroup_get_ignoreParentGroupsv
_2b:__Z13RegisterClassI19LowerResBlitTextureEvv
zbe:_ClientContext_set_ClientHelloProtocol_m4189379912
Nm:FUNCTION_TABLE_iiiiiiiiiiii
o5g:_List_1_get_Item_m1686506901_gshared
gUa:__ZN16GraphicsSettingsD0Ev
n:cttz_i8
yyc:_UNITY_FT_GlyphLoader_Add
_Ai:_AudioListener_INTERNAL_CALL_ReadExtensionPropertyName_m330480156
ZBd:_Convert_ToUInt16_m867476252
Jl:_emscripten_glViewport
mkj:__ZN6il2cpp6icalls8mscorlib6System15MonoCustomAttrs17IsDefinedInternalEP12Il2CppObjectP20Il2CppReflectionType
vJi:_SkeletonBone_t4134054672_marshal_pinvoke_back
Wzc:_cff_parse_font_bbox
s0e:_MSCompatUnicodeTable_Category_m1834196420
Kdb:__ZN14PlayerSettings23VirtualRedirectTransferER18StreamedBinaryReadILb0EE
aBf:_Double_CompareTo_m3151899116
gtj:__ZN6il2cpp2os5Event5ResetEv
FTb:__Z26CombineDepthNormalsTextureRK17RenderLoopContextR13dynamic_arrayI16RenderObjectDataLj4EE
oDc:_tt_name_ascii_from_other
Bzi:_ToggleGroup__ctor_m3308114662
adj:__ZN6il2cpp8metadata15GenericMetadata17InflateParametersEPK13ParameterInfohPK20Il2CppGenericContextb
hSa:__ZN6Camera13AwakeFromLoadE17AwakeFromLoadMode
K0h:_Array_Sort_TisUILineInfo_t4195266810_m3737783007_gshared
esg:_PlayableAsset_Internal_CreatePlayable_m2550417712
Xv:__ZNK17AnimationPlayable27GetNextCompatibleDescendantEi
sli:_TlsStream_Write_m188217214
zGb:__Z25SetNeedToPerformRenderingb
lgg:_UInt64_System_IConvertible_ToInt32_m949522652_AdjustorThunk
uQa:__ZN10GameObjectD2Ev
HOb:__ZN14qsort_internal30FindAndMovePivotToLastPositionIP15RODataDepthPassi17ROSorterDepthPassEEvT_S4_T0_T1_
sWb:__ZN12CullingGroup10SendEventsEPK17CullingGroupEventj
E1c:_PointerInputModule__ctor_m3728889932
GX:__ZThn32_NK8Renderer8GetLayerEv
Z0f:_Enumerator_System_Collections_IEnumerator_Reset_m2915500989_gshared
$zc:_cff_parse_vsindex
PDd:_Int32_ValidDigit_m1059003769
pIj:_emscripten_glTexParameterfv__wrapper
NSe:_LayoutGroup_get_rectTransform_m442863741
nob:__Z18Transfer_BlittableI14SafeBinaryReadLb1E9BoundsIntEvRK29SerializationCommandArgumentsR31RuntimeSerializationCommandInfo
_3i:_il2cpp_method_get_param_count
bcc:__ZN10systeminfo19ISOToSystemLanguageERN4core12basic_stringIcNS0_20StringStorageDefaultIcEEEE
r$i:__ZNK15dense_hashtableINSt3__24pairIK10KeyWrapperINS1_IPK12PropertyInfoP11Il2CppClassEEEjEES9_17ReflectionMapHashIS8_EN14dense_hash_mapIS9_jSD_NS9_14EqualsComparerINS0_8equal_toIS8_EEEENS0_9allocatorISB_EEE9SelectKeyESI_SK_E3endEv
_gg:_UnauthorizedAccessException__ctor_m40101894
rHc:_ps_dimension_done
GMc:__Z46Register_UnityEngine_TextGenerator_Dispose_cppv
fBf:_Double_Parse_m4153729520
yii:_IndexedSet_1_AddUnique_m861843892_gshared
n4a:__ZN16LightmapSettings8TransferI14SafeBinaryReadEEvRT_
xoa:__ZN17BufferManagerGLES13ReleaseBufferEP14DataBufferGLES
yae:_CipherSuite_Write_m1172814058
sNd:_SynchronizedWriter_Write_m301917713
H8:__ZN9profiling6MarkerC2EPKc13ProfilerGroupNS0_5FlagsE
kuc:__Z18Transfer_BlittableI8JSONReadLb1EjEvRK29SerializationCommandArgumentsR31RuntimeSerializationCommandInfo
fVd:_ConstructorBuilder_get_IsCompilerContext_m3364441562
Klg:_Debug_LogWarning_m3752629331
Ubi:_ReadOnlyCollection_1_System_Collections_Generic_IListU3CTU3E_RemoveAt_m4037795630_gshared
mJg:__Z117RuntimeInvoker_Void_t1185182177_RuntimeObject_Int32_t2950945753_Int32_t2950945753_Int32_t2950945753_Int32_t2950945753PFvvEPK10MethodInfoPvPS4_
y4c:_U3COnFinishSubmitU3Ec__Iterator0_Reset_m3632769946
$o:stackSave
qU:__ZN5Unity9rapidjson15GenericDocumentINS0_4UTF8IcEE13JSONAllocatorNS0_12CrtAllocatorEE6StringEPKcjb
B6c:_ColorTween_get_targetColor_m1724075482_AdjustorThunk
MHc:_ps_dimension_end
elc:__Z41Register_UnityEngine_Mesh_Internal_Createv
_cj:__ZNK15dense_hashtableI10KeyWrapperIP18Il2CppGenericClassES3_N6il2cpp8metadata22Il2CppGenericClassHashEN14dense_hash_setIS3_S6_NS3_14EqualsComparerINS5_25Il2CppGenericClassCompareEEENSt3__29allocatorIS3_EEE8IdentityESA_SD_E12test_deletedERK30dense_hashtable_const_iteratorIS3_S3_S6_SF_SA_SD_E
szd:_Console_Open_m3077673205
Tni:_X509StoreManager_get_CurrentUser_m4040993045
RXb:__ZN6Camera9SetAspectEf
sMf:_Array_InternalArray__IndexOf_TisDateTime_t3738529785_m2463359116_gshared
va:invoke_viiffiii
Ntj:_Display_Start_m3623905221
GJj:_emscripten_glBindVertexArray__wrapper
Sfj:__ZN6il2cpp6icalls8mscorlib6System4Enum19get_underlying_typeEP20Il2CppReflectionType
Fti:_Parser_IsECMAScript_m674158805
pRa:__ZN9Transform37InitializeTransformHierarchyRecursiveER18TransformHierarchyRii
MHa:__ZN26SinglePassStereoSupportExt23SetupStereoMatrixParamsE21MonoOrStereoscopicEye24BuiltinShaderMatrixParamRK10Matrix4x4f
Owj:_fscanf
rYc:__ZNK25UnityWebRequestJavaScript16GetUploadedBytesEv
VP:__Z46AudioListener_CUSTOM_GetNumExtensionPropertiesP12Il2CppObject
yTi:__ZN6il2cpp6icalls8mscorlib6SystemL16CheckMemberMatchI9FieldInfoNS_5utils10functional6FilterINSt3__212basic_stringIcNS8_11char_traitsIcEENS8_9allocatorIcEEEENS5_13VmStringUtils23CaseInsensitiveComparerEEEEEbPKT_PK11Il2CppClassSN_iRKT0_
FMf:_Array_InternalArray__IndexOf_TisMonoResource_t4103430009_m1351751258_gshared
nej:__ZN6il2cpp2gc16GarbageCollector12RunFinalizerEPvS2_
$Cf:_FieldAccessException__ctor_m3583219052
akc:__Z57Register_UnityEngine_Transform_INTERNAL_set_localPositionv
Bsa:__ZN13GfxDeviceGLES26SetRandomWriteTargetBufferEi15ComputeBufferID
_nj:_GC_split_block
T$h:_Array_Resize_TisUICharInfo_t75501106_m3903846016_gshared
xKb:__ZZ23InitPlayerLoopCallbacksvEN49EarlyUpdateResetFrameStatsAfterPresentRegistrator7ForwardEv
oxj:_poll
H8h:_ReadOnlyCollection_1_System_Collections_IEnumerable_GetEnumerator_m1671097018_gshared
Lgg:_UInt64_ToString_m1529093114_AdjustorThunk
HXh:__ZL85Selectable_t3250028441_CustomAttributesCacheGenerator_Selectable_IsPressed_m907486548P21CustomAttributesCache
s5d:_TypeLibImportClassAttribute__ctor_m2302178978
T1e:_Escape_t3294788190_marshal_pinvoke
hRe:_InputField_OnUpdateSelected_m1118869681
sbj:__ZN6il2cpp2vmL36AddNestedTypesToNametoClassHashTableEP40Il2CppNameToTypeDefinitionIndexHashTablePKcRKNSt3__212basic_stringIcNS5_11char_traitsIcEENS5_9allocatorIcEEEEP11Il2CppClass
Axa:__ZN4crnd12crn_unpacker11unpack_dxt1EPPhjjj
Mbc:__ZNK11ICallString6ToUTF8Ev
FKi:__ZN15dense_hashtableINSt3__24pairIK10KeyWrapperIPK22Il2CppGenericParameterEP11Il2CppClassEES6_N6il2cpp5utils11PointerHashIS4_EEN14dense_hash_mapIS6_S9_SE_NS6_14EqualsComparerINS0_8equal_toIS5_EEEENS0_9allocatorISA_EEE9SelectKeyESJ_SL_E15insert_noresizeERKSA_
wze:_Transform_1_Invoke_m2468053724_gshared
IOb:__ZNSt3__211__sift_downIR17ROSorterDepthPassP15RODataDepthPassEEvT0_S5_T_NS_15iterator_traitsIS5_E15difference_typeES5_
Y$a:__ZN18UnityPropertySheet11UnityTexEnvC2Ev
tmd:_ArgumentException__ctor_m3200406061
yA:__ZN8Animator17ApplyOnAnimatorIKEiRNS_11AnimatorJobE
q1:__ZN12FileAccessor4ReadEyyPvPy
Msf:_EncoderExceptionFallback__ctor_m3745979420
g7g:_List_1_set_Capacity_m2777925136_gshared
sXb:__ZN13RenderTexture9SetHeightEi
mu:__ZN7mecanim9animation17ClearMotionOutputEPNS0_18AnimationNodeStateE
kbe:_CipherSuiteCollection_get_IsFixedSize_m3127823890
nte:_InternalEnumerator_1_System_Collections_IEnumerator_get_Current_m3537550566_gshared
CWe:_Scrollbar_UpdateVisuals_m2492252165
Jmi:_PKCS12_get_Keys_m2165478388
i8i:__ZN6il2cpp6icalls8mscorlib6System2IO6MonoIO17GetFileAttributesEP12Il2CppStringPi
zhd:_HMACMD5__ctor_m3008609295
wvf:_DateTime__ParseAmPm_m3478436123
awf:_DateTime_ToString_m2992030064_AdjustorThunk
hEc:_tt_cmap8_char_index
__:__Z24scripting_class_get_name17ScriptingClassPtr
bMd:_Stream_WriteByte_m1519852120
_zi:_VerticalLayoutGroup_CalculateLayoutInputHorizontal_m1404590745
gca:__ZN13RuntimeStaticI15GUIEventManagerLb0EE13StaticDestroyEPv
VPd:_ShortComparer_Compare_m1881262465
eqb:__Z29Transfer_Blittable_ArrayFieldI14SafeBinaryReadjEvRT_R9ArrayInfoRK23StaticTransferFieldInfo
ee:_emscripten_set_keydown_callback
n5f:_EncoderReplacementFallback__ctor_m1483565116
ghf:_Interpreter_IsWordChar_m2858055765
gxd:_Hashtable_CopyTo_m2905447224
y1:__ZN12FileAccessorC2Ev
WBc:_otv_u_O_O_u_O_O
qy:__ZThn152_NK26AnimatorControllerPlayable25GetStateMachineBehavioursEv
tii:_EventFunction_1_Invoke_m2429482587_gshared
Obf:_AsnEncodedData_SubjectAltName_m4049949414
NUi:__ZN6il2cpp2vm7Runtime12GetConfigDirEv
x0f:_Enumerator_MoveNext_m1177880931_AdjustorThunk
c_e:_Slider_UpdateVisuals_m3662961057
_Gi:_TextGenerator_Populate_m194003733
iWd:_DerivedType_get_FullName_m1025358827
Ffd:_CryptoConfig_MapNameToOID_m2044758263
YVh:__ZL70InputField_t3762917431_CustomAttributesCacheGenerator_m_OnValueChangedP21CustomAttributesCache
rHb:__ZN13RenderManager22OnWindowSizeHasChangedEv
PEb:__Z39WriteQueueForTransferSignatureIntoCacheRK31TransferFunctionScriptingTraitsRK24TransferRequestSignature17ScriptingClassPtrR23CachedSerializationDataRb
_gb:__ZN13RenderManager18UpdateAllRenderersEv
z6f:_Encoding_get_UTF8UnmarkedUnsafe_m320312322
vag:_Thread_Thread_free_internal_m333849022
_qc:__Z35Transfer_Blittable_FixedBufferFieldI9JSONWritexEvRK29SerializationCommandArgumentsR31RuntimeSerializationCommandInfo
Roi:_CostDelegate_BeginInvoke_m2828452701
MSc:__ZN22BaseUnityConnectClient30OnEnteringStatePausedOrStoppedEv
Qgh:_Collection_1_ConvertItem_m1556170494_gshared
Au:__ZN7mecanim5human12HumanPoseAddERNS0_9HumanPoseERKS1_S4_
Wtf:_DateTime_ToUniversalTime_m1945318289
Etd:_ArrayList_ToArray_m3827492363
u_e:_Slider_get_stepSize_m1423227661
Ggg:_UInt64_Parse_m819899889
Ykf:_SymmetricAlgorithm_set_IV_m3196220308
AYd:_GenericTypeParameterBuilder_GetHashCode_m852224381
jCd:_Convert_ToUInt32_m1453583008
WDf:_CompareInfo_Compare_m894311506
ZQa:__Z24MergeTransformComponentsR9TransformS0_b
AOi:__ZNK15dense_hashtableI10KeyWrapperIPK19Il2CppGenericMethodES4_N6il2cpp8metadata23Il2CppGenericMethodHashEN14dense_hash_setIS4_S7_NS4_14EqualsComparerINS6_26Il2CppGenericMethodCompareEEENSt3__29allocatorIS4_EEE8IdentityESB_SE_E10test_emptyEj
n_c:_EventSystem_UpdateModules_m3643806022
aJi:_AnimationOffsetPlayable__cctor_m1029460816
okj:__ZN6il2cpp2vm13ComObjectBase19GetRuntimeClassNameEPP15Il2CppHString__
Rj:_emscripten_glVertexAttribPointer
PVa:__ZNK20IntermediateRenderer12GetSceneMaskEv
CHb:__ZN14PreloadManager26UpdatePreloadingSingleStepENS_21UpdatePreloadingFlagsEi
iZe:_ScrollRect_SetLayoutHorizontal_m3078869633
I0e:_SimpleCollator__ctor_m1587210019
mic:__Z57Register_UnityEngine_RectTransform_INTERNAL_set_anchorMinv
fCd:_Convert_ToUInt16_m1480956416
Zya:__ZN6prcoreL25inner_stretch_i8_bilinearEPKNS_9InnerInfoE
sib:__ZL30RegisterFilteredObjectCallbackPP12Il2CppObjectiPv
qbi:_ReadOnlyCollection_1_System_Collections_Generic_IListU3CTU3E_RemoveAt_m3317217538_gshared
pOh:__ZL54AudioSource_t3935305588_CustomAttributesCacheGeneratorP21CustomAttributesCache
UHb:__Z19InitializeGfxDevicev
qS:__ZN11UnityEngine15CloudWebService16SessionContainer24GetSessionHeaderJsonDataERKN4core12basic_stringIcNS2_20StringStorageDefaultIcEEEERNS2_13StringBuilderE
NVd:_DerivedType_GetEvent_m4157575360
Uba:__ZN13RuntimeStaticI21AssetReferenceStorageLb0EE13StaticDestroyEPv
Ied:_SByte_System_IConvertible_ToType_m4075253447_AdjustorThunk
UQf:_Array_InternalArray__set_Item_TisKeyValuePair_2_t2530217319_m258011711_gshared
ATg:__Z72RuntimeInvoker_Bounds_t2266837910_RuntimeObject_Matrix4x4U26_t3606180965PFvvEPK10MethodInfoPvPS4_
bgj:__ZN6il2cpp6icalls8mscorlib6System9AppDomain22InternalGetProcessGuidEP12Il2CppString
fyc:_cf2_builder_moveTo
aDg:__Z48RuntimeInvoker_RuntimeObject_Decimal_t2948259380PFvvEPK10MethodInfoPvPS4_
vNa:__ZNK17FileSystemHandler10IsReadOnlyERK13FileEntryData
Bub:__Z18Transfer_BlittableI24GenerateTypeTreeTransferLb1EjEvRK29SerializationCommandArgumentsR31RuntimeSerializationCommandInfo
DKi:__ZN6il2cpp2os12FastAutoLockD2Ev
$6:__ZN11ColorRGBA328TransferI14SafeBinaryReadEEvRT_
oAc:_cff_vstore_done
oOg:__Z68RuntimeInvoker_Void_t1185182177_UInt16_t2177724958_SByte_t1669577662PFvvEPK10MethodInfoPvPS4_
jfb:__ZN15ResourceManager10Dependency8TransferI24GenerateTypeTreeTransferEEvRT_
Yhd:_MACTripleDES_HashFinal_m3613553534
agg:_UInt64_System_IConvertible_ToChar_m2074245892
K8f:_UTF8Encoding_InternalGetBytes_m1965760031
Jf:_emscripten_glClearDepth
T6b:__ZNK8GUILayer22GetTypeVirtualInternalEv
t5a:__ZN14SafeBinaryRead21TransferSTLStyleArrayINSt3__26vectorIN15QualitySettings14QualitySettingENS1_9allocatorIS4_EEEEEEvRT_17TransferMetaFlags
idb:__ZNSt3__26vectorINS_4pairIPKN5Unity4TypeE7Hash128EENS_9allocatorIS7_EEE8__appendEj
rAc:_cff_font_load
Hgj:__GLOBAL__sub_I_LibraryLoader_cpp
Ecc:__Z13IsPathCreatedRKN4core12basic_stringIcNS_20StringStorageDefaultIcEEEE
Eya:__ZL22stbir__encode_scanlineP11stbir__infoiPvPfiii
E4d:_ExternalException__ctor_m2877839282
jxc:__ZN20QuadTreeNodeRenderer13StaticDestroyEPv
mT:__ZN11UnityEngine15CloudWebService20WebRequestRestClient5AbortEv
Rri:_Regex_Matches_m2080913806
Y3b:__ZN9Transform12CleanupClassEv
Lwg:_Sprite_get_rect_m2575211689
vpg:_Mathf_Sin_m3411839043
xLc:_UNITY_FT_Set_Pixel_Sizes
kSd:_OperatingSystem_Clone_m1122165140
U3h:_GameObject_AddComponent_TisRuntimeObject_m3469369570_gshared
fka:__ZNSt3__26vectorIN9ShaderLab19SerializedSubShaderENS_9allocatorIS2_EEE26__swap_out_circular_bufferERNS_14__split_bufferIS2_RS4_EE
dA:__ZN11UnityEngine9Animation33SetGenericTransformPropertyValuesERKNS0_30AnimatorGenericBindingConstantERKN7mecanim10ValueArrayEP9Transformy
m6i:__ZN6il2cpp2vmL24thread_cleanup_on_cancelEPv
k3g:_List_1_RemoveAll_m3165362277_gshared
ddg:_Type_type_is_subtype_of_m1406623598
j9f:_Thread_get_CurrentThread_m4142136012
fWa:__Z30ProcessDynamicBatchGeometryJobP25DynamicVBOGeometryJobDataj
cPb:__ZNSt3__27__sort4IRNS_6__lessI11CulledLightS2_EEPS2_EEjT0_S6_S6_S6_T_
wWi:__ZN6il2cpp2vm14TypeNameParser26ParseArrayModifierOptionalEv
VZ:__Z26scripting_object_get_class18ScriptingObjectPtr
l7i:__ZN6il2cpp6icalls8mscorlib6System10Reflection8Assembly13get_code_baseEP24Il2CppReflectionAssemblyb
Vfb:__ZNSt3__26vectorIN4core12basic_stringIcNS1_20StringStorageDefaultIcEEEE13stl_allocatorIS5_L18MemLabelIdentifier13ELi16EEE7reserveEj
Ngd:_DSASignatureDeformatter__ctor_m2889130126
B3b:__ZNK28MonoBehaviourPropertyBinding15GenerateBindingERKN4core12basic_stringIcNS0_20StringStorageDefaultIcEEEEbRN11UnityEngine9Animation14GenericBindingE
qvg:_RectTransform_INTERNAL_set_pivot_m1160676233
g8g:_List_1_set_Item_m35836043_gshared
Nef:_X509ChainElementCollection__ctor_m3424079155
Zoi:_LinkStack_Push_m3081279930
$xe:_Enumerator_MoveNext_m1107569389_gshared
pij:__ZN6il2cpp6icalls8mscorlib6System11Environment15internalGetHomeEv
Wpg:_Matrix4x4_GetHashCode_m4034747639_AdjustorThunk
H3d:_ResourceCacheItem_t51292791_marshal_pinvoke_cleanup
kX:__ZNK5Unity9Component7GetNameEv
qTe:_U3CDelayedSetDirtyU3Ec__Iterator0_Reset_m160466733
hlg:_Native__cctor_m1435623442
x6g:_List_1_System_Collections_IList_Remove_m1070694895_gshared
mwi:_LayoutCache__ctor_m3885940174
qB:__ZN7mecanim8skeleton26SkeletonPoseComputeGlobalQEPKNS0_8SkeletonEPKNS0_13SkeletonPoseTIN4math4trsXEEEPS7_ii
$fg:_UInt64_System_IConvertible_ToByte_m1501504925_AdjustorThunk
TGi:_TextGenerator_Invalidate_m1072346986
Yde:_TlsClientHello_ProcessAsTls1_m2549285167
E$g:__Z74RuntimeInvoker_Boolean_t97287965_UIVertex_t4057497605_UIVertex_t4057497605PFvvEPK10MethodInfoPvPS4_
l9h:_ReadOnlyCollection_1_System_Collections_IList_Clear_m3591436538_gshared
RXe:_ScrollRect_set_decelerationRate_m723367336
SA:__ZN9BlobWrite8TransferI22OffsetPtrArrayTransferIiEEEvRT_PKc17TransferMetaFlags
Osf:_EncoderExceptionFallback_Equals_m2760188920
iif:_RIPEMD160Managed_HashCore_m2350629432
TJ:__ZN4FMOD6System7releaseEv
gqd:_Boolean_CompareTo_m3665076258
cqf:_String_Split_m3580120853
W5e:_PrivateKeyInfo__ctor_m2811023496
V0:__Z18PathToAbsolutePathRKN4core12basic_stringIcNS_20StringStorageDefaultIcEEEE
hxi:_GUILayoutUtility_LayoutFromEditorWindow_m2914699782
gya:__ZL13BlitImageImplR14ImageReferenceiiRKS_NS_10ColorSpaceENS_8BlitModeEb
u8b:__ZN15DirectorManager17AcquireOutputNodeEv
pAa:__ZN6prcoreL17RemapGenericFloatI18TexFormatRGBAFloat17TexFormatRGBFloatEEvPKNS_9InnerInfoE
X3h:_GameObject_GetComponentInChildren_TisRuntimeObject_m1310240902_gshared
MLh:__ZL69PersistentCall_t3407714124_CustomAttributesCacheGenerator_m_ArgumentsP21CustomAttributesCache
bHa:__ZN16GeometryJobTasks20ScheduleGeometryJobsER9GfxDevicePFvP15GeometryJobDataEPK22GeometryJobInstructionjb
YH:__ZN12AudioManager29ShutdownReinitializeAndReloadEv
iYa:__ZN16ReflectionProbes28GetMinBakedCubemapResolutionEv
N9a:__ZN14BlendShapeData8TransferI14SafeBinaryReadEEvRT_
yjj:__GLOBAL__sub_I_String_cpp
CKi:__ZN15dense_hashtableINSt3__24pairIK10KeyWrapperIPK22Il2CppGenericParameterEP11Il2CppClassEES6_N6il2cpp5utils11PointerHashIS4_EEN14dense_hash_mapIS6_S9_SE_NS6_14EqualsComparerINS0_8equal_toIS5_EEEENS0_9allocatorISA_EEE9SelectKeyESJ_SL_E6insertERKSA_
qRe:_InputField_GenerateCaret_m1459647218
Bmi:_X509CertificateEnumerator__ctor_m85694331
bua:__ZN14DataBufferGLES16RecreateWithDataEjPKv
P2:__Z29GetGlobalAllowNameConversionsv
EPf:_Array_InternalArray__Insert_TisTableRange_t3332867892_m558285859_gshared
YYb:__ZN8Material8SetColorEN9ShaderLab16FastPropertyNameERK10ColorRGBAf
d2f:_Enumerator_System_Collections_IEnumerator_Reset_m3754523291_gshared
bIj:_glUniform3uiv__wrapper
RL:__ZN11AudioSource23VirtualRedirectTransferER18StreamedBinaryReadILb0EE
ptg:_RangeInt_get_end_m4128831787
Xba:__ZN21AssetReferenceStorageC2Ev
uAj:dynCall_iiifiii
c$:__ZL41AssemblyNameMatchesWithOrWithoutExtensionPKcS0_
p5g:_List_1_set_Item_m2082115010_gshared
R5f:_Encoding_GetBytes_m3735967069
DDa:__ZN14GfxContextGLES43AddRenderSurfaceToDeferredFBOInvalidateListEPK17RenderSurfaceGLES
N7i:__ZN6il2cpp6icalls8mscorlib6System9Threading6Thread15Thread_internalEP12Il2CppThreadP14Il2CppDelegate
toa:__ZN11NamedObject23VirtualRedirectTransferER14SafeBinaryRead
o$e:_Text_get_resizeTextMinSize_m1002355407
mLc:__ZNSt3__26vectorIN20TextRenderingPrivate8FontImpl13CharacterInfoE13stl_allocatorIS3_L18MemLabelIdentifier1ELi16EEE6insertENS_11__wrap_iterIPKS3_EERS9_
nLa:__ZN23PreloadManagerOperation6IsDoneEv
Qjj:__ZN6il2cpp5utils11StringUtils11Utf16ToUtf8ERKNSt3__212basic_stringIDsNS2_11char_traitsIDsEENS2_9allocatorIDsEEEE
m8d:_MD4Managed_Decode_m4273685594
Chb:__ZN21LightProbeProxyVolume18HasHardwareSupportEv
bSb:__ZN26LightProbeProxyVolumeCacheC2ER13BatchRendererR15RenderLoopStats
Uya:__ZN6prcoreL31inner_stretch_argb8888_bilinearEPKNS_9InnerInfoE
Byb:__Z18Transfer_BlittableI18StreamedBinaryReadILb1EELb1E8BitFieldEvRK29SerializationCommandArgumentsR31RuntimeSerializationCommandInfo
QEc:_UNITY_FT_Outline_Decompose
kGd:_Int64_System_IConvertible_ToChar_m1509243576_AdjustorThunk
Nli:_GeneralNames_get_IPAddresses_m4242915644
ozf:_Decimal_op_Implicit_m3873897383
qoj:_GC_init_size_map
kTa:__Z20scripting_object_new17ScriptingClassPtr
h6e:_KeyGeneratedEventHandler_Invoke_m2527485594
wxf:_Decimal__ctor_m1925875020_AdjustorThunk
UNe:_SerializationCallbacks__ctor_m3863304525
P:Math_exp
zjg:_Vector3_Min_m1803158933
Do:FUNCTION_TABLE_iiifi
Mfj:__ZN6il2cpp2os5posix13PosixAutoLockD2Ev
nyi:_SymmetricTransform_OFB_m3690147804
Oxc:_cff_get_advances
jEb:__ZN13MonoBehaviour9SetScriptERK4PPtrI10MonoScriptE18ScriptingObjectPtr
FMa:__ZNK10FileSystem16LastErrorMessageEv
HQf:_Array_InternalArray__Insert_TisVector3_t3722313464_m3862657277_gshared
nnf:_SecurityException__ctor_m1631242336
DMi:__ZN15dense_hashtableINSt3__24pairIK10KeyWrapperIPK11Il2CppClassEPKcEES6_N6il2cpp5utils11PointerHashIS3_EEN14dense_hash_mapIS6_S9_SE_NS6_14EqualsComparerINS0_8equal_toIS5_EEEENS0_9allocatorISA_EEE9SelectKeyESJ_SL_E14squash_deletedEv
o$c:_EventSystem_Update_m1662072334
WYc:__ZN22UnityWebRequestManager10InitializeEv
ADb:__ZN13MonoBehaviour13AwakeFromLoadE17AwakeFromLoadMode
Isb:__ZL26Transfer_SimpleNativeClassI17RemapPPtrTransfer8GradientLb1EEvRK29SerializationCommandArgumentsR31RuntimeSerializationCommandInfo
S_c:_RaycasterManager_RemoveRaycasters_m3057093063
F9b:__ZN12CachedWriter9InitWriteER15CacheWriterBase
j8b:__Z21UnsignedInt64ToStringy
bWe:_GetRaycastNonAllocCallback_BeginInvoke_m3984885848
$pi:_PatternCompiler_BeginLink_m1295557963
KRa:__ZN14SafeBinaryRead21TransferSTLStyleArrayI13dynamic_arrayI17SortingLayerEntryLj4EEEEvRT_17TransferMetaFlags
JCd:_GuidParser_ThrowFormatException_m3223388534
oti:_Group_GetAnchorInfo_m3730312864
lVh:__ZL50Graphic_t1660335611_CustomAttributesCacheGeneratorP21CustomAttributesCache
wcg:_TimeSpan_op_LessThanOrEqual_m300470010
Thf:_Interval_Merge_m3454211016_AdjustorThunk
Sda:__ZZN15DirectorManager15InitializeClassEvEN41FixedUpdateDirectorFixedUpdateRegistrator7ForwardEv
eLd:_MemoryStream_get_Position_m3733941202
s0b:__ZL10KeyHandleriPK23EmscriptenKeyboardEventPv
pJj:_glLinkProgram__wrapper
ykb:__ZN18ScriptingArguments8AddInt64Ex
Cza:__ZN6prcoreL12RemapGenericI17TexFormatARGB888815TexFormatBGR888EEvPKNS_9InnerInfoE
dlb:__ZN12HandlerChain4LockER13FileEntryData12FileLockMode
dGf:_TextInfo_get_ListSeparator_m1628160079
JZe:_Selectable_OnCanvasGroupChanged_m472903475
s9f:_EventWaitHandle_Reset_m3348053200
IWc:__ZN28UnityConnectScriptingClasses23CallSessionStateChangedEixxbP21ScriptingExceptionPtr
faj:__ZN6il2cpp6icalls8mscorlib6System13Globalization11CultureInfo35construct_internal_locale_from_nameEP17Il2CppCultureInfoP12Il2CppString
Qub:__ZL22Transfer_ManagedObjectI24GenerateTypeTreeTransferLb1EEvRK29SerializationCommandArgumentsR31RuntimeSerializationCommandInfo
IMb:__ZN15RenderNodeQueueC2E10MemLabelId
D3d:_ResourceEnumerator_FillCache_m1661715061
Lxh:__ZL72SecuritySafeCriticalAttribute_t3505979402_CustomAttributesCacheGeneratorP21CustomAttributesCache
Zj:_emscripten_set_main_loop_timing
njg:_Bounds_get_min_m3755135869
_Bd:_Convert_ToUInt16_m3523269149
xva:__ZN14DataBufferGLES12RecordRenderEv
n0c:_ExecuteEvents_get_endDragHandler_m2879610446
FYb:__ZN14ImageReference10FlipImageYEv
mnc:__Z14GetDefaultSkini
iF:__ZN4FMOD3DSP9setBypassEb
l0b:__Z19NormalizeWheelInputf
vad:_Graphic_DoMeshGeneration_m3548487693
nri:_Repetition__ctor_m1672362629
lwc:__Z29Transfer_Blittable_ArrayFieldI8JSONReadhEvRT_R9ArrayInfoRK23StaticTransferFieldInfo
qof:_SecurityFrame_ToString_m339310712_AdjustorThunk
B_d:_TypeBuilder_create_runtime_class_m2581270900
gle:_InternalEnumerator_1_get_Current_m3008260692_gshared
Qsj:__ZN6il2cpp2os20ThreadLocalValueImpl8SetValueEPv
OTa:__ZN22RenderingCommandBuffer20CleanupCommandBufferEv
qzf:_Decimal_op_Implicit_m2299919277
arc:__Z18Transfer_BlittableI9JSONWriteLb1EtEvRK29SerializationCommandArgumentsR31RuntimeSerializationCommandInfo
aOd:_UnexceptionalStreamReader_ReadToEnd_m920589220
Stf:_DateTime_System_IConvertible_ToType_m1242864300
Bqf:_String_IndexOf_m1298810678
rk:___syscall85
mFi:__ZL25UnresolvedVirtualCall_198P12Il2CppObjectfPK10MethodInfo
NMb:__ZNSt3__26__sortIRPFbP10GUIElementS2_EPS2_EEvT0_S7_T_
Z6b:__ZN16GraphicsSettings12CleanupClassEv
xVd:_ConstructorBuilder_GetILGenerator_m1750792206
p5f:_EncoderFallback_get_ReplacementFallback_m818398284
Dgj:__ZN6il2cpp2os6Thread19DetachCurrentThreadEv
J$c:_EventTrigger_OnBeginDrag_m4203438710
YKi:__ZN6il2cpp2vmL21SetupInterfacesLockedEP11Il2CppClassRKNS_2os12FastAutoLockE
L5e:_PKCS1_Sign_v15_m2719206817
rz:__ZN23AnimationPlayableOutput17SetSourcePlayableEP8Playable
nlg:_CullingGroup_Dispose_m782801025
mS:__ZN11UnityEngine15CloudWebService14DataDispatcher15SetupWebRequestEv
VTc:__ZN11UnityEngine15PlatformWrapper13GetShaderCapsEv
nUb:__ZNSt3__211__sift_downIR26RenderDeferredObjectSorterP16RenderObjectDataEEvT0_S5_T_NS_15iterator_traitsIS5_E15difference_typeES5_
e5e:_KeyPairPersistence_get_MachinePath_m3812267291
gzd:_Stack_Peek_m2216191248
Ftf:_DateTime_System_IConvertible_ToDecimal_m1044850612_AdjustorThunk
H7b:__ZN21FixedBehaviourManager6UpdateEv
scc:__ZN9Transform9SetParentEPS_NS_15SetParentOptionE
N4:__ZN19ShaderPropertySheet8SetFloatEN9ShaderLab16FastPropertyNameEfNS_8SetFlagsE
tgb:__ZN19RuntimeSceneManager24BeginIntegrateMainThreadEP10UnityScene
nhj:__ZNSt3__2plIcNS_11char_traitsIcEENS_9allocatorIcEEEENS_12basic_stringIT_T0_T1_EERKS9_S6_
bNd:_StringReader_CheckObjectDisposedException_m3796163530
Ija:__ZN9ShaderLab20SerializedSubProgramaSERKS0_
Wzj:_roundf
_qd:_Byte_System_IConvertible_ToSingle_m324484566_AdjustorThunk
bzf:_Decimal_op_Explicit_m2848387298
O_f:_KeyValuePair_2_ToString_m1238786018_gshared
Xs:__ZN8Animator15SetPrepareStageEv
JE:__ZN8AnimatorC2E10MemLabelId18ObjectCreationMode
ZKi:__ZN6il2cpp2vmL24SetupTypeHierarchyLockedEP11Il2CppClassRKNS_2os12FastAutoLockE
t0b:__ZL11TextHandleriPK23EmscriptenKeyboardEventPv
JKc:_destroy_face
CFj:_glBlendEquationSeparate__wrapper
Mpj:__ZN6il2cpp6icalls8mscorlib6System8Security12Cryptography24RNGCryptoServiceProvider13RngInitializeEP11Il2CppArray
_L:__ZN20SoundChannelInstance7setMuteEb
MRd:_NumberFormatter_NumberToString_m3906556024
Azb:__Z19TransferField_ArrayI18StreamedBinaryReadILb1EE27Converter_SimpleNativeClassI17AnimationCurveTplIfEEEvRK23StaticTransferFieldInfoR31RuntimeSerializationCommandInfoRT0_
awa:__ZN18GfxFramebufferGLES22MakeCurrentFramebufferENS_7BuiltinE
l7:__ZN12CachedReader4ReadEPvj
Y2c:_StandaloneInputModule_ProcessMouseEvent_m2923582521
O1e:_SimpleCollator_MatchesForwardCore_m850743967
bRb:__Z24CalculateLightShadowFadeRK6CamerafffR8Vector4f
Aaa:__ZN19RuntimeSceneManagerD2Ev
vDf:_CCGregorianCalendar_GetMonth_m1547203696
CT:__ZN11UnityEngine15CloudWebService25WebRequestDownloadHandler17OnCompleteContentEv
Tya:__ZN6prcore17GetIntegerBlitterE13TextureFormatS0_N14ImageReference8BlitModeE
Rnj:_GC_print_block_descr
n_i:__ZN6il2cpp2gc19AppendOnlyGCHashMapINSt3__24pairIPK11Il2CppImageP11Il2CppClassEEP22Il2CppReflectionModule17ReflectionMapHashIS9_ENS2_8equal_toIS9_EEE11TryGetValueERKS9_PSB_
oec:__ZN9BlobWrite14ReduceCopyImplERK14ReduceCopyDataj
a9:__ZNSt3__26__treeI19RepeatingLogMessageNS_4lessIS1_EE13stl_allocatorIS1_L18MemLabelIdentifier73ELi16EEE12__find_equalIS1_EERPNS_16__tree_node_baseIPvEESD_RKT_
KP:__ZN11AudioSource18IsPlayingScriptingEv
Y4e:_KeyBuilder_IV_m2230195376
sEj:_glShaderSource__wrapper
xOa:__ZN25MultiBlocksMemoryFileData17AdjustBlocksCountEj
x7i:__ZNSt3__214__split_bufferIN6il2cpp2vm22EmbeddedResourceRecordERNS_9allocatorIS3_EEED2Ev
cJc:__ZN13TextRendering4Font8TransferI24GenerateTypeTreeTransferEEvRT_
Hfc:__Z27CullingGroup_CUSTOM_DisposeP12Il2CppObject
f7i:__ZN6il2cpp6icalls8mscorlib6SystemL23CheckWideningConversionEjjj
gXc:__ZNSt3__26vectorIP19BaseConnectSettings13stl_allocatorIS2_L18MemLabelIdentifier6ELi16EEE21__push_back_slow_pathIKS2_EEvRT_
sMb:__ZN13ComputeShader15SetTextureParamEjRKN9ShaderLab16FastPropertyNameE9TextureID16TextureDimension
zm:_glStencilMask
bhj:__ZN6il2cpp2os10ThreadImpl16GetCurrentThreadEv
l1d:_MonoMethod_GetBaseDefinition_m2844667474
n0b:__ZN15GUIEventManager10QueueEventERK10InputEvent
m4d:_DecimalConstantAttribute__ctor_m3583301917
rnj:_GC_push_conditional_with_exclusions
wwe:_Enumerator_System_Collections_IDictionaryEnumerator_get_Entry_m2772123357_AdjustorThunk
MJe:_MethodCallDictionary__ctor_m2167303393
RB:__ZN12_GLOBAL__N_121ProcessAnimationBeginER35AnimationPlayableEvaluationConstantR32AnimationPlayableEvaluationInputR33AnimationPlayableEvaluationOutput
Xmj:_GC_make_disappearing_links_disappear
$wj:_strrchr
Rkg:_Component_GetComponentInParent_m779177818
y3c:_UIBehaviour_IsDestroyed_m3033055982
_Mg:__Z109RuntimeInvoker_Void_t1185182177_RuntimeObject_RuntimeObject_SByte_t1669577662_Int32_t2950945753_RuntimeObjectPFvvEPK10MethodInfoPvPS4_
RPe:_InputField_get_readOnly_m3111985574
tYa:__ZN14RenderSettings27UpdateIndirectSpecularColorEv
jeb:__ZN14PlayerSettings8TransferI18StreamedBinaryReadILb0EEEEvRT_
QTi:__ZN6il2cpp6icalls8mscorlib6System8MonoType16GetMethodsByNameEP20Il2CppReflectionTypeP12Il2CppStringibS5_
L9f:_Monitor_Monitor_wait_m3706677354
Uid:_RijndaelTransform__cctor_m2439033240
KIb:__ZNSt3__27__sort3IRNS_4lessIN22BuiltinResourceManager8ResourceEEEPS3_EEjT0_S7_S7_T_
zHc:_ps_hints_t2mask
F2h:_LayoutGroup_SetProperty_TisVector2_t2156229523_m2721164497_gshared
NIf:_Array_InternalArray__ICollection_Remove_TisMonoResource_t4103430009_m238733686_gshared
yHd:_IntPtr_ToString_m1831665121
E_e:_Slider_Set_m1476104429
hcd:_Image_set_fillClockwise_m2210525152
Vab:__ZN10BlendShape8TransferI19StreamedBinaryWriteILb0EEEEvRT_
pHd:__Z21il2cpp_codegen_sizeofP11Il2CppClass
MCa:__Z19GetTimeSinceStartupv
Hcd:_Image_AddQuad_m2161647989
T1f:_Enumerator_System_Collections_IEnumerator_Reset_m2953002685_gshared
VGc:_TT_Load_Composite_Glyph
g$a:__ZN9ShaderLab11shaderprops9GetTexEnvEPK19ShaderPropertySheetS3_NS_16FastPropertyNameE16TextureDimensionb
vPb:__ZN29RenderNodeQueuePrepareContextC2Ev
M3i:_il2cpp_gc_disable
Uka:__ZN9ShaderLab20SerializedSubProgram16TextureParameter8TransferI24GenerateTypeTreeTransferEEvRT_
Pgd:_DSASignatureDeformatter_SetKey_m2999549245
kqj:__ZN6il2cpp2os11MutexHandle4WaitEb
lpa:__ZN9GfxDevice19SaveStereoConstantsEv
jqj:__ZN6il2cpp2os11MutexHandle4WaitEj
edc:__ZL34GetComponentsImplementationRecurseILb1ELi1ELi1EEbR10GameObjectbRK17CompareParametersRK39GetComponentsImplementation_ReturnValue
gFg:__Z114RuntimeInvoker_Boolean_t97287965_RuntimeObject_RuntimeObject_Int32_t2950945753_Int32_t2950945753_Int32_t2950945753PFvvEPK10MethodInfoPvPS4_
PUd:_AssemblyBuilder_GetTypes_m3415680380
MAa:__ZN6prcoreL17RemapGenericFloatI15TexFormatRGHalf18TexFormatARGBFloatEEvPKNS_9InnerInfoE
PGb:__Z18SimulateMouseInputi
JLb:__ZN13RenderManager23AddRemoveCamerasDelayedEv
fsc:__ZN9JSONWrite8TransferI13dynamic_arrayIdLj8EEEEvRT_PKc17TransferMetaFlags
Hpc:__ZN5Unity9rapidjson6WriterI16TempBufferWriterNS0_4UTF8IcEES4_13JSONAllocatorE11WriteUint64Ey
Zod:_BitConverter__cctor_m3841343255
qyf:_Decimal_Compare_m3062820418
_hf:_IntervalCollection_GetMetaCollection_m4029522214
E$c:_EventTrigger_OnDeselect_m1919608102
LGi:_TextGenerator_get_characterCount_m864136654
ybg:_TimeSpan__ctor_m2047388489_AdjustorThunk
rXb:__ZN13RenderTexture8SetWidthEi
XGc:_UNITY_FT_GlyphLoader_CheckSubGlyphs
GRb:__Z25SetupObjectBakedOcclusionbRK15SharedLightDataRK26SharedLightmapSettingsDataRK15LightmapIndicesR17ShaderPassContext
rdh:_Collection_1_System_Collections_ICollection_CopyTo_m1516601228_gshared
V4:__ZN9ShaderLab16FastPropertyName4InitEPKc
W2b:__Z13RegisterClassIN2UI13RectTransformEEvv
r6b:__ZL31MeshRendererTransformChangedJobP13BoundsJobDatajPK23TransformAccessReadOnlyPKyj
Auc:__ZN8JSONRead21TransferSTLStyleArrayI31ArrayOfManagedObjectsTransfererEEvRT_17TransferMetaFlags
Jrd:_Char_System_IConvertible_ToByte_m2347554595_AdjustorThunk
hZa:__ZN13RenderTexture9SetMipMapEb
Drf:_String_CreateString_m860434552
mea:__Z18GetDirectorManagerv
mAe:_Enumerator_System_Collections_IEnumerator_Reset_m278261807_AdjustorThunk
Ljc:__Z38Transform_CUSTOM_INTERNAL_get_rotationP12Il2CppObjectP11Quaternionf
c_i:__ZNK15dense_hashtableINSt3__24pairIK10KeyWrapperINS1_IPK10MethodInfoP11Il2CppClassEEEjEES9_17ReflectionMapHashIS8_EN14dense_hash_mapIS9_jSD_NS9_14EqualsComparerINS0_8equal_toIS8_EEEENS0_9allocatorISB_EEE9SelectKeyESI_SK_E5beginEv
cua:__ZN7ApiGLES19UploadBufferSubDataEjN2gl12BufferTargetEllPKv
yga:__ZNSt3__216__rotate_forwardINS_11__wrap_iterIPN4core12basic_stringIcNS2_20StringStorageDefaultIcEEEEEEEET_S9_S9_S9_
ezg:_Vector2_GetHashCode_m3916089713
twg:_SendMouseEvents_HitTestLegacyGUI_m579942228
TQd:_MulticastDelegate_Equals_m2502840627
alf:_SymmetricAlgorithm_set_KeySize_m3805756466
erd:_Byte_System_IConvertible_ToUInt32_m1049546902_AdjustorThunk
cOg:__Z53RuntimeInvoker_Double_t594665363_Interval_t1802865632PFvvEPK10MethodInfoPvPS4_
VIb:__Z21InitializeBatchedJobsv
LHi:_CanvasGroup_get_blocksRaycasts_m1805542303
Kjf:_SHA1Internal_ProcessBlock_m1991889327
Kpb:__Z19TransferField_ArrayI14SafeBinaryRead27Converter_SimpleNativeClassI8GUIStyleEEvRK23StaticTransferFieldInfoR31RuntimeSerializationCommandInfoRT0_
f0h:_Array_Sort_TisRuntimeObject_TisRuntimeObject_m1685639929_gshared
Vpj:__ZN6il2cpp5utils10MemoryPoolC2Ev
QXa:__ZN14RenderSettings5ResetEv
R1b:__ZN6Sprite9BindAtlasERK4PPtrI11SpriteAtlasE
Poc:__ZN5Unity9rapidjson12GenericValueINS0_4UTF8IcEE13JSONAllocatorE10FindMemberIS4_EENS0_21GenericMemberIteratorILb0ES3_S4_EERKNS1_IS3_T_EE
Toe:_InternalEnumerator_1_System_Collections_IEnumerator_get_Current_m3892960115_AdjustorThunk
e9i:__ZNSt3__212basic_stringIDsNS_11char_traitsIDsEENS_9allocatorIDsEEE6appendEPKDsj
Gtd:_ArrayList_Clone_m2682741233
thd:_HMAC_HashCore_m3684104066
npc:__ZN5Unity9rapidjson13GenericReaderINS0_4UTF8IcEES3_13JSONAllocatorE11ParseNumberILj1ENS0_25GenericInsituStringStreamIS3_EENS0_15GenericDocumentIS3_S4_S4_EEEEvRT0_RT1_
Ngj:__ZN6il2cpp2os10ThreadImplD2Ev
iqc:__ZN8Gradient8TransferI9JSONWriteEEvRT_
bhb:__ZN21RendererUpdateManager18OncePerFrameUpdateER13RendererScene
xBi:_AudioSource_set_clip_m31653938
XKa:__ZNK12TLSAllocatorI14StackAllocatorE22GetAllocatedMemorySizeEv
d3:__ZN17RemapPPtrTransfer12PushMetaFlagE17TransferMetaFlags
oXf:_EqualityComparer_1_System_Collections_IEqualityComparer_GetHashCode_m2138064395_gshared
Qkb:__ZN12HandlerChain4NameEv
pDd:_Int16_System_IConvertible_ToType_m3672347013_AdjustorThunk
Oqf:_String_LastIndexOf_m578673845
xrb:__Z29Transfer_Blittable_ArrayFieldI14SafeBinaryReadN4math12int3_storageEEvRT_R9ArrayInfoRK23StaticTransferFieldInfo
aof:_SecurityException_ToString_m3228070608
$Ed:_Int16_ToString_m2013897809
cof:_String_Substring_m2848979100
BRc:__Z44Register_UnityEngine_CanvasRenderer_get_cullv
_3h:_ScriptableObject_CreateInstance_TisRuntimeObject_m1552711675_gshared
eTc:__ZN11UnityEngine7Connect17XRDeviceInfoEvent12XRDeviceInfoD2Ev
Mnb:__Z44InitializeTransferFunctionScriptingTraitsForI17RemapPPtrTransferEvR31TransferFunctionScriptingTraits
D3b:__ZNSt3__26vectorI16MessageForwarder13stl_allocatorIS1_L18MemLabelIdentifier7ELi8EEE6resizeEj
ief:_X509Chain_SelectBestFromCollection_m1068759221
qyi:_SymmetricTransform_TransformBlock_m851059707
rlh:__ZL68IntPtr_t_CustomAttributesCacheGenerator_IntPtr_ToPointer_m4157623054P21CustomAttributesCache
nah:_Enumerator_System_Collections_IEnumerator_Reset_m2261065994_AdjustorThunk
uYe:_ScrollRect_get_verticalNormalizedPosition_m3693218937
rgb:__ZN18LoadSceneOperation21MustCompleteNextFrameEv
G_e:_Slider_UpdateDrag_m1102107039
P1d:_MonoMethodInfo_get_method_info_m88651774
$L:__ZNK12AudioManager16GetAudioListenerEv
mFd:_Int32_System_IConvertible_ToDateTime_m1824716955
hed:_RuntimeTypeHandle__ctor_m3315980708_AdjustorThunk
qHi:_Canvas_set_overrideSorting_m4088794420
YWb:__ZNSt3__26vectorI11CameraStackNS_9allocatorIS1_EEE8__appendEj
su:__ZN7mecanim9animation12GetHumanPoseERKNS0_18ClipMuscleConstantEPKNS0_10ValueDeltaERNS_5human9HumanPoseE
iw:__ZN22AnimationMixerPlayable17ProcessRootMotionEP35AnimationPlayableEvaluationConstantP32AnimationPlayableEvaluationInputP33AnimationPlayableEvaluationOutput
$0:__Z13GetFileSystemv
mba:__ZNK5Unity4Type21FindAllDerivedClassesER13dynamic_arrayIPKS0_Lj4EENS0_17TypeFilterOptionsE
fca:__ZN13RuntimeStaticI15GUIEventManagerLb0EE16StaticInitializeEPv
Dhg:_Version_CompareTo_m3146217210
Hde:_TlsClientCertificate_FindParentCertificate_m3844441401
eui:_Uri_ParseAsUnixAbsoluteFilePath_m1476768041
GOf:_Array_InternalArray__ICollection_CopyTo_TisKeyValuePair_2_t71524366_m1056941380_gshared
Scg:_Type_get_IsClass_m589177581
cdg:_Type_get_IsSystemType_m624798880
enb:__ZN19ShaderPropertySheet9SetMatrixEN9ShaderLab16FastPropertyNameERK10Matrix4x4fNS_8SetFlagsE
q3a:__Z29GetTextureSizeAllowedMultiple13TextureFormat
iyf:_Decimal_Subtract_m835601464
Xfb:__ZNSt3__26vectorIN4core12basic_stringIcNS1_20StringStorageDefaultIcEEEE13stl_allocatorIS5_L18MemLabelIdentifier13ELi16EEE8__appendEj
X7b:__ZN21IntermediateRenderers3AddEP20IntermediateRenderer
X2i:_il2cpp_array_element_size
UOd:_MissingMemberException__ctor_m2571045846
_jh:__ZL62ComVisibleAttribute_t1362837655_CustomAttributesCacheGeneratorP21CustomAttributesCache
mvg:_RectTransform_INTERNAL_set_sizeDelta_m188783163
Wf:_glCheckFramebufferStatus
qpj:__ZN6il2cpp2os11EventHandle4WaitEv
UU:__ZN19CloudServiceHandler20StartEventDispatcherERKN11UnityEngine15CloudWebService18CloudServiceConfigERNS1_23WebRequestRestHeaderMapE
Vad:_GraphicRaycaster__ctor_m646559428
Bvd:_BitArrayEnumerator_get_Current_m4220391712
gTd:__Z37il2cpp_codegen_get_executing_assemblyPK10MethodInfo
Nvg:_Transform_get_parent_m835071599
oaf:_IPAddress_get_ScopeId_m4237202723
vr:__ZN4core8hash_mapIN11UnityEngine9Animation14GenericBindingENS2_10BoundIndexENS2_25GenericBindingHashFunctorENS2_30GenericBindingValueArrayUniqueEE4growEi
Ft:__ZN21AnimationClipPlayable7SetTimeEd
rri:_ExpressionCollection_get_Item_m3510736379
dVh:__ZL62FontData_t746620069_CustomAttributesCacheGenerator_m_AlignmentP21CustomAttributesCache
x2c:_StandaloneInputModule_get_inputActionsPerSecond_m3946624274
P8f:_UTF8Encoding_InternalGetCharCount_m82458470
tzg:_Vector2__cctor_m2108982652
ur:__ZN4core8hash_mapIN11UnityEngine9Animation14GenericBindingENS2_10BoundIndexENS2_25GenericBindingHashFunctorENS2_30GenericBindingValueArrayUniqueEE4growEv
vaj:__ZN14dense_hash_mapI10KeyWrapperIP14Il2CppIUnknownEjN6il2cpp5utils11PointerHashIS1_EENS3_14EqualsComparerINSt3__28equal_toIS2_EEEENS9_9allocatorINS9_4pairIKS3_jEEEEE15set_deleted_keyERSF_
zba:__ZN22BuiltinResourceManager16StaticInitializeEPv
I0i:__ZN13Il2CppHashMapIPK14Il2CppAssemblyPK22Il2CppMonoAssemblyNameN6il2cpp5utils11PointerHashIS1_EENSt3__28equal_toIS2_EENSA_9allocatorINSA_4pairIK10KeyWrapperIS2_ES5_EEEEEC2EjRKS9_RKSC_
emd:_DelegatePInvokeWrapper_AppDomainInitializer_t682969308
g0:__ZN8Remapper6RemoveEi
Q5f:_Encoding_GetBytes_m3148649984
tLc:__ZL36CleanupTextRenderingScriptingClassesv
oXb:__ZN15ReflectionProbe17UseRendererResultEP13ProbeRenderer
_kc:__Z34Mesh_CUSTOM_SetArrayForChannelImplP12Il2CppObject30InternalScriptingShaderChannel34InternalScriptingVertexChannelTypeiP11Il2CppArrayi
Z_:__Z32scripting_class_get_nested_types17ScriptingClassPtrRNSt3__26vectorIS_13stl_allocatorIS_L18MemLabelIdentifier1ELi16EEEE
THi:_CanvasRenderer_INTERNAL_CALL_EnableRectClipping_m3318097918
fgg:_UInt64_System_IConvertible_ToDecimal_m806594027_AdjustorThunk
rwe:_Enumerator_System_Collections_IEnumerator_get_Current_m361750367_AdjustorThunk
YLe:_RealProxy_InternalGetTransparentProxy_m1765012608
G0g:_List_1__ctor_m3395838871_gshared
e5h:_Collection_1_IsFixedSize_m3698021882_gshared
bmi:_PKCS12__ctor_m1854440921
J$h:_Array_Resize_TisCustomAttributeNamedArgument_t287865710_m885566878_gshared
TD:__ZN11UnityEngine9Animation28GenericAnimationBindingCache25RegisterIAnimationBindingEPKN5Unity4TypeEiP17IAnimationBinding
FRc:__Z70RectTransformUtility_CUSTOM_INTERNAL_CALL_RectangleContainsScreenPointP12Il2CppObjectRK13Vector2fIcallS0_
cJd:_DirectoryInfo__ctor_m481305441
v9:__ZN10MemoryPoolC2E10MemLabelIdbPKciii
QVb:__Z40ProcessCameraIndexListIsNodeVisibleInOutRK22SceneCullingParametersPK9SceneNodePK4AABBR9IndexList
lxi:_GUIScrollGroup_SetHorizontal_m291416666
wVa:__ZN16GraphicsSettings8TransferI17RemapPPtrTransferEEvRT_
gPc:__ZN2UI6Canvas13UpdateBatchesEb
ecf:_X509BasicConstraintsExtension_Decode_m120598446
oz:__ZNK23AnimationPlayableOutput11DerivesFromE17ScriptingClassPtr
RPh:__ZL64EventType_t3528516131_CustomAttributesCacheGenerator_dragUpdatedP21CustomAttributesCache
uUc:__ZN11UnityEngine7Connect13ConfigHandler12GetListenersERKN4core12basic_stringIcNS2_20StringStorageDefaultIcEEEE
Iqa:__ZN9GfxDevice18AllocRenderSurfaceEb
Brd:_Char__cctor_m2787437263
K1b:__ZN10TagManager32GetSortingLayerUniqueIDFromValueEi
M3c:_AspectRatioFitter_get_rectTransform_m2996235303
M_:__ZL27CleanupCoreScriptingClassesv
Sad:_Graphic_UnregisterDirtyMaterialCallback_m2707090617
wve:_Comparer_1_System_Collections_IComparer_Compare_m1313384821_gshared
Phc:__Z26AnimationCurve_CUSTOM_InitP12Il2CppObjectP11Il2CppArray
XHj:_glUniform1uiv__wrapper
t0i:__ZN6il2cpp2vm10Reflection7IsEventEP12Il2CppObject
zZ:__ZN17PersistentManager26GetStreamNameSpaceInternalEi
XF:__ZN4FMOD6System11createSoundEPKcjP22FMOD_CREATESOUNDEXINFOPPNS_5SoundE
Xn:FUNCTION_TABLE_iiifiiii
qxc:__ZN13SpeedTreeWind20AdvanceWithoutUpdateEd
Etf:_DateTime_System_IConvertible_ToDecimal_m1044850612
_9:__ZN9ShaderLab19CommonPropertyNames13StaticCleanupEPv
A$:__Z31scripting_method_get_returntype18ScriptingMethodPtr
L4a:__ZN15SerializeTraitsI12LightmapDataE8TransferI24GenerateTypeTreeTransferEEvRS0_RT_
xmf:_SecurityElement_AddAttribute_m311510562
uEj:_glStencilOpSeparate__wrapper
Hac:__ZN4Mesh5SetUvEiPKfjj
M5a:__ZN7Texture13SetAnisoLimitENS_20AnisotropicFilteringE
XN:__ZN11AudioModule16SetListenerPauseEb
Pod:_Attribute_IsDefined_m4069052474
Qh:_emscripten_glCompressedTexSubImage2D
sDa:__ZN13GfxDeviceGLES22MemoryBarrierImmediateEyN2gl17MemoryBarrierTypeE
_Aa:__ZN6prcoreL26RemapGenericFloatToIntegerI18TexFormatARGBFloat17TexFormatARGB8888EEvPKNS_9InnerInfoE
a9g:_List_1_set_Capacity_m1977188119_gshared
_cc:__Z46GetShaderModelNumericValueFromRequirementsMask18ShaderRequirements
cBc:_cff_ps_has_glyph_names
vTf:_Dictionary_2_Resize_m3287623642_gshared
Vlj:_GC_write
oid:_RC2_Create_m2516417038
Cad:_Graphic_OnPopulateMesh_m767318148
WCe:_Dictionary_2_Remove_m4193450060_gshared
XGd:_Int64_TryParse_m3606398488
J_h:_Array_InternalArray__set_Item_TisMark_t3471605523_m1299772331_gshared
Boc:__Z44Register_UnityEngine_GUIStyle_SetDefaultFontv
Jxb:__Z18Transfer_BlittableI18StreamedBinaryReadILb1EELb1EiEvRK29SerializationCommandArgumentsR31RuntimeSerializationCommandInfo
QA:__ZN9BlobWrite8TransferI22OffsetPtrArrayTransferIKN4math7_float3EEEEvRT_PKc17TransferMetaFlags
mFg:__Z173RuntimeInvoker_Int32_t2950945753_RuntimeObject_Int32_t2950945753_Int32_t2950945753_Int32_t2950945753_RuntimeObject_Int32_t2950945753_SByte_t1669577662_ContextU26_t3937453398PFvvEPK10MethodInfoPvPS4_
A2g:_List_1__ctor_m2576108087_gshared
h$i:__ZN15dense_hashtableINSt3__24pairIK10KeyWrapperINS1_IPK12PropertyInfoP11Il2CppClassEEEjEES9_17ReflectionMapHashIS8_EN14dense_hash_mapIS9_jSD_NS9_14EqualsComparerINS0_8equal_toIS8_EEEENS0_9allocatorISB_EEE9SelectKeyESI_SK_E12maybe_shrinkEv
ymi:_X509Certificate_get_DSA_m565099499
iyb:__Z18Transfer_BlittableI18StreamedBinaryReadILb1EELb1EsEvRK29SerializationCommandArgumentsR31RuntimeSerializationCommandInfo
f7f:_StringBuilder_Remove_m940064945
igd:_DESCryptoServiceProvider_GenerateIV_m683687014
sse:_InternalEnumerator_1_get_Current_m3792939945_gshared
JSc:__ZN22BaseUnityConnectClient17OnEnterStateReadyEv
w$e:_Text_get_fontSize_m1677872538
Dgd:_DSACryptoServiceProvider_get_PublicOnly_m3933928860
LTa:__ZN14GrowableBufferD2Ev
dhc:__Z29Input_CUSTOM_GetMouseButtonUpi
GDd:_Int16_Parse_m138525169
oUi:__ZN6il2cpp6icalls8mscorlib6System8MonoType16InternalGetEventEP20Il2CppReflectionTypeP12Il2CppStringi
Yui:_UriScheme_t722425697_marshal_pinvoke_back
WCc:_UNITY_tt_face_load_maxp
shc:__Z46Input_CUSTOM_INTERNAL_set_compositionCursorPosRK13Vector2fIcall
yt:__ZN7mecanim5human12FullBodyMaskEv
v2e:_BigInteger_ToString_m3475000413
Zbb:__ZN19ShaderPropertySheet11ComputeHashEv
BOi:__ZN30dense_hashtable_const_iteratorI10KeyWrapperIPK19Il2CppGenericMethodES4_N6il2cpp8metadata23Il2CppGenericMethodHashEN14dense_hash_setIS4_S7_NS4_14EqualsComparerINS6_26Il2CppGenericMethodCompareEEENSt3__29allocatorIS4_EEE8IdentityESB_SE_EppEv
lT:__ZN11UnityEngine15CloudWebService20WebRequestRestClient6IsDoneEv
Xki:_X509CertificateCollection_get_Item_m1033426577
Ni:_llvm_fabs_f32
QS:__ZN11UnityEngine15CloudWebService16SessionContainer16GetJsonDataBlockEjRKN4core12basic_stringIcNS2_20StringStorageDefaultIcEEEERS6_PjSA_
M3e:_ASN1_Decode_m1695284166
PBf:_Enum_ToString_m3248653065
PZ:__ZN14SafeBinaryReadD2Ev
P2b:__Z13RegisterClassI7TextureEvv
_1f:_Enumerator_MoveNext_m3859993671_gshared
yzb:__ZN8Gradient8TransferI18StreamedBinaryReadILb1EEEEvRT_
Rff:_Capture__ctor_m3103117740
O7a:__ZN4core8hash_mapINS_12basic_stringIcNS_20StringStorageDefaultIcEEEE13dynamic_arrayI4PPtrI6SpriteELj4EENS_4hashIS4_EENSt3__28equal_toIS4_EEEixERKS4_
kEg:__Z113RuntimeInvoker_Void_t1185182177_RuntimeObject_Int64_t3736567304_RuntimeObject_Int64_t3736567304_Int64_t3736567304PFvvEPK10MethodInfoPvPS4_
qtg:_RangeInt_get_end_m4128831787_AdjustorThunk
T9i:__ZN6il2cpp6icalls8mscorlib6System4Type15MakeGenericTypeEP20Il2CppReflectionTypeP11Il2CppArray
nj:_SDL_PauseAudio
pxd:_Hashtable_Clone_m3078962909
s3i:_il2cpp_class_from_type
qVi:__ZN6il2cpp2os4File11GetStdErrorEv
Z9:__ZN9ShaderLab19CommonPropertyNames16StaticInitializeEPv
VC:__ZN7mecanim9animation18CreateAvatarOutputEPKNS0_14AvatarConstantEbbRNS_6memory9AllocatorE
bnd:_Array_GetLongLength_m561139708
m_e:_Slider_set_maxValue_m2251404465
TL:__ZN11AudioSource23VirtualRedirectTransferER24GenerateTypeTreeTransfer
rac:__ZN7Texture11SetWrapModeE15TextureWrapMode
j8a:__ZN14Texture2DArray23VirtualRedirectTransferER14SafeBinaryRead
XOd:_MissingMemberException__ctor_m1220732369
YQb:__ZNK6Camera21CalculateCanDoShadowsEv
kig:_Application_InvokeOnBeforeRender_m2875673833
wgj:__ZN6il2cpp2os6Thread12SetStackSizeEj
YUe:_MaskableGraphic_RecalculateMasking_m183336762
d3h:_Array_InternalArray__get_Item_TisRuntimeObject_m3347010206_gshared
R_d:_TypeBuilder_IsSubclassOf_m3458909121
mac:__ZNK8Renderer16IsVisibleInSceneEv
nZ:__Z13VFormatBufferPciPKcz
EAb:__Z18Transfer_BlittableI18StreamedBinaryReadILb0EELb1EhEvRK29SerializationCommandArgumentsR31RuntimeSerializationCommandInfo
Njd:_X509Certificate__cctor_m198658613
osg:_PlayableHandle_Equals_m1666612586_AdjustorThunk
cBa:__ZN6prcoreL27StretchGenericFloatBilinearI15TexFormatRFloatEEvPKNS_9InnerInfoE
$Dh:__ZL139ServicePointManager_t170559685_CustomAttributesCacheGenerator_ServicePointManager_t170559685____CheckCertificateRevocationList_PropertyInfoP21CustomAttributesCache
$Bf:_Enum_ToObject_m1628250250
lw:__Z24ProcessAnimationMixBeginP35AnimationPlayableEvaluationConstantP32AnimationPlayableEvaluationInputP33AnimationPlayableEvaluationOutput
j7g:_List_1_set_Item_m2057272351_gshared
fya:__Z14PadImageBorderR14ImageReferenceii
JZi:__ZN15dense_hashtableINSt3__24pairIK10KeyWrapperINS1_IPK10MethodInfoP11Il2CppClassEEEjEES9_17ReflectionMapHashIS8_EN14dense_hash_mapIS9_jSD_NS9_14EqualsComparerINS0_8equal_toIS8_EEEENS0_9allocatorISB_EEE9SelectKeyESI_SK_E4findERSA_
LRi:__ZN6il2cpp2vm13MetadataCache28GetFieldDefaultValueForFieldEPK9FieldInfo
$Lf:_Array_IndexOf_TisUIVertex_t4057497605_m3336763564_gshared
Pw:__ZN27AnimationLayerMixerPlayableD2Ev
d6c:_ColorBlock_Equals_m518833916_AdjustorThunk
JLh:__ZL66PersistentCall_t3407714124_CustomAttributesCacheGenerator_m_TargetP21CustomAttributesCache
cI:__ZN12AudioManager39HandlePendingAudioConfigurationCallbackEv
kk:_emscripten_glIsFramebuffer
m6e:_RSAManaged_EncryptValue_m799827583
V1:__ZN12_GLOBAL__N_16qAtan2Eff
ok:_JS_Sound_SetLoopPoints
Lca:__ZN15dense_hashtableINSt3__24pairIKyP17VertexDeclarationEEy14GfxGenericHashIyEN14GfxDoubleCacheIyS4_S7_NS0_8equal_toIyEEN31GfxDoubleCacheConcurrencyPolicy11LocklessGetE42GfxDoubleCacheDefaultEmptyDeletedGeneratorIyEE9SelectKeyESA_13stl_allocatorIS5_L18MemLabelIdentifier24ELi16EEE14squash_deletedEv
fN:__ZN12AudioManager17ShouldSourcePauseEb
uqj:__ZN6il2cpp2vm26MetadataAllocGenericMethodEv
YIf:_Array_InternalArray__ICollection_Remove_TisUInt16_t2177724958_m1766181761_gshared
cHa:__ZN19ConstantBuffersGLES12RecordRenderEv
_rc:__ZN9JSONWrite8TransferI10RectOffsetEEvRT_PKc17TransferMetaFlags
Mxa:__ZN4crnd12symbol_codec11decode_bitsEj
Yyc:_cf2_doFlex
Jyi:_AesManaged_GenerateIV_m1368817386
MRa:__ZN13dynamic_arrayI17SortingLayerEntryLj4EE6insertEPS0_jRKS0_
gI:__ZN4FMOD6System12createReverbEPPNS_6ReverbE
zjj:__ZN6il2cpp2vm6String21InitializeEmptyStringEP11Il2CppClass
Gw:__ZN7mecanim19ValueArrayBlendNodeILb1EEEvRKNS_10ValueArrayERKNS_14ValueArrayMaskERS1_RS4_RNS_16ValueArrayWeightEf
yib:__Z16MarkDependenciesR27GarbageCollectorThreadStatej
Oji:_ObjectPool_1_get_countInactive_m526975942_gshared
PLe:_RemotingServices_DisposeIdentity_m2605848806
f2:__ZNK9Transform11GetPositionEv
jjg:_Bounds_set_size_m4127623202
HCd:_GuidParser_Reset_m2640004655
zWa:__ZN23SharedMeshRenderingData18UnloadVertexStreamEi
W7b:__ZN31CanvasBatchIntermediateRenderer11AddSubBatchERK16DrawBuffersRangePK19ShaderPropertySheet
E6b:__ZN19RenderEventsContextC2Ei
aR:__Z6simd4fRKf
Sk:_emscripten_glEnable
Pme:_InternalEnumerator_1_System_Collections_IEnumerator_get_Current_m2982675020_gshared
FRa:__ZN10TagManager23VirtualRedirectTransferER14SafeBinaryRead
JWh:__ZL51RawImage_t3182918964_CustomAttributesCacheGeneratorP21CustomAttributesCache
HTb:__Z15InitLightMeshesv
y0d:_MonoCMethod_ToString_m3992577062
An:FUNCTION_TABLE_iifiii
H5a:__ZN15QualitySettings8TransferI19StreamedBinaryWriteILb0EEEEvRT_
fUe:_LayoutUtility_U3CGetFlexibleHeightU3Em__7_m2991026842
Ayc:_cf2_arrstack_init
m3h:_Array_InternalArray__get_Item_TisResourceCacheItem_t51292791_m1306056717_gshared
YRg:__Z157RuntimeInvoker_Void_t1185182177_RuntimeObject_RuntimeObject_RuntimeObject_RuntimeObject_RuntimeObject_RuntimeObject_RuntimeObject_RuntimeObject_RuntimeObjectPFvvEPK10MethodInfoPvPS4_
dX:__Z15CleanLogHandler7LogTypePKcz
zRd:_NumberFormatter_NumberToString_m2481532188
Bla:__ZN9ShaderLab19SerializedSubShader8TransferI19StreamedBinaryWriteILb0EEEEvRT_
xYe:_ScrollRect_InternalGetBounds_m599803667
WDb:__ZN6Camera17RemoveImageFilterERK11ImageFilter
gna:__ZNSt3__218__insertion_sort_3IR25ValueParameterArraySorterPN20GpuProgramParameters14ValueParameterEEEvT0_S6_T_
PDh:__ZL67EditorBrowsableAttribute_t1475454531_CustomAttributesCacheGeneratorP21CustomAttributesCache
uwd:_Comparer__cctor_m3311686689
rme:_InternalEnumerator_1_get_Current_m3500427238_AdjustorThunk
OPc:__ZN2UI26InitializeDeviceForOverlayEi
_8:__Z27LogRepeatingStringWithFlagsRKN4core12basic_stringIcNS_20StringStorageDefaultIcEEEE15LogMessageFlagsi
qgg:_UInt64_System_IConvertible_ToSingle_m925613075
aCf:_Enum_IsDefined_m1442314461
bag:_Thread__cctor_m817723615
AAi:_AudioExtensionManager_RegisterBuiltinDefinitions_m2742744104
Zt:__ZN17AnimationPlayable28ComputeNeedsBindingRebuildedEv
et:__ZN17AnimationPlayable23RequestAllocateBindingsEv
Jsf:_DecoderReplacementFallbackBuffer_Fallback_m1261056214
KTd:_Binder_get_DefaultBinder_m950908649
uJd:_StreamReader__ctor_m1616861391
AVc:__ZN18UnityConnectClient33OnPlayerSessionStateChangedStaticEPS_jyy
Tif:_RSA_ToXmlString_m2922661427
XT:__ZNK11UnityEngine15CloudWebService23WebRequestUploadHandler11GetProgressEv
Mua:__ZN7ApiGLES4LoadE16GfxDeviceLevelGL
Y4a:__ZN18StreamedBinaryReadILb0EE21TransferSTLStyleArrayI13dynamic_arrayI31EnlightenSystemAtlasInformationLj8EEEEvRT_17TransferMetaFlags
jdj:__ZN15dense_hashtableI10KeyWrapperIP18Il2CppGenericClassES3_N6il2cpp8metadata22Il2CppGenericClassHashEN14dense_hash_setIS3_S6_NS3_14EqualsComparerINS5_25Il2CppGenericClassCompareEEENSt3__29allocatorIS3_EEE8IdentityESA_SD_E15insert_noresizeERKS3_
L5b:__ZZL31RegisterOtherRendererPropertiesR22GenericPropertyBindingEN30Wrapper_RendererReceiveShadows13GetFloatValueEPv
uHf:_Array_InternalArray__ICollection_Contains_TisSlot_t384495010_m688761886_gshared
p3a:__ZN17SharedTextureDataC2E10MemLabelIdii13TextureFormatjiibb
OTg:__Z114RuntimeInvoker_RuntimeObject_RuntimeObject_Int32_t2950945753_Int32_t2950945753_Int32_t2950945753_Int32_t2950945753PFvvEPK10MethodInfoPvPS4_
bHb:__ZN8Material11SetPassFastEPN9ShaderLab4PassER17ShaderPassContextP6Shaderib
yVc:__ZN11UnityEngine7Connect20BasePersistentValues10SaveValuesER9JSONWrite
Dhh:_Collection_1_IsFixedSize_m3748602684_gshared
Gtf:_DateTime_System_IConvertible_ToDouble_m2116720007
$lg:_Display_GetSystemExtImpl_m2808197389
pbg:_WaitHandle_WaitOne_m2577152516
Ajd:_X509Certificate_PEM_m1177570576
Yhe:_ArrayReadOnlyList_1_GetEnumerator_m1835926958_gshared
ubc:__Z14ScaleCurveTimeR17AnimationCurveTplIfEf
lca:__ZN22VirtualJoystickManagerC2Ev
Nba:__ZN20GlobalCachingManager7DisposeEv
WNb:__Z12SetupLODFadeR9GfxDeviceR17ShaderPassContextf
h1a:__ZNK14PlayableOutput7GetTypeEv
uTb:__ZL24CollectForwardObjectsJobP27CollectForwardObjectsHeader
pVb:__Z13IsNodeVisibleRK9SceneNodeRK4AABBRK22SceneCullingParameters
DMf:_Array_InternalArray__IndexOf_TisLabelFixup_t858502054_m1491765395_gshared
i1e:_SortKeyBuffer_AppendCJKExtension_m2591091991
HRc:__Z57RectTransformUtility_CUSTOM_INTERNAL_CALL_PixelAdjustRectP12Il2CppObjectS0_R5RectTIfE
J8f:_UTF8Encoding_GetByteCount_m4153686982
pWb:__Z24ScheduleCullingAllGroupsR8JobFenceRK22SceneCullingParametersiRK13CullingOutputRK13dynamic_arrayIP12CullingGroupLj4EERKS_
TJj:_emscripten_glStencilMask__wrapper
$Cg:__Z49RuntimeInvoker_Void_t1185182177_Double_t594665363PFvvEPK10MethodInfoPvPS4_
rOi:__ZN15dense_hashtableI10KeyWrapperIPK19Il2CppGenericMethodES4_N6il2cpp8metadata23Il2CppGenericMethodHashEN14dense_hash_setIS4_S7_NS4_14EqualsComparerINS6_26Il2CppGenericMethodCompareEEENSt3__29allocatorIS4_EEE8IdentityESB_SE_EC2ERKSH_j
FTa:__ZN15RenderNodeQueue7CleanupEv
i2d:_MonoProperty_CreateGetterDelegate_m2478402519
Bwc:__ZN16NovodexAllocator8allocateEjPKcS1_i
$$a:__ZN39DeprecatedFastPropertyNameSerialization8TransferI14SafeBinaryReadEEvRT_
pmi:_DeriveBytes_DeriveIV_m973925711
xFd:_Int32_System_IConvertible_ToSByte_m3133688512
rTb:__ZN9ShaderLab10GrabPassesD2Ev
GYe:_ScrollRect_CalculateOffset_m927043599
u8a:__ZN14Texture2DArray13UploadTextureEv
IUe:_MaskableGraphic_UpdateCull_m2805101913
DDc:_tt_cmap14_done
ugb:__ZN18AwakeFromLoadQueue25RegisterObjectInstanceIDsEv
Uw:__ZNK27AnimationLayerMixerPlayable11DerivesFromE17ScriptingClassPtr
PJc:__ZN20TextRenderingPrivate19NativeTextGenerator15InsertCharacterEiPj
YPd:_MonoType_get_attributes_m1332507727
Awi:_GUIContent_ClearStaticCache_m1205116045
WMe:_BinaryCommon__cctor_m2978407547
Hrd:_Char_System_IConvertible_ToByte_m2347554595
wLc:__ZN20TextRenderingPrivate15DynamicFontData21GetFontMetricsForFaceERK13dynamic_arrayIN4core17string_with_labelILi35EEELj4EEiRKS1_I4PPtrIN13TextRendering4FontEELj4EEPfSF_
wii:_IndexedSet_1__ctor_m2250384602_gshared
Ueg:_UInt16_TryParse_m4139137016
iij:__ZN6il2cpp2gc16GarbageCollector9FreeFixedEPv
D5f:_Encoding__ctor_m2997749867
fpg:_ManagedStreamHelpers_ManagedStreamSeek_m3158782053
iti:_ExpressionAssertion_Compile_m2166597834
nDb:__ZN16ScriptingManagerD0Ev
Rof:_Single_System_IConvertible_ToSByte_m1208276900_AdjustorThunk
Qkj:__ZN6il2cpp6icalls8mscorlib6System7Convert24InternalFromBase64StringEP12Il2CppStringb
Pbj:__ZN30dense_hashtable_const_iteratorINSt3__24pairIK10KeyWrapperINS1_IPKcS4_EEEiEES6_24NamespaceAndNamePairHashN14dense_hash_mapIS6_iS9_NS6_14EqualsComparerI26NamespaceAndNamePairEqualsEENS0_9allocatorIS8_EEE9SelectKeyESD_SF_EppEv
Efc:__Z44Register_UnityEngine_Component_get_transformv
UB:__ZN12_GLOBAL__N_120ProcessPlayableGraphERN8Animator11AnimatorJobER35AnimationPlayableEvaluationConstantR32AnimationPlayableEvaluationInputR33AnimationPlayableEvaluationOutputPFvS4_R17AnimationPlayableEPFvS4_S6_S8_EPFvS8_S4_S6_S8_fESE_MS9_FvPS3_PS5_PS7_E
mIi:_CanvasRenderer_get_absoluteDepth_m2703237819
hGf:_TextInfo_ToLower_m2744057472
_Jb:__ZN17ArchiveFileSystem12MountArchiveEPKcS1_
KYf:_EqualityComparer_1_System_Collections_IEqualityComparer_Equals_m3977314386_gshared
drc:__Z18Transfer_BlittableI9JSONWriteLb1E8Vector4fEvRK29SerializationCommandArgumentsR31RuntimeSerializationCommandInfo
wn:FUNCTION_TABLE_viififiii
oDf:_CCGregorianCalendar_year_from_fixed_m463929682
UNc:__ZN2UI13CanvasManagerD0Ev
JX:__ZThn32_NK8Renderer14GetSubsetIndexEi
zlg:_Debug_get_unityLogger_m2239795986
b8d:_MD2Managed_Initialize_m2341076836
Uai:_ReadOnlyCollection_1_System_Collections_IList_Add_m4240023232_gshared
Bra:__ZN9GfxDevice15ImmediateVertexEfff
y2b:__Z13RegisterClassI8MaterialEvv
h4a:__ZNK16LightmapSettings22GetTypeVirtualInternalEv
Toa:__ZN13GfxDeviceGLES15SetStencilStateEPK18DeviceStencilStatei
vqd:_Buffer_BlockCopyInternal_m418318694
cwj:_cycle
Gkj:__ZN6il2cpp2vm8Profiler7GCEventE13Il2CppGCEvent
MEg:__Z76RuntimeInvoker_Void_t1185182177_RuntimeObject_RuntimeFieldHandle_t1871169219PFvvEPK10MethodInfoPvPS4_
Dd:_emscripten_glUniform1iv
zag:_Thread_get_ManagedThreadId_m1068113671
kmb:__ZN16MemoryFileSystemD2Ev
bFg:__Z150RuntimeInvoker_Int32_t2950945753_RuntimeObject_Int32_t2950945753_Int32_t2950945753_RuntimeObject_Int32_t2950945753_Int32_t2950945753_Int32_t2950945753PFvvEPK10MethodInfoPvPS4_
apd:_BitConverter_DoubleToInt64Bits_m3574395137
ivf:_DateTime_Parse_m3729096069
F2g:_List_1_System_Collections_IList_Add_m1540114404_gshared
mfc:__Z37Register_UnityEngine_Camera_get_depthv
cNd:_StringReader_Read_m3322058819
$Ee:_CrossAppDomainChannel_get_ChannelPriority_m3418073750
ERe:_Selectable_StartColorTween_m3618813981
v_c:_BaseInputModule_HandlePointerExitAndEnter_m1705532066
M$b:__Z23ConvertIntegerToTypePtrItEbPvR14SafeBinaryRead
Ozf:_Delegate_CombineImpl_m3572135514
hEd:_NumberFormatter_IntegerToString_m1679294587
k8h:_ReadOnlyCollection_1_System_Collections_IList_RemoveAt_m422909114_gshared
zC:__ZN7mecanim5human29HumanGetGoalOrientationOffsetENS0_4GoalE
Ud:_emscripten_glStencilFunc
h2c:__Z46il2cpp_codegen_get_marshal_directive_exceptionPKc
hPe:_InputField_get_isFocused_m709836844
$d:_glGetActiveUniformBlockName
Kf:_emscripten_glUniform1fv
Khc:__Z39Quaternion_CUSTOM_INTERNAL_CALL_InverseRK11QuaternionfRS_
bJ:__ZN4FMOD7Channel20set3DConeOrientationEP11FMOD_VECTOR
nn:FUNCTION_TABLE_iiifii
OUd:_AssemblyBuilder_not_supported_m1735277432
pfj:__ZN6il2cpp2vm12GenericClass11SetupEventsEP11Il2CppClass
BGc:_tt_delta_interpolate
$Dc:_tt_cmap12_get_info
Zaj:__ZN6il2cpp2vm15ReboxIReferenceEP14Il2CppIUnknownP11Il2CppClass
HJi:__ZN6il2cpp6icalls8mscorlib6System7Decimal14decimalCompareEP19il2cpp_decimal_reprS5_
VCe:_Dictionary_2_OnDeserialization_m4209543208_gshared
llj:__ZThn4_N6il2cpp2vm13CachedCCWBaseINS0_13ManagedObjectEE7ReleaseEv
Yng:_GameObject_AddComponent_m136524825
Luh:__ZL62SoapMethodAttribute_t1935009310_CustomAttributesCacheGeneratorP21CustomAttributesCache
rOg:__Z100RuntimeInvoker_Void_t1185182177_RuntimeObject_Int32_t2950945753_Int32_t2950945753_UInt16_t2177724958PFvvEPK10MethodInfoPvPS4_
XGj:_glCopyTexImage2D__wrapper
UAf:_Double_System_IConvertible_ToUInt32_m271206838
P7:__GLOBAL__sub_I_runtime_graphics_billboard_0_cpp
mHb:__Z18ClearByDrawingQuad13GfxClearFlagsRK10ColorRGBAffjR17ShaderPassContext
BAa:__ZN6prcoreL17RemapGenericFloatI14TexFormatRHalf15TexFormatRFloatEEvPKNS_9InnerInfoE
Hzc:_cf2_getBlueValues
LNb:__Z16ShouldUseShadowsb
iea:__ZN15DirectorManager21RebuildStageCallbacksEv
zHb:__ZN19RuntimeSceneManager9LoadSceneERKN4core12basic_stringIcNS0_20StringStorageDefaultIcEEEES6_S6_RK9UnityGUIDiNS_11LoadingModeE
Tta:__ZN7ApiGLES10DrawArraysE16GfxPrimitiveTypejjj
yG:__ZN10SampleClip13LoadBaseSoundEv
Pkd:_SmallXmlParser_SkipWhitespaces_m4243606597
cEf:_CompareInfo_IndexOf_m2631915198
uVd:_ConstructorBuilder_GetCustomAttributes_m2495332786
ird:_Byte_CompareTo_m4285128861
O$c:_TriggerEvent__ctor_m87299207
hQ:__Z57AudioSource_CUSTOM_INTERNAL_CALL_ClearExtensionPropertiesP12Il2CppObjectRK12PropertyName
Dej:__ZN15dense_hashtableINSt3__24pairIK10KeyWrapperIP12Il2CppObjectEN6il2cpp2gc9CachedCCWEEES5_NS7_5utils11PointerHashIS3_EEN14dense_hash_mapIS5_S9_SD_NS5_14EqualsComparerINS0_8equal_toIS4_EEEENS0_9allocatorISA_EEE9SelectKeyESI_SK_E15insert_noresizeERKSA_
Vca:__ZL50StaticRegisterSceneLoadedCallback_LightmapSettingsPv
d1a:__ZN22DeviceMVPMatricesStateC2ER9GfxDevice
Zm:FUNCTION_TABLE_iifii
Kvd:_Comparer_Compare_m3984347512
o4a:__ZN21EnlightenSceneMapping8TransferI14SafeBinaryReadEEvRT_
I2i:__ZN6il2cpp2vm10Reflection12HasAttributeEP9FieldInfoP11Il2CppClass
Mm:FUNCTION_TABLE_iiffi
hc:invoke_viiifi
h2d:_MonoProperty_GetCustomAttributes_m3619796755
RJe:_MethodDictionary_System_Collections_IEnumerable_GetEnumerator_m4169036899
_La:__ZNK11AssetBundle14GetPreloadDataEiR13dynamic_arrayIiLj4EE
tif:_RIPEMD160Managed_JJJ_m4161373884
XTf:_DefaultComparer_Equals_m3257444875_gshared
jf:_JS_Sound_SetPosition
ZYa:__ZN19RenderBufferManager13GetTempBufferEii17DepthBufferFormat19RenderTextureFormatj22RenderTextureReadWrite14VRTextureUsagei23RenderTextureMemoryless
lRi:__ZL13GetSharedInstPK17Il2CppGenericInst
RSc:__ZN22BaseUnityConnectClient17SaveSessionValuesEv
uke:_InternalEnumerator_1_get_Current_m476140818_gshared
xTb:__Z24SetupActiveLightsContextR21ActiveLightingContextRK12ActiveLightsRK11CullResultsP14ShadowMapCacheRK10MinMaxAABB
Tic:__Z38Sprite_CUSTOM_INTERNAL_get_textureRectP12Il2CppObjectP5RectTIfE
u1i:__ZNK15dense_hashtableINSt3__24pairIK10KeyWrapperIPK22Il2CppGenericParameterEPK24MonoGenericParameterInfoEES6_N6il2cpp5utils11PointerHashIS4_EEN14dense_hash_mapIS6_SA_SF_NS6_14EqualsComparerINS0_8equal_toIS5_EEEENS0_9allocatorISB_EEE9SelectKeyESK_SM_E3endEv
Xcc:__ZN9TextAsset7SetTextERKN4core12basic_stringIcNS0_20StringStorageDefaultIcEEEE
CSa:__ZN6Camera8TransferI24GenerateTypeTreeTransferEEvRT_
Ha:invoke_iiiiiiif
Ea:invoke_iiiiiiii
MQf:_Array_InternalArray__set_Item_TisByte_t1134296376_m3104140039_gshared
Cug:_Rect_ToString_m447614148
Tmi:_PKCS12_GetBytes_m415958948
PWb:__ZN8Renderer17PendingAddToSceneEv
RKj:b122
UKj:b125
TKj:b124
$Kj:b127
WKj:b126
eLj:b129
kic:__Z52Register_UnityEngine_RectTransform_INTERNAL_get_rectv
sqg:_Mesh_SetSizedArrayForChannel_m2565120436
y_:__Z21PostprocessStacktracePKcRN4core12basic_stringIcNS1_20StringStorageDefaultIcEEEE
gpg:_ManagedStreamHelpers_ManagedStreamLength_m2930872960
peb:__ZN18StreamedBinaryReadILb0EE21TransferSTLStyleArrayI13dynamic_arrayI16SplashScreenLogoLj4EEEEvRT_17TransferMetaFlags
Dli:_BasicConstraintsExtension_Encode_m2009213240
xfc:__Z47Register_UnityEngine_Camera_get_allCamerasCountv
o5c:___clang_call_terminate
USc:__ZN22BaseUnityConnectClient20StartEventDispatcherEv
Mac:__ZNSt3__26vectorIj13stl_allocatorIjL18MemLabelIdentifier1ELi16EEE6assignIPKtEENS_9enable_ifIXaasr21__is_forward_iteratorIT_EE5valuesr16is_constructibleIjNS_15iterator_traitsIS9_E9referenceEEE5valueEvE4typeES9_S9_
kB:__ZN7mecanim9animation16EvaluateAvatarIKEPKNS0_14AvatarConstantEPKNS0_11AvatarInputEPNS0_12AvatarOutputEPNS0_12AvatarMemoryEPNS0_15AvatarWorkspaceEb
hCa:__ZL25ProgramUniformMatrix4x3fvPK7ApiGLESjiihPKv
kLb:__ZN12InputManager13InputEndFrameEv
Hqg:_Object_get_name_m4211327027
u6i:__ZN6il2cpp2vm6Thread5SetupEP12Il2CppThread
Vxe:_Enumerator_System_Collections_IDictionaryEnumerator_get_Key_m2500634048_gshared
hxj:___munmap
ag:_localtime_r
qMb:__ZN22RenderingCommandBuffer13GetAndCheckRTE24BuiltinRenderTextureTypeRKN9ShaderLab16FastPropertyNameEPKcPP13RenderTexture
Kca:__ZN14GfxDoubleCacheIyP17VertexDeclaration14GfxGenericHashIyENSt3__28equal_toIyEEN31GfxDoubleCacheConcurrencyPolicy11LocklessGetE42GfxDoubleCacheDefaultEmptyDeletedGeneratorIyEEC2Ev
UW:__Z19free_alloc_internalPv10MemLabelId
j8f:_UTF32Decoder_GetChars_m1925558948
dg:_strftime
_Ea:__ZN7Texture33SetStoredColorSpaceNoDirtyNoApplyE17TextureColorSpace
W3d:_ResourceSet__ctor_m3618395942
Qxf:_Decimal_System_IConvertible_ToDouble_m3125524987_AdjustorThunk
z1:__ZN12FileAccessorD2Ev
MWa:__ZN14VertexDataInfoC2Ev
Uhj:__ZN6il2cpp2gc16GarbageCollector14CollectALittleEv
v8b:__ZNK9HPlayable15GetPlayableTypeEv
Xyb:__ZL17Transfer_GUIStyleI18StreamedBinaryReadILb1EELb1EEvRK29SerializationCommandArgumentsR31RuntimeSerializationCommandInfo
UVe:_RectMask2D_IsRaycastLocationValid_m1652308696
eUi:__ZN6il2cpp6icalls8mscorlib6SystemL9IsPrivateEPK12PropertyInfo
ani:_X501_ToString_m1148552872
rvg:_RectTransform_add_reapplyDrivenProperties_m1374850920
X9:__ZN9shadertag10InitializeEv
YNb:__ZN13BatchRenderer20RenderSingleWithPassER17ShaderPassContextPK18SharedMaterialDataP6ShaderPN9ShaderLab4PassEiPKNS7_10GrabPassesEjib15BatchBreakCause
E5a:__ZN15QualitySettings14QualitySetting8TransferI24GenerateTypeTreeTransferEEvRT_
Akc:__Z44Register_UnityEngine_Object_DestroyImmediatev
NBd:_Convert_ToSingle_m835189399
N9b:__ZN22BlockMemoryCacheWriter14LockCacheBlockEjPPhS1_
Puc:__Z22TransferField_NonArrayI8JSONRead27Converter_SimpleNativeClassI8GUIStyleEEvRK23StaticTransferFieldInfoR31RuntimeSerializationCommandInfoRT0_
Kg:_llvm_eh_typeid_for
p2b:__Z13RegisterClassI10GameObjectEvv
zJe:_RemotingServices_FindInterfaceMethod_m2125212568
nz:__ZNK23AnimationPlayableOutput7GetTypeEv
LMd:_StreamWriter__cctor_m1229272693
LBf:_Enum_System_IConvertible_ToSByte_m779472798
Tcg:_Type_get_IsInterface_m3284996719
jBb:__Z18Transfer_BlittableI18StreamedBinaryReadILb0EELb1E8Vector4fEvRK29SerializationCommandArgumentsR31RuntimeSerializationCommandInfo
ITf:_Dictionary_2_U3CCopyToU3Em__0_m2023886030_gshared
tJj:_glBindVertexArray__wrapper
edd:_SerializationInfo__ctor_m2923079689
G$a:__ZN8Material8TransferI14SafeBinaryReadEEvRT_
R1a:__ZN12CubemapArray17UploadToGfxDeviceEv
MDd:_Int32_JumpOverWhite_m208298144
BXg:__Z53RuntimeInvoker_Int32_t2950945753_UIVertex_t4057497605PFvvEPK10MethodInfoPvPS4_
uIj:_emscripten_glGetUniformiv__wrapper
elj:__ZN6il2cpp2vm13ManagedObject14QueryInterfaceERK10Il2CppGuidPPv
WG:__ZN11AudioSource4StopEb
Rqb:__ZN14SafeBinaryRead21TransferSTLStyleArrayI13dynamic_arrayI10Matrix4x4fLj4EEEEvRT_17TransferMetaFlags
pTa:__ZN15LODGroupManager26CollectAllLODGroupManagersERK16CoreCameraValuesR13dynamic_arrayIPS_Lj4EEb
zHa:__ZN18GlslGpuProgramGLESD2Ev
cZb:__ZN13RenderTexture14SetVolumeDepthEi
sS:__ZN11UnityEngine15CloudWebService14DataErrorEvent12ToJsonStringERN4core12basic_stringIcNS2_20StringStorageDefaultIcEEEEjPKc
JNg:__Z86RuntimeInvoker_Void_t1185182177_UInt16_t2177724958_SByte_t1669577662_SByte_t1669577662PFvvEPK10MethodInfoPvPS4_
Wma:__Z22LoadGpuProgramFromDataPKhS0_Rj
tvc:__ZN10Matrix4x4f8TransferI8JSONReadEEvRT_
LIc:__ZN14SafeBinaryRead21TransferSTLStyleArrayI13dynamic_arrayIN4core17string_with_labelILi35EEELj4EEEEvRT_17TransferMetaFlags
EVe:_PositionAsUV1_ModifyMesh_m4231919476
Pwd:_Hashtable__ctor_m1941859523
fYe:_ScrollRect_set_horizontalScrollbarSpacing_m2209919081
RY:__ZN17PersistentManager18ReadObjectThreadedEi
pEa:__ZN25TransformFeedbackSkinning31CleanupTransformFeedbackShadersEv
dTa:__Z22scripting_object_unbox18ScriptingObjectPtr
RJc:__ZNK20TextRenderingPrivate8FontImpl19GetCharacterAdvanceEjijfPj
iOf:_Array_InternalArray__ICollection_Add_TisUriScheme_t722425697_m3142345403_gshared
Fvj:_fmt_u
r7a:__ZN10VertexData8TransferI18StreamedBinaryReadILb0EEEEvRT_
utj:__ZN6il2cpp8metadata25Il2CppGenericClassCompare7CompareEPK18Il2CppGenericClassS4_
zQd:_MonoType_get_Assembly_m4290914179
Qna:__ZN9ShaderLab7ProgramC2E10MemLabelIdi10ShaderType
oZb:__ZN14PreloadManager16UpdatePreloadingEv
Rqf:_String_LastIndexOf_m95398196
Z_h:_Array_InternalArray__set_Item_TisUILineInfo_t4195266810_m2313892078_gshared
csg:_PlayableAsset__ctor_m2395156306
TV:__ZNK21UnityDefaultAllocatorI17LowLevelAllocatorE8ContainsEPKv
jed:_RuntimeTypeHandle_Equals_m2857439487
Uh:_emscripten_get_main_loop_timing
r5d:_SafeHandle_Finalize_m3866180675
D5a:__ZN24GenerateTypeTreeTransfer21TransferSTLStyleArrayINSt3__26vectorIN15QualitySettings14QualitySettingENS1_9allocatorIS4_EEEEEEvRT_17TransferMetaFlags
oLd:_MemoryStream_ToArray_m3911744835
uxe:_Enumerator_System_Collections_IDictionaryEnumerator_get_Entry_m859540448_AdjustorThunk
udg:_Type_GetHashCode_m1947148725
TIg:__Z91RuntimeInvoker_Void_t1185182177_RuntimeObject_RuntimeObject_RuntimeObject_SByte_t1669577662PFvvEPK10MethodInfoPvPS4_
zjb:__ZNK2UI13RectTransform22GetTypeVirtualInternalEv
ep:getTempRet0
P_c:_BaseRaycaster_OnEnable_m2678466030
Gwe:_Enumerator_get_CurrentKey_m627428048_AdjustorThunk
kng:_UnityEventBase__ctor_m1851535676
X0h:_Array_Sort_TisVector4_t3319028937_m2797285308_gshared
Dde:_HandshakeMessage_Update_m2417837686
S7i:__ZN6il2cpp6icalls8mscorlib6System9ThreadingL21lookup_cached_cultureEP12Il2CppThreadi
opj:__ZN6il2cpp2os11EventHandleD2Ev
Hmg:_NetFxCoreExtensions_CreateDelegate_m751211712
oUb:__ZN18DeferredRenderLoopD2Ev
QIi:_AnimationLayerMixerPlayable__cctor_m4086299972
L2:__ZNK16TypeTreeIterator4NameEv
Z0:__ZN15FileSystemEntry3SetEPKc
nVd:_ConstructorBuilder_Invoke_m3010446651
yec:__Z52Register_UnityEngine_Application_set_targetFrameRatev
taf:_IPv6Address_set_ScopeId_m3907190992
i5h:_ReadOnlyCollection_1_System_Collections_Generic_IListU3CTU3E_Insert_m568455025_gshared
MI:__ZN20SoundChannelInstance15ParameterBuffer5ApplyEPN4FMOD7ChannelE
haf:_IPv6Address__ctor_m4117281080
OJc:__ZN20TextRenderingPrivate19NativeTextGenerator9InsertTabEv
Yzj:_sbrk
SRg:__Z66RuntimeInvoker_Boolean_t97287965_Vector2_t2156229523_RuntimeObjectPFvvEPK10MethodInfoPvPS4_
j2f:_Enumerator_VerifyState_m3474272061_AdjustorThunk
vTc:__ZN11UnityEngine15PlatformWrapper24GetRuntimePlatformStringEv
Ei:_glIsEnabled
TUd:_DerivedType__ctor_m1853298054
Gpb:__Z25scripting_class_get_image17ScriptingClassPtr
Tnf:_SecurityException__ctor_m836898292
W3f:_List_1_RemoveAt_m2730968292_gshared
Yfb:__ZNSt3__26vectorIN4core12basic_stringIcNS1_20StringStorageDefaultIcEEEE13stl_allocatorIS5_L18MemLabelIdentifier13ELi16EEEC2INS_11__wrap_iterIPS5_EEEET_SE_RKS8_PNS_9enable_ifIXaasr21__is_forward_iteratorISE_EE5valuesr16is_constructibleIS5_NS_15iterator_traitsISE_E9referenceEEE5valueEvE4typeE
Ii:_emscripten_glDrawElementsInstanced
ay:__ZN26AnimatorControllerPlayable27SetupStateMachineBehavioursEv
SSe:_LayoutGroup_get_preferredWidth_m3816902260
TUa:__ZN18JobBatchDispatcherD2Ev
ujb:__ZN9Transform17MainThreadCleanupEv
Xnj:_GC_clear_hdr_marks
pKj:_emscripten_glCreateShader__wrapper
Yxc:_cff_fd_select_get
n$e:_Text_set_resizeTextForBestFit_m4095249125
qcf:_OidEnumerator_MoveNext_m3138911739
Ti:_emscripten_glGetShaderiv
MJ:__ZN4FMOD6System10getVersionEPj
ZMc:__ZN2UI6Canvas23VirtualRedirectTransferER24GenerateTypeTreeTransfer
wZe:_Selectable_set_animationTriggers_m2970345687
Xsc:__ZN9JSONWrite8TransferIN4math12int2_storageEEEvRT_PKc17TransferMetaFlags
xIc:__ZN13TextRendering4Font13AwakeFromLoadE17AwakeFromLoadMode
iEf:_CompareInfo_LastIndexOf_m2688553706
fqa:__ZN9GfxDevice21ReleaseSharedMeshDataEP14SharedMeshData
F1c:_MouseState__ctor_m1467839005
uui:_Uri_IsDomainAddress_m2867513594
fdb:__ZNSt3__27__sort5IRNS_6__lessINS_4pairIPKN5Unity4TypeE7Hash128EES8_EEPS8_EEjT0_SC_SC_SC_SC_T_
N8c:_Dropdown_CreateItem_m2954407740
cnj:_GC_unreachable_finalize_mark_proc
Ndf:_X509Chain_ProcessCrlExtensions_m236234529
Aoj:_maybe_finalize
nMi:__ZN6il2cpp2vm5Class40GetInterfaceInvokeDataFromVTableSlowPathEPK12Il2CppObjectPK11Il2CppClassj
CMf:_Array_InternalArray__IndexOf_TisLabelData_t360167391_m1826525656_gshared
cic:__Z43RectTransform_CUSTOM_INTERNAL_get_anchorMaxP12Il2CppObjectP13Vector2fIcall
GGi:_TextGenerator_INTERNAL_CALL_Populate_Internal_cpp_m4171649399
cGe:_RemotingConfiguration_RegisterChannelTemplate_m3105688054
pxf:_Decimal_Parse_m942471224
_3a:__ZN8Material28UpdateHashesOnPropertyChangeEN9ShaderLab16FastPropertyNameE
Rqh:__ZL56MethodBuilder_t2807316753_CustomAttributesCacheGeneratorP21CustomAttributesCache
Mic:__Z53Register_UnityEngine_SortingLayer_GetLayerValueFromIDv
yob:__Z18Transfer_BlittableI14SafeBinaryReadLb1E8Vector4fEvRK29SerializationCommandArgumentsR31RuntimeSerializationCommandInfo
P3c:_AspectRatioFitter_SetDirty_m2910185270
XL:__ZN11AudioSource12AddToManagerEv
Os:__ZN8Animator23VirtualRedirectTransferER19StreamedBinaryWriteILb0EE
Jz:__ZN11UnityEngine9Animation32CreateAnimatorGenericBindingsOptERKNS0_20AnimationSetBindingsER9TransformPKN7mecanim9animation14AvatarConstantEPKNS0_21AvatarBindingConstantEbRNS6_6memory9AllocatorER8Animator
Ubj:__ZN6il2cpp2vm5Image13ClassFromNameEPK11Il2CppImagePKcS6_
BAj:dynCall_vdddddd
Fka:__ZN24GenerateTypeTreeTransfer21TransferSTLStyleArrayINSt3__26vectorIN9ShaderLab14SerializedPassENS1_9allocatorIS4_EEEEEEvRT_17TransferMetaFlags
vaa:__ZL32MarkLevelGameManagerDependenciesR27GarbageCollectorThreadState
Dsa:__ZNK13GfxDeviceGLES26HasActiveRandomWriteTargetEv
k6i:__GLOBAL__sub_I_Thread_cpp
unh:__ZL54_MemberInfo_t3922476713_CustomAttributesCacheGeneratorP21CustomAttributesCache
jFj:_glGetActiveUniformsiv__wrapper
Jic:__Z43Register_UnityEngine_Material_EnableKeywordv
Lqg:_Mesh_GetIndices_m2873123901
j_:__ZN13MonoBehaviour19SetupScriptingCacheE17ScriptingClassPtrP10MonoScript
cs:__Z20AnimationEventToMonoRK14AnimationEventR18MonoAnimationEvent
dUg:__Z106RuntimeInvoker_Void_t1185182177_Single_t1397266774_Single_t1397266774_Single_t1397266774_Int32_t2950945753PFvvEPK10MethodInfoPvPS4_
yZ:__ZN17PersistentManager29ReadAndActivateObjectThreadedEiRK26SerializedObjectIdentifierP14SerializedFilebb
t1c:_PointerEventData_get_dragging_m746831934
Tai:_ReadOnlyCollection_1_System_Collections_IEnumerable_GetEnumerator_m2781605075_gshared
Yda:__ZZN15DirectorManager15InitializeClassEvEN52PreLateUpdateDirectorUpdateAnimationBeginRegistrator7ForwardEv
WGf:_Array_get_swapper_TisCustomAttributeNamedArgument_t287865710_m4254011335_gshared
Rad:_Graphic_RegisterDirtyMaterialCallback_m106898453
Fwi:_GUILayoutEntry_get_margin_m3174861737
Xja:__ZNSt3__26vectorIN9ShaderLab14SerializedPassENS_9allocatorIS2_EEE8__appendEj
gja:__ZNSt3__26vectorIN9ShaderLab20SerializedSubProgram13BufferBindingENS_9allocatorIS3_EEEC2INS_11__wrap_iterIPS3_EEEET_SB_RKS5_PNS_9enable_ifIXaasr21__is_forward_iteratorISB_EE5valuesr16is_constructibleIS3_NS_15iterator_traitsISB_E9referenceEEE5valueEvE4typeE
g6f:_Encoding_get_ISOLatin1_m2107621369
H6d:_BigInteger_op_Inequality_m2697143438
iIh:__ZL89Mathf_t3464937446_CustomAttributesCacheGenerator_Mathf_SmoothDamp_m394423605____maxSpeed4P21CustomAttributesCache
H3a:__ZN9Texture2D23VirtualRedirectTransferER18StreamedBinaryReadILb0EE
Htf:_DateTime_System_IConvertible_ToDouble_m2116720007_AdjustorThunk
zvd:_BitArrayEnumerator__ctor_m2359341397
w0f:_Enumerator_MoveNext_m1177880931_gshared
gNh:__ZL73g_UnityEngine_TextRenderingModule_Assembly_CustomAttributesCacheGeneratorP21CustomAttributesCache
H$:__ZN16ScriptingManager27NativeTypeForScriptingClassE17ScriptingClassPtr
cgg:_UInt64_System_IConvertible_ToDateTime_m3434604642
bdg:_Type_get_IsSerializable_m1040556850
MCc:_get_sfnt_table
JVb:__ZL22ScheduleSceneNodesJobsP25ScheduleSceneNodesJobDataj
Jk:_emscripten_set_canvas_size
V9c:_Graphic_SetVerticesDirty_m2124914069
lEf:_CultureInfo__ctor_m3285927757
HUe:_MaskableGraphic_get_rootCanvasRect_m3492154629
R$h:_Array_Resize_TisRaycastResult_t3360306849_m1811054291_gshared
Bja:__ZNSt3__26vectorIN9ShaderLab20SerializedSubProgramENS_9allocatorIS2_EEE8__appendEj
BW:__ZN20DynamicHeapAllocatorI17LowLevelAllocatorE8AllocateEji
byi:_Locale_GetText_m2427493201
DOb:__ZN20DynamicPropertySheet15SetVectorQueuedERKN9ShaderLab16FastPropertyNameERK8Vector4fN19ShaderPropertySheet8SetFlagsE
vA:__ZN7mecanim9animation22EvaluateAvatarRetargetEPKNS0_14AvatarConstantEPKNS0_11AvatarInputEPNS0_12AvatarOutputEPNS0_12AvatarMemoryEPNS0_15AvatarWorkspaceEb
SXa:__ZN14RenderSettings23VirtualRedirectTransferER19StreamedBinaryWriteILb0EE
urc:__ZL26Transfer_SimpleNativeClassI9JSONWrite10RectOffsetLb0EEvRK29SerializationCommandArgumentsR31RuntimeSerializationCommandInfo
wnj:_GC_push_conditional
Gwa:__ZN17GenericDynamicVBO10AllocateVBEjR21DynamicVBOChunkHandle
exf:_DBNull_ToString_m3638608738
Xcj:__ZN30dense_hashtable_const_iteratorI10KeyWrapperIP18Il2CppGenericClassES3_N6il2cpp8metadata22Il2CppGenericClassHashEN14dense_hash_setIS3_S6_NS3_14EqualsComparerINS5_25Il2CppGenericClassCompareEEENSt3__29allocatorIS3_EEE8IdentityESA_SD_EppEv
wvd:_BitArray_Clone_m3537018332
sNe:_ObjectRecord_UnchainFixup_m3191243952
_ki:_TlsStream_get_CanWrite_m16389328
hl:_glMapBufferRange
z3a:__ZN9Texture2D8TransferI18StreamedBinaryReadILb0EEEEvRT_
chc:__Z31Input_CUSTOM_GetMouseButtonDowni
D8b:__ZN13PlayableGraph4PlayEv
Y7b:__Z29AddCanvasIntermediateRendererPN2UI6CanvasEPNS_13CanvasBuffersEP17VertexDeclarationjRK10Matrix4x4ftRK4AABB4PPtrI8MaterialEi17ShadowCastingModebP6Camerab
hrf:_String_Format_m3339413201
CQd:_MonoType_get_BaseType_m1098640416
sLa:__ZN13LoadOperation19IntegrateTimeSlicedEi
rli:_TlsStream_Read_m3392972801
aEi:__ZL25UnresolvedVirtualCall_132P12Il2CppObject17Color_t2555686324faaaPK10MethodInfo
Osa:__ZN13GfxDeviceGLES22DispatchComputeProgramE12ObjectHandleI18ComputeProgram_TagPvE15ComputeBufferIDj
P6f:_Latin1Encoding_GetString_m254210343
Bhb:__Z17TransformAABBSlowRK4AABBRK10Matrix4x4fRS_
aod:_Array_combsort_m4052486289
$6a:__ZN15SerializeTraitsI13dynamic_arrayI12SpriteVertexLj4EEE19ResizeSTLStyleArrayERS2_i
Yha:__ZN9ShaderLab21SerializedShaderState8TransferI14SafeBinaryReadEEvRT_
BCf:_Environment_GetWindowsFolderPath_m1738399646
Zyc:_cf2_stack_pushInt
nA:__ZN8Animator19FireAnimationEventsERNS_11AnimatorJobE
Y$d:_Module_GetCustomAttributes_m76573271
Gfd:_CryptoConfig_EncodeOID_m2635914623
Hka:__ZN15SerializeTraitsINSt3__24pairIN4core12basic_stringIcNS2_20StringStorageDefaultIcEEEES6_EEE8TransferI24GenerateTypeTreeTransferEEvRS7_RT_
KHj:b89
JHj:b88
jHj:b81
iHj:b80
kFa:__ZN7ApiGLES19CreateSparseTextureEjj14GraphicsFormatiiiiRiS1_S1_
p0:__ZN18ResourceImageGroup7CleanupEv
CHj:b85
BHj:b84
EHj:b87
DHj:b86
EKe:_RemotingSurrogateSelector_GetSurrogate_m3900875713
X9d:_CertificateValidationCallback_Invoke_m1014111289
QYa:__ZN8Playable19SetOutputConnectionEPS_i
EMi:__ZN15dense_hashtableINSt3__24pairIK10KeyWrapperIPK11Il2CppClassEPKcEES6_N6il2cpp5utils11PointerHashIS3_EEN14dense_hash_mapIS6_S9_SE_NS6_14EqualsComparerINS0_8equal_toIS5_EEEENS0_9allocatorISA_EEE9SelectKeyESJ_SL_EC2ERKSO_j
Wl:_glDeleteShader
JAa:__ZN6prcoreL17RemapGenericFloatI15TexFormatRGHalf16TexFormatRGFloatEEvPKNS_9InnerInfoE
I0h:_Array_Sort_TisUICharInfo_t75501106_m128665067_gshared
qBc:_otv_GSUB_validate
ujf:_RSAPKCS1SignatureDeformatter_SetHashAlgorithm_m1602190713
DBf:_Enum_System_IConvertible_ToByte_m1219166845
MCe:_Dictionary_2_CopyToCheck_m45332585_gshared
bdc:__Z27scripting_add_internal_callPKcPKv
a2i:__ZN13Il2CppHashMapINSt3__24pairIPK9EventInfoP11Il2CppClassEEj17ReflectionMapHashIS7_ENS0_8equal_toIS7_EENS0_9allocatorINS1_IK10KeyWrapperIS7_EjEEEEEC2EjRKS9_RKSB_
Ndj:__GLOBAL__sub_I_GarbageCollector_cpp
zog:_Input_get_inputString_m1307069105
Cxe:_Enumerator_MoveNext_m1556953412_AdjustorThunk
jt:__ZN26AnimatorControllerPlayable18SetLayerAutoWeightEv
mSc:__Z44Register_UnityEngine_Canvas_get_pixelPerfectv
sti:_Literal_GetAnchorInfo_m810577400
yPc:__ZN2UI14CanvasRenderer12SyncMaterialENS0_8SyncFlagE
XMd:_StreamWriter_Write_m1660535366
trj:__ZN6il2cpp2vm9Parameter30GetDefaultParameterValueObjectEPK10MethodInfoPK13ParameterInfoPb
I8f:_UTF8Encoding_GetByteCount_m4152118078
u5e:_KeyPairPersistence__CanSecure_m3516574278
CJg:__Z95RuntimeInvoker_Void_t1185182177_RuntimeObject_RuntimeObject_Int32_t2950945753_SByte_t1669577662PFvvEPK10MethodInfoPvPS4_
eid:_MD5CryptoServiceProvider_Dispose_m3502499818
_eh:_Collection_1_System_Collections_IList_get_Item_m2422562729_gshared
zDc:_UNITY_tt_face_done_kern
rab:__ZN12BoneWeights48TransferI24GenerateTypeTreeTransferEEvRT_
pGb:__Z19scripting_gc_enablev
mre:_InternalEnumerator_1_get_Current_m2907722321_gshared
rKb:__ZZ23InitPlayerLoopCallbacksvEN41InitializationPlayerUpdateTimeRegistrator7ForwardEv
Ncc:__ZN11UTF16StringC2ERKS_10MemLabelId
xse:_InternalEnumerator_1_get_Current_m3792939945_AdjustorThunk
nRc:__Z55Register_UnityEngine_CanvasRenderer_DisableRectClippingv
S9a:__ZN14SafeBinaryRead21TransferSTLStyleArrayI13dynamic_arrayI11ColorRGBA32Lj4EEEEvRT_17TransferMetaFlags
tub:__ZL26Transfer_SimpleNativeClassI24GenerateTypeTreeTransfer8GradientLb0EEvRK29SerializationCommandArgumentsR31RuntimeSerializationCommandInfo
bme:_InternalEnumerator_1_System_Collections_IEnumerator_get_Current_m888718134_gshared
wFg:__Z175RuntimeInvoker_Void_t1185182177_SByte_t1669577662_SByte_t1669577662_SByte_t1669577662_SByte_t1669577662_SByte_t1669577662_SByte_t1669577662_SByte_t1669577662_SByte_t1669577662PFvvEPK10MethodInfoPvPS4_
zrg:_Object_Destroy_m3118546832
xuf:_DateTime_FromTicks_m4059645178_AdjustorThunk
K2h:_Array_InternalArray__get_Item_TisClientCertificateType_t1004704908_m2297379651_gshared
dGe:_ConfigHandler_ParseTime_m1787834288
Hma:__ZN9ShaderLab7Program27CreateFromSerializedProgramERKNS_17SerializedProgramE10ShaderTypeiP16PropertyNamesSetPK6Shader
eTd:_Assembly_Load_m3487507613
hXa:__ZNSt3__27__sort4IRNS_6__lessIN4core12basic_stringIcNS2_20StringStorageDefaultIcEEEES6_EEPS6_EEjT0_SA_SA_SA_T_
fBj:dynCall_viiiifii
E0i:__ZN6il2cpp2gc19AppendOnlyGCHashMapINSt3__24pairIPK11Il2CppImageP11Il2CppClassEEP22Il2CppReflectionModule17ReflectionMapHashIS9_ENS2_8equal_toIS9_EEEC2Ev
OY:__Z20GetPersistentManagerv
PGc:_UNITY_TT_Set_Var_Design
l8:__ZN21SystemInfoStringCache16StaticInitializeEPv
j5h:_ReadOnlyCollection_1_System_Collections_Generic_ICollectionU3CTU3E_Remove_m1100818788_gshared
aja:__ZNSt3__26vectorIN9ShaderLab20SerializedSubProgram15StructParameterENS_9allocatorIS3_EEE6assignIPS3_EENS_9enable_ifIXaasr21__is_forward_iteratorIT_EE5valuesr16is_constructibleIS3_NS_15iterator_traitsISA_E9referenceEEE5valueEvE4typeESA_SA_
Kjh:_Collection_1_IsSynchronized_m2291009199_gshared
EDb:__ZNK13MonoBehaviour7GetNameEv
Eib:__ZN19ScriptingInvocation28AdjustArgumentsToMatchMethodEv
Dii:_IndexedSet_1_Contains_m1525966688_gshared
xG:__Z15_CheckFMODError11FMOD_RESULTPKciS1_
c7i:__ZN6il2cpp6icalls8mscorlib6SystemL16ThrowInvalidCastEPK11Il2CppClassS5_
SVa:__Z20RenderMultipleMeshesRK15RenderNodeQueueRK18RenderMultipleData17ShaderChannelMask
WWc:__ZN11UnityEngine15PlatformWrapper20GetPlayerPrefsStringERKN4core12basic_stringIcNS1_20StringStorageDefaultIcEEEES5_
DUe:_MaskableGraphic_get_maskable_m1260382606
j6f:_Latin1Encoding__ctor_m498920120
sXi:__ZN6il2cpp2vm4Type19GetGenericParameterEPK10Il2CppType
vMd:_StreamReader_Peek_m2272511193
rvf:_DateTimeFormatInfo_FillAllDateTimePatterns_m2683124783
PQc:__Z51Register_UnityEngine_CanvasGroup_get_blocksRaycastsv
vRd:_NumberFormatter_get_IsFloatingSource_m3714711779
Jdg:_Type_GetConstructor_m1195697116
sd:_glBeginQuery
Kph:__ZL104RegionInfo_t1090270226_CustomAttributesCacheGenerator_RegionInfo_t1090270226____DisplayName_PropertyInfoP21CustomAttributesCache
jHi:_Canvas_get_scaleFactor_m3314757802
SLb:__ZN6Camera12RenderStereoENS_10RenderFlagE8CullFlagPNS_24PerformEyeRenderFunctionE
Hlb:__ZN20LocalFileSystemPosix10ToAbsoluteEPKc
HVa:__ZN20TierGraphicsSettings8TransferI19StreamedBinaryWriteILb0EEEEvRT_
GKj:b111
S7:__GLOBAL__sub_I_runtime_input_0_cpp
wkj:__ZN6il2cpp2vm13ComObjectBase16DisconnectObjectEj
Bm:f0
Fwj:_getcwd
EKa:__ZN25ThreadsafeLinearAllocatorD2Ev
Sgb:__Z21SendMessageToEveryoneRK17MessageIdentifier11MessageData
Eca:__ZN21BillboardBatchManager16StaticInitializeEPv
otf:_DateTime_AbsoluteDays_m4235097773
y9:__ZN12_GLOBAL__N_138ArchiveRedirectFileSystemStaticDestroyEPv
IAg:__Z74RuntimeInvoker_RuntimeObject_RuntimeObject_RuntimeObject_SByte_t1669577662PFvvEPK10MethodInfoPvPS4_
O7c:_DefaultControls_CreateScrollView_m3842770629
O1a:__ZN12CubemapArray34UpdateFileTextureUploadInstructionEP26FileAssetUploadInstructionj
jFa:__Z23CreateSparseTextureGLES9TextureIDii14GraphicsFormati
YBc:_otv_Anchor_validate
zGf:_Guid_CompareTo_m243656946_AdjustorThunk
kDf:_CCMath_mod_m3631663509
lcg:_TimeSpan_Negate_m1889505500_AdjustorThunk
G8h:_ReadOnlyCollection_1_System_Collections_ICollection_CopyTo_m2715087453_gshared
wKc:__ZNSt3__23mapIN20TextRenderingPrivate7FontRefEP11FT_FaceRec_NS_4lessIS2_EENS_9allocatorINS_4pairIKS2_S4_EEEEEixERS9_
XMa:__ZN17ArchiveFileSystem10AddStorageEP20ArchiveStorageReader
x3i:_il2cpp_class_get_assemblyname
RKi:__ZN6il2cpp2vm5Class15GetEnumBaseTypeEP11Il2CppClass
Yce:_Context_set_WriteSequenceNumber_m942577065
Xd:_glVertexAttrib4fv
Pkj:__ZNK6il2cpp5utils13VmStringUtils23CaseInsensitiveComparerclERKNSt3__212basic_stringIcNS3_11char_traitsIcEENS3_9allocatorIcEEEEPKc
W4c:_CanvasScaler_SetScaleFactor_m3006968999
z$g:__Z78RuntimeInvoker_Boolean_t97287965_Navigation_t3049316579_Navigation_t3049316579PFvvEPK10MethodInfoPvPS4_
Q2a:__ZNK9Texture2D16GetNpotTexelSizeEv
rRd:_NumberFormatter_Init_m3576155222
tMa:__ZL33FileEntryInfoListToFolderContentsRKN4core12basic_stringIcNS_20StringStorageDefaultIcEEEERK19dynamic_block_arrayI13FileEntryInfoLj32EERNSt3__23setIS3_NSB_4lessIS3_EENSB_9allocatorIS3_EEEE
STe:_LayoutUtility_GetLayoutProperty_m714717302
Xuj:_Terminal_NotifyCommandHandlers_m909296863
Vpa:__ZN9GfxDevice22GetDefaultVertexBufferE26GfxDefaultVertexBufferTypej
AHf:_Array_InternalArray__ICollection_Contains_TisInt64_t3736567304_m2911357929_gshared
lfh:_Collection_1_Remove_m3022471627_gshared
Xwj:___fseeko_unlocked
$Rd:_Object_ToString_m1740002499
Pwj:_sscanf
u0c:_ExecuteEvents_GetEventChain_m2404658789
oHb:__Z17BeginSplashScreenv
V$h:_Array_Resize_TisUILineInfo_t4195266810_m3763058392_gshared
afd:_SByte_ToString_m3584531119_AdjustorThunk
yla:__ZN9ShaderLab16SerializedShader8TransferI19StreamedBinaryWriteILb0EEEEvRT_
SC:__ZN7mecanim9animation18CreateAvatarMemoryEPKNS0_14AvatarConstantERNS_6memory9AllocatorE
f6d:_ModulusRing__ctor_m2420310199
jAd:_Convert_ToDateTime_m626620011
Xxe:_Enumerator_System_Collections_IDictionaryEnumerator_get_Key_m2500634048_AdjustorThunk
EB:__ZN7mecanim8skeleton16SkeletonPoseCopyIN4math4trsXENS2_7affineXEEEvPKNS0_13SkeletonPoseTIT_EEPNS5_IT0_EE
owa:__ZN18GfxFramebufferGLES18GetFramebufferNameERK20GfxRenderTargetSetup
HWi:__ZN6il2cpp2vm14TypeNameParser12ParseVersionERKNSt3__212basic_stringIcNS2_11char_traitsIcEENS2_9allocatorIcEEEERtSB_SB_SB_
eRe:_InputField_MoveDown_m1455948167
Inc:__Z30Event_Get_Custom_PropCharacterP12Il2CppObject
rea:__ZN13PlayableGraph27SchedulePlayableDestructionERK9HPlayable
hBc:_cff_get_mm_var
lEj:_glGetFramebufferAttachmentParameteriv__wrapper
REe:_ChannelServices_GetCurrentChannelInfo_m3041604116
mXc:__Z13RegisterClassI20UnityConnectSettingsEvv
Dpb:__Z22scripting_array_length17ScriptingArrayPtr
hNd:_SynchronizedReader_Peek_m148942882
qEg:__Z95RuntimeInvoker_Void_t1185182177_RuntimeObject_Int32_t2950945753_Int32_t2950945753_RuntimeObjectPFvvEPK10MethodInfoPvPS4_
$1a:__ZN14SafeBinaryRead20TransferTypelessDataEjPvi
oN:__ZN13dynamic_arrayI12SoundChannelLj4EE9push_backERKS0_
c5:__Z19GetActiveColorSpacev
$Cc:_UNITY_tt_face_load_kern
s0d:_MonoMethodInfo_GetDeclaringType_m2924452727
BIb:__ZN13sorted_vectorINSt3__24pairIiN17InstancingBatcher12PropertyTypeEEEN10vector_mapIiS3_NS0_4lessIiEE13stl_allocatorIS4_L18MemLabelIdentifier1ELi16EEE13value_compareESA_E21sort_clear_duplicatesEv
uQc:__ZZN2UI14CanvasRenderer15InitializeClassEvEN38FunctorImpl_909kCanvasHierarchyChanged4CallEPviR11MessageData
E$:__Z6StrCmpPKcS0_
UEd:_NumberFormatter_AppendIntegerString_m2257376141
Pna:__Z21CheckGpuProgramUsable20ShaderGpuProgramType
_3b:__ZN13ProduceHelperI14Texture2DArrayLb0EE7ProduceE10MemLabelId18ObjectCreationMode
khj:__ZN6il2cpp2os9Directory20GetFileSystemEntriesERKNSt3__212basic_stringIcNS2_11char_traitsIcEENS2_9allocatorIcEEEESA_iiPi
Mmd:_Array_System_Collections_IList_Add_m1063688101
EWh:__ZL66Navigation_t3049316579_CustomAttributesCacheGenerator_m_SelectOnUpP21CustomAttributesCache
GJc:__ZN20TextRenderingPrivate19NativeTextGenerator5SetupEv
YSb:__ZNK15SharedLightData24GetFinalShadowResolutionEv
meb:__ZN12AspectRatios8TransferI18StreamedBinaryReadILb0EEEEvRT_
R7b:__ZN10GameObject14CopyPropertiesERS_
woc:__Z44Register_UnityEngine_GUIStyle_get_fixedWidthv
xIf:_Array_InternalArray__ICollection_Remove_TisLink_t544317964_m1280781374_gshared
_od:_BitConverter_DoubleWordsAreSwapped_m1474345095
r6a:__ZNK13ScreenManager12IsFullScreenEv
qud:_FixedSizeArrayListWrapper_set_Capacity_m4221053039
qxj:_rand
PEj:_emscripten_glFramebufferRenderbuffer__wrapper
Yac:__ZN13MeshScripting10CreateMeshE21ScriptingObjectOfTypeI4MeshE
zqb:__ZN14SafeBinaryRead21TransferSTLStyleArrayINSt3__26vectorI17AnimationCurveTplIfE13stl_allocatorIS4_L18MemLabelIdentifier1ELi16EEEEEEvRT_17TransferMetaFlags
Vud:_SynchronizedArrayListWrapper_Contains_m3809499313
KIf:_Array_InternalArray__ICollection_Remove_TisLabelData_t360167391_m3556246844_gshared
Ehd:_HMACSHA256__ctor_m346174875
ukg:_Color_op_Multiply_m2887457390
sVb:__Z22PrepareOptimizedPlanesPK5PlaneiPKN4math7_float4E
pV:__ZN11UnityEngine15CloudWebService17WebFileDownloaderINS0_20WebRequestRestClientENS0_23WebRequestRestHeaderMapEE10InitializeERKN4core12basic_stringIcNS5_20StringStorageDefaultIcEEEE
Cca:__ZN17UniqueIDGenerator15CreatePureIndexEv
zr:__ZN11UnityEngine9Animation28GenericAnimationBindingCache15DidReloadDomainEv
cfb:__ZNSt3__26vectorIN15ResourceManager10DependencyE13stl_allocatorIS2_L18MemLabelIdentifier52ELi16EEE6assignINS_11__wrap_iterIPS2_EEEENS_9enable_ifIXaasr21__is_forward_iteratorIT_EE5valuesr16is_constructibleIS2_NS_15iterator_traitsISC_E9referenceEEE5valueEvE4typeESC_SC_
eKi:__ZN15dense_hashtableINSt3__24pairIK10KeyWrapperIPK22Il2CppGenericParameterEP11Il2CppClassEES6_N6il2cpp5utils11PointerHashIS4_EEN14dense_hash_mapIS6_S9_SE_NS6_14EqualsComparerINS0_8equal_toIS5_EEEENS0_9allocatorISA_EEE9SelectKeyESJ_SL_E14squash_deletedEv
V_a:__ZN9ShaderLabL27GetDesiredRenderTextureDescEPK6Camera
nQf:_Array_InternalArray__Insert_TisMark_t3471605523_m2854535880_gshared
_ya:__ZN6prcoreL29inner_stretch_rgb565_bilinearEPKNS_9InnerInfoE
Slc:__Z14GUIClipTextureP9Texture2DPhiiii
lKe:_MethodReturnDictionary__cctor_m278392388
wY:__ZNK9Transform18TransformDirectionERK8Vector3f
ohe:_SslStreamBase_get_CanWrite_m1622082918
rYh:__ZL80CanvasScaler_t2767979955_CustomAttributesCacheGenerator_m_ReferencePixelsPerUnitP21CustomAttributesCache
JBc:_otv_MarkLigPos_validate
c3e:_PrimalityTests_RabinMillerTest_m1471415870
_$f:_Enumerator_MoveNext_m2114485647_gshared
wQi:__ZN15dense_hashtableINSt3__24pairIK10KeyWrapperIPK11Il2CppClassEPKcEES6_N6il2cpp5utils11PointerHashIS3_EEN14dense_hash_mapIS6_S9_SE_NS6_14EqualsComparerINS0_8equal_toIS5_EEEENS0_9allocatorISA_EEE9SelectKeyESJ_SL_E12resize_deltaEjj
$yj:__ZNK10__cxxabiv120__si_class_type_info27has_unambiguous_public_baseEPNS_19__dynamic_cast_infoEPvi
k6d:_Kernel_LeftShift_m4140742987
TSd:_Assembly_GetManifestResourceInternal_m1224391897
Kwa:__Z30AddDefaultStreamsToMeshBuffersR9GfxDeviceR11MeshBuffersj17ShaderChannelMaskS3_
h9:__ZL16GetInterfaceImpl18UnityInterfaceGUID
iLi:__ZN6il2cpp2vmL17SetupFieldOffsetsENS0_15FieldLayoutKindEP11Il2CppClassjRKNSt3__26vectorIjNS4_9allocatorIjEEEE
lkj:__ZN6il2cpp6icalls8mscorlib6System15MonoCustomAttrs27GetCustomAttributesInternalEP12Il2CppObjectP20Il2CppReflectionTypeb
Wb:invoke_viifi
kHc:_UNITY_TT_Set_MM_Blend
T7:__GLOBAL__sub_I_runtime_math_random_0_cpp
BHb:__ZN14PreloadManager35WaitForAllAsyncOperationsToCompleteEv
eI:__ZL31InitializeAudioScriptingClassesv
MMb:__Z14SortGUIByDepthP10GUIElementS0_
pC:__ZN12_GLOBAL__N_120ProcessRootMotionMixER33AnimationPlayableEvaluationOutputR35AnimationPlayableEvaluationConstantR32AnimationPlayableEvaluationInputS1_f
cvi:_UriParser__cctor_m3655686731
ITe:_LayoutRebuilder_U3Cs_RebuildersU3Em__0_m589488547
hmb:__ZNK20LocalFileSystemPosix21GetAvailableDiskSpaceEPKcRy
r8:__ZNSt3__26__treeIiNS_4lessIiEENS_9allocatorIiEEE7destroyEPNS_11__tree_nodeIiPvEE
opa:__ZNK9GfxDevice14GetWorldMatrixEv
Ouc:__ZN8JSONRead8TransferI8Vector2fEEvRT_PKc17TransferMetaFlagsb
syg:_Transform_set_parent_m786917804
p_e:_Slider_get_value_m739683640
xkb:__Z19scripting_array_new17ScriptingClassPtrjj
cN:__ZN11SoundHandle13CreateChannelEb
q4a:__ZN14SafeBinaryRead21TransferSTLStyleArrayI13dynamic_arrayI12LightmapDataLj4EEEEvRT_17TransferMetaFlags
Jja:__ZNSt3__26vectorIN9ShaderLab20SerializedSubProgram16TextureParameterENS_9allocatorIS3_EEE6assignIPS3_EENS_9enable_ifIXaasr21__is_forward_iteratorIT_EE5valuesr16is_constructibleIS3_NS_15iterator_traitsISA_E9referenceEEE5valueEvE4typeESA_SA_
ZOi:__ZN13Il2CppHashMapIN6il2cpp5utils13dynamic_arrayIPK10Il2CppTypeLj4EEEPFvvENS0_8metadata19Il2CppSignatureHashENS9_22Il2CppSignatureCompareENSt3__29allocatorINSC_4pairIK10KeyWrapperIS6_ES8_EEEEEC2EjRKSA_RKSB_
k1i:__ZN15dense_hashtableINSt3__24pairIK10KeyWrapperIPK22Il2CppGenericParameterEPK24MonoGenericParameterInfoEES6_N6il2cpp5utils11PointerHashIS4_EEN14dense_hash_mapIS6_SA_SF_NS6_14EqualsComparerINS0_8equal_toIS5_EEEENS0_9allocatorISB_EEE9SelectKeyESK_SM_E15set_deleted_keyERKSB_
_ed:_SByte_TryParse_m2431806379
y1b:__ZN6prcoreL11inner_clearILj2EEEvPhjjj
Cgd:_DSACryptoServiceProvider_get_KeySize_m786836990
Ig:_emscripten_exit_fullscreen
_Rd:_Object_MemberwiseClone_m1474068832
fgj:__ZN6il2cpp6icalls8mscorlib6System6String19InternalAllocateStrEi
Vvc:__Z29Transfer_Blittable_ArrayFieldI8JSONRead11QuaternionfEvRT_R9ArrayInfoRK23StaticTransferFieldInfo
sfc:__Z45Register_UnityEngine_Camera_get_targetDisplayv
a6b:__ZNK24RendererAnimationBinding15GenerateBindingERKN4core12basic_stringIcNS0_20StringStorageDefaultIcEEEEbRN11UnityEngine9Animation14GenericBindingE
xaf:_IPv6Address__ctor_m3704187391
fNb:__Z15GetFlareManagerv
Hz:__ZN8Animator13GetAvatarRootEv
ZNf:_Array_InternalArray__ICollection_Add_TisResourceCacheItem_t51292791_m3851804827_gshared
qvj:___toread
IFb:__ZNSt3__26vectorI10vector_mapIiiNS_4lessIiEE13stl_allocatorINS_4pairIiiEEL18MemLabelIdentifier38ELi16EEES4_IS9_LS7_38ELi16EEE26__swap_out_circular_bufferERNS_14__split_bufferIS9_RSA_EE
I5d:_BigInteger_get_Rng_m3283260184
Czj:___cxa_is_pointer_type
QE:__ZN8Animator22ScriptingStringToCRC32ERK11ICallString
rC:__ZN7mecanim9animation16EvaluateAvatarDXEPKNS0_14AvatarConstantEPKNS0_11AvatarInputEPNS0_12AvatarMemoryEPNS0_15AvatarWorkspaceEPNS0_12AvatarOutputE
q2c:_RaycastResult_ToString_m2678663776_AdjustorThunk
U2h:_Array_InternalArray__get_Item_TisKeyValuePair_2_t2530217319_m2886833132_gshared
KYe:_ScrollRect_OnEndDrag_m3202230060
Xjc:__Z34Transform_CUSTOM_SetAsFirstSiblingP12Il2CppObject
VQe:_InputField_Delete_m3471899192
cFe:_RemotingConfiguration_get_ProcessId_m2180277012
n3:__ZN17PersistentManager40GlobalToLocalSerializedFileIndexInternalERK26SerializedObjectIdentifier
iS:__ZN11UnityEngine15CloudWebService17SessionEventQueue14ParseEventDataERKN4core12basic_stringIcNS2_20StringStorageDefaultIcEEEE
Oua:__ZN13TranslateGLES4InitERK12GraphicsCaps16GfxDeviceLevelGL
EGd:_Int64_System_IConvertible_ToUInt16_m848637338_AdjustorThunk
pMf:_Array_InternalArray__IndexOf_TisLink_t544317964_m455584088_gshared
uah:_Enumerator_get_Current_m2282646120_AdjustorThunk
u8h:_ReadOnlyCollection_1_IndexOf_m2539022912_gshared
sXh:__ZL66Selectable_t3250028441_CustomAttributesCacheGenerator_m_TransitionP21CustomAttributesCache
Zrj:__ZN6il2cpp2os6Memory12AlignedAllocEjj
v$e:_Text_set_alignByGeometry_m3828822280
Jlj:__ZN6il2cpp8metadataL7CompareEPK10Il2CppTypeS3_
K7e:_HybridDictionary__ctor_m1681134385
_1:__ZN21ScalableBufferManager11GetInstanceEv
WAb:__Z18Transfer_BlittableI18StreamedBinaryReadILb0EELb1E10ColorRGBAfEvRK29SerializationCommandArgumentsR31RuntimeSerializationCommandInfo
vcg:_TimeSpan_op_LessThan_m1594498345
hdc:__ZL27GetComponentsImplementationILb0ELi0EEbR10GameObjectbRK17CompareParametersRK39GetComponentsImplementation_ReturnValue
qEb:__ZN9Scripting36IsSystemCollectionsGenericDictionaryE17ScriptingClassPtr
Mhi:_UnityEvent_1_FindMethod_Impl_m322741469_gshared
Gyg:_Enumerator_get_Current_m2591725252
T0:__ZL16ReadTypeTreeImplILb0EEbR8TypeTreeRK16TypeTreeIteratorRPKhS6_i
Phf:_Interval_Contains_m110351300_AdjustorThunk
aBd:_Convert_ToInt32_m3048308591
twf:_DateTimeOffset_Equals_m3030958070
hYa:__ZNK22BuiltinResourceManager21GetResourceInstanceIDEPKN5Unity4TypeERKN4core12basic_stringIcNS4_20StringStorageDefaultIcEEEE
Rra:__ZN9GfxDevice15BeginFrameStatsEv
Xgc:__Z42Register_UnityEngine_RectOffset_set_bottomv
duf:_DateTimeFormatInfo_GetMonthName_m2034512315
ROb:__ZN28LightProbeProxyVolumeContext8CopyFromERKS_
c9h:_ReadOnlyCollection_1_System_Collections_Generic_IListU3CTU3E_Insert_m2489506856_gshared
D6:__ZN23TransformChangeDispatch32QueueTransformChangeIfHasChangedER18TransformHierarchy
W0e:_SimpleCollator_ToDashTypeValue_m6184468
GDa:__ZN7ApiGLES18DeleteRenderbufferERj
iCa:__ZL23ProgramUniformMatrix4fvPK7ApiGLESjiihPKv
PDa:__ZN7ApiGLES13CreateTextureEjj14GraphicsFormatiiiii
fod:_Array_new_gap_m262136975
nja:__ZN9ShaderLab20SerializedSubProgram15MatrixParameter8TransferI14SafeBinaryReadEEvRT_
jdc:__ZL27GetComponentsImplementationILb0ELi1EEbR10GameObjectbRK17CompareParametersRK39GetComponentsImplementation_ReturnValue
Sdf:_X509Store__ctor_m275383717
B1e:_SimpleCollator_LastIndexOfOrdinalIgnoreCase_m2984667899
VFc:_Round_Down_To_Grid
BEa:__ZN13RenderTexture7ReleaseEv
stc:__Z18Transfer_BlittableI8JSONReadLb1EN4math12int3_storageEEvRK29SerializationCommandArgumentsR31RuntimeSerializationCommandInfo
mbb:__ZN10MeshFilter23VirtualRedirectTransferER14SafeBinaryRead
jkd:_X509CertificateEnumerator_MoveNext_m2269241175
wbb:__ZN12MeshRenderer17MainThreadCleanupEv
VKi:__ZN6il2cpp2vmL10InitLockedEP11Il2CppClassRKNS_2os12FastAutoLockE
uHa:__ZN22CreateGpuProgramOutput12CreateParamsEv
pJ:__ZN10ObjectPoolIN4FMOD7ChannelENS0_8ChannelIEE7GetFreeEi
Fme:_InternalEnumerator_1_System_Collections_IEnumerator_get_Current_m548105685_gshared
Eua:__ZNK14GfxContextGLES13GetDefaultFBOEv
wqd:_Byte_System_IConvertible_ToType_m2251112646
lTg:__Z81RuntimeInvoker_Char_t3634460470_RuntimeObject_Int32_t2950945753_Int16_t2552820387PFvvEPK10MethodInfoPvPS4_
Cuf:_DateTime_get_Hour_m4153505178_AdjustorThunk
UAi:_AudioExtensionManager_WriteExtensionProperties_m3028464154
Zmf:_Evidence_Equals_m1478353107
$9b:__Z13GetImagePixelI10ColorRGBAfET_PKhii13TextureFormat15TextureWrapModeS5_ii
N3g:_List_1_System_Collections_IList_set_Item_m1842844683_gshared
Kji:_ObjectPool_1__ctor_m2535233435_gshared
A6i:__ZN6il2cpp2vm6Thread49CheckCurrentThreadForInterruptAndThrowIfNecessaryEv
NEf:_CultureInfo_construct_datetime_format_m1928121315
k5:__ZNSt3__23mapIN9ShaderLab16FastPropertyNameEN18UnityPropertySheet11UnityTexEnvENS_4lessIS2_EENS_9allocatorINS_4pairIKS2_S4_EEEEEixERS9_
JCa:__ZNK13TranslateGLES25GetTextureTargetDimensionEj
B6h:_ReadOnlyCollection_1_System_Collections_IList_Remove_m1842121503_gshared
sJd:_File_OpenRead_m2936789020
njc:__Z47Texture2D_CUSTOM_INTERNAL_CALL_GetPixelBilinearP12Il2CppObjectffR10ColorRGBAf
Pyd:_Enumerator_get_Entry_m3561948123
XQg:__Z94RuntimeInvoker_Void_t1185182177_RuntimeObject_PlayableGraph_t3515989261_RuntimeObject_IntPtr_tPFvvEPK10MethodInfoPvPS4_
Ji:_emscripten_glVertexAttrib4f
kna:__ZNSt3__26vectorIN20GpuProgramParameters14ConstantBufferENS_9allocatorIS2_EEE8__appendEj
Aef:_X509CertificateCollection_AddRange_m3683116910
lFe:_SinkProviderData__ctor_m1624738837
HSg:__Z88RuntimeInvoker_RuntimeObject_RuntimeObject_SByte_t1669577662_RuntimeObject_RuntimeObjectPFvvEPK10MethodInfoPvPS4_
uUd:_CustomAttributeTypedArgument_Equals_m2261980307
Gx:__ZN7mecanim12statemachine24CreateStateMachineMemoryEPKNS0_20StateMachineConstantERNS_6memory9AllocatorE
Wra:__ZN9GfxDevice18SetGlobalDepthBiasEff
dTi:__ZN6il2cpp6icalls8mscorlib6System8MonoType12get_AssemblyEP20Il2CppReflectionType
so:FUNCTION_TABLE_vi
Xi:_emscripten_glGetPointerv
N1h:_Dictionary_2_Do_CopyTo_TisKeyValuePair_2_t3842366416_TisRuntimeObject_m1564656153_gshared
eC:__ZN8Animator22ApplyBuiltinRootMotionEv
cHb:__Z26ApplyMaterialPassWithCacheRK18SharedMaterialDataR17ShaderPassContextP6ShaderPN9ShaderLab4PassEibPKNS6_10GrabPassesEPNS6_11SubProgramsEPK22DeviceRenderStateBlock
YQd:_MulticastDelegate_KPM_m22863605
lqe:_InternalEnumerator_1_get_Current_m1897120917_AdjustorThunk
wQd:_MonoType_ReorderParamArrayArguments_m2458683451
SMe:_FormatterConverter_ToInt16_m4282804414
HIg:__Z81RuntimeInvoker_Void_t1185182177_Int64_t3736567304_RuntimeObject_Int64_t3736567304PFvvEPK10MethodInfoPvPS4_
W2c:_StandaloneInputModule_ProcessTouchPress_m4019232747
nJd:_FileStream__ctor_m3151488352
eod:_Array_swap_m547389985
A3:__ZN8Renderer23VirtualRedirectTransferER14SafeBinaryRead
Vfg:_UInt32_ToString_m2420423038
L0g:_List_1_System_Collections_IList_Add_m634558835_gshared
RJd:_FileStream_get_Length_m426703983
dLi:__ZN6il2cpp2vmL15GetBitmapNoInitEP11Il2CppClassPjRjj
MH:__ZN12AudioManager5ResetEv
m8b:__ZN15DirectorManager18ScheduleGraphStartERK14HPlayableGraph
MB:__ZN7mecanim5human14RetargetToTDoFEPKNS0_5HumanEPNS0_9HumanPoseEPNS_8skeleton13SkeletonPoseTIN4math4trsXEEESB_
oij:__ZN6il2cpp6icalls8mscorlib6System11Environment20GetWindowsFolderPathEi
uw:__ZN7mecanim5human18HumanPoseBlendNodeERNS0_9HumanPoseEPS1_f
cAc:_UNITY_FT_RoundFix
Xoj:_GC_is_heap_ptr
N3e:_ASN1_DecodeTLV_m1200977460
rng:_UnityEventBase_PrepareInvoke_m1785382128
g9h:_ReadOnlyCollection_1_System_Collections_Generic_IListU3CTU3E_set_Item_m1584697503_gshared
ybb:__ZNK12MeshRenderer22GetTypeVirtualInternalEv
gsd:_Char_System_IConvertible_ToUInt32_m3901815580
PWe:_Scrollbar_set_onValueChanged_m346467699
fLg:__Z157RuntimeInvoker_Int32_t2950945753_RuntimeObject_Int32_t2950945753_Int32_t2950945753_Int32_t2950945753_SByte_t1669577662_SByte_t1669577662_Int32U26_t1369213839PFvvEPK10MethodInfoPvPS4_
sK:__ZN4FMOD6System17setSoftwareFormatEi17FMOD_SOUND_FORMATii18FMOD_DSP_RESAMPLER
Qha:__ZN14SafeBinaryRead19TransferSTLStyleMapINSt3__23mapIN4core12basic_stringIcNS3_20StringStorageDefaultIcEEEES7_NS1_4lessIS7_EE13stl_allocatorINS1_4pairIKS7_S7_EEL18MemLabelIdentifier1ELi16EEEEEEvRT_17TransferMetaFlags
aPc:__ZN2UI6Canvas27UpdateEventIndexesRecursiveERi
oS:__ZN11UnityEngine15CloudWebService16SessionContainer21PrepareDataErrorEventERN4core12basic_stringIcNS2_20StringStorageDefaultIcEEEE
i0c:_ExecuteEvents_get_pointerUpHandler_m3515704212
btd:_ArrayList_set_Item_m2003485935
j4d:_SatelliteContractVersionAttribute__ctor_m3630863995
b2c:_MouseButtonEventData_PressedThisFrame_m1060658845
cxb:__Z19TransferField_ArrayI19StreamedBinaryWriteILb0EE27Converter_SimpleNativeClassI8GUIStyleEEvRK23StaticTransferFieldInfoR31RuntimeSerializationCommandInfoRT0_
CMb:__Z27SetClippingPlaneShaderPropsR9GfxDevice
U6h:_ReadOnlyCollection_1_System_Collections_Generic_IListU3CTU3E_RemoveAt_m3969985996_gshared
$Gj:_emscripten_glCopyTexSubImage2D__wrapper
cbd:_GraphicRegistry_GetGraphicsForCanvas_m4219276355
TEd:_NumberFormatter_FastToDecHex_m699829267
Rpi:_PatternCompiler_MakeFlags_m1977119795
gtc:__Z35Transfer_Blittable_FixedBufferFieldI8JSONReadiEvRK29SerializationCommandArgumentsR31RuntimeSerializationCommandInfo
Wla:__ZN15SerializeTraitsIN9ShaderLab16FastPropertyNameEE8TransferI19StreamedBinaryWriteILb0EEEEvRS1_RT_
gSi:__ZNSt3__213__vector_baseIN6il2cpp2os19SocketHandleWrapperENS_9allocatorIS3_EEED2Ev
wnh:__ZL48_Type_t3588564251_CustomAttributesCacheGeneratorP21CustomAttributesCache
dc:invoke_viiffi
FGd:_Int64_System_IConvertible_ToUInt32_m109903525
Yoc:__ZN5Unity9rapidjson13GenericReaderINS0_4UTF8IcEES3_13JSONAllocatorE10ParseFalseILj0ENS0_19GenericStringStreamIS3_EENS0_15GenericDocumentIS3_S4_S4_EEEEvRT0_RT1_
Hpg:_Mathf_CeilToInt_m432108984
ecg:_TimeSpan_FromHours_m1109641064
lka:__Z14resize_trimmedINSt3__26vectorIN9ShaderLab18SerializedPropertyENS0_9allocatorIS3_EEEEEvRT_j
gEi:__ZL25UnresolvedVirtualCall_138P12Il2CppObject17Color_t2555686324faaPK10MethodInfo
dQi:__ZN6il2cpp2vm13MetadataCache38GetMethodInfoFromMethodDefinitionIndexEi
V_c:_EventSystem_set_current_m38955169
Soi:_CostDelegate_EndInvoke_m2797921932
i7a:__ZN10VertexData8TransferI24GenerateTypeTreeTransferEEvRT_
eBf:_Double_IsInfinity_m820013146
Kij:__ZN13Il2CppHashMapIPK19Il2CppGenericMethodP10MethodInfoN6il2cpp8metadata23Il2CppGenericMethodHashENS6_26Il2CppGenericMethodCompareENSt3__29allocatorINS9_4pairIK10KeyWrapperIS2_ES4_EEEEEC2EjRKS7_RKS8_
lwg:_Screen_get_dpi_m495672463
H8f:_UTF8Encoding_InternalGetByteCount_m2120178851
OUb:__ZL10CullLightsRK22SceneCullingParametersR11CullResults
ECd:_Convert_ToUInt64_m3170916409
Bx:__ZN7mecanim12statemachine20GetBlendTreeConstantERKNS0_13StateConstantEi
sGd:_Int64_System_IConvertible_ToInt16_m4062196970_AdjustorThunk
SQd:_MonoType_GetGenericTypeDefinition_m3201894896
t1b:__Z40GetTemporaryCachePathApplicationSpecificv
aqa:__ZN9GfxDevice16EndAsyncJobFrameEv
pUg:__Z99RuntimeInvoker_Int32_t2950945753_Ray_t3785851493_RuntimeObject_Single_t1397266774_Int32_t2950945753PFvvEPK10MethodInfoPvPS4_
UCc:_UNITY_tt_face_load_hhea
gWd:_DerivedType_get_Assembly_m2979298667
Tk:___syscall3
Wk:___syscall6
Yk:___syscall4
nT:__ZN11UnityEngine15CloudWebService20WebRequestRestClient17GetResponseStatusEv
GKe:_ReturnMessage__ctor_m2352989078
iGg:__Z99RuntimeInvoker_Void_t1185182177_RuntimeObject_Int32_t2950945753_SByte_t1669577662_SByte_t1669577662PFvvEPK10MethodInfoPvPS4_
cnb:__ZNSt3__26__treeINS_12__value_typeIN4core12basic_stringIcNS2_20StringStorageDefaultIcEEEEPN16MemoryFileSystem4NodeEEENS_19__map_value_compareIS6_SA_NS_4lessIS6_EELb1EEE13stl_allocatorISA_L18MemLabelIdentifier55ELi16EEE7destroyEPNS_11__tree_nodeISA_PvEE
zej:__ZN6il2cpp2vm3RCW14QueryInterfaceILb1EEEP14Il2CppIUnknownP15Il2CppComObjectRK10Il2CppGuid
ice:_TlsServerCertificateRequest__ctor_m1334974076
cBd:_Convert_ToInt32_m1613163543
yUe:_MatEntry__ctor_m1949610076
u6h:_ReadOnlyCollection_1_System_Collections_ICollection_CopyTo_m3127175806_gshared
ml:_emscripten_glShaderBinary
afg:_UInt16_ToString_m760649087
$lb:__ZNK20LocalFileSystemPosix6ExistsERK13FileEntryData
Xjg:_Camera_GetAllCameras_m668492922
xSc:__Z58Register_UnityEngine_Canvas_GetETC1SupportedCanvasMaterialv
ucg:_TimeSpan_op_Inequality_m2467851530
Bzb:__ZN17AnimationCurveTplIfE8TransferI18StreamedBinaryReadILb1EEEEvRT_
N0h:_Array_Sort_TisUIVertex_t4057497605_m3996333845_gshared
PUc:__ZN18UnityConnectClientD2Ev
yod:_Swapper_BeginInvoke_m1688449973
Xlg:_Display_get_renderingWidth_m1970428952
KMg:__Z81RuntimeInvoker_Void_t1185182177_RuntimeObject_Int32_t2950945753_Int64_t3736567304PFvvEPK10MethodInfoPvPS4_
R0:__ZN13dynamic_arrayIcLj1EE6insertEPcPKcS3_
jJg:__Z86RuntimeInvoker_Boolean_t97287965_Int16_t2552820387_Int16_t2552820387_Int32_t2950945753PFvvEPK10MethodInfoPvPS4_
Hii:_IndexedSet_1_IndexOf_m241693686_gshared
UTc:__ZN11UnityEngine15PlatformWrapper30GetGraphicsDriverLibraryStringEv
ded:_RuntimeMethodHandle_Equals_m3301340296_AdjustorThunk
rgg:_UInt64_System_IConvertible_ToSingle_m925613075_AdjustorThunk
XAb:__Z18Transfer_BlittableI18StreamedBinaryReadILb0EELb0E4AABBEvRK29SerializationCommandArgumentsR31RuntimeSerializationCommandInfo
hfb:__ZN24GenerateTypeTreeTransfer19TransferSTLStyleMapINSt3__28multimapIN4core12basic_stringIcNS3_20StringStorageDefaultIcEEEE4PPtrI6ObjectENS1_4lessIS7_EE13stl_allocatorINS1_4pairIKS7_SA_EEL18MemLabelIdentifier52ELi16EEEEEEvRT_17TransferMetaFlags
OD:__ZN16MecanimAnimation24DeleteAnimatedPropertiesERP26IAnimatedPropertyEvaluator
YHi:_CanvasRenderer_SetMaterial_m824577244
wLb:__Z14DrawGUITextureRK5RectTIfEP7Texture11ColorRGBA32P8Materiali
Q6h:_ReadOnlyCollection_1_System_Collections_Generic_ICollectionU3CTU3E_Add_m2686599243_gshared
RA:__ZN9BlobWrite8TransferI22OffsetPtrArrayTransferIKN4math7_float4EEEEvRT_PKc17TransferMetaFlags
jMb:__ZN22RenderingCommandBuffer20ExecuteCommandBufferER17ShaderPassContextR15RenderNodeQueuejP13dynamic_arrayINSt3__24pairIN9ShaderLab16FastPropertyNameEP13RenderTextureEELj4EE16ComputeQueueTypeSA_
Cyg:_Transform_IsChildOf_m224006092
YZa:__ZN15TextureSettings8TransferI24GenerateTypeTreeTransferEEvRT_
Rsc:__ZN9JSONWrite8TransferI4AABBEEvRT_PKc17TransferMetaFlags
uOa:__ZN25MultiBlocksMemoryFileData9SetLengthEy
I1h:_Dictionary_2_Do_ICollectionCopyTo_TisRuntimeObject_m1855083806_gshared
Hyi:_Aes__ctor_m178909601
G2a:__ZNK9Texture2D20GetRuntimeMemorySizeEv
Ikc:__ZN11Marshalling39CreateNullExceptionForUnityEngineObjectE18ScriptingObjectPtr
Xoc:__ZN5Unity9rapidjson13GenericReaderINS0_4UTF8IcEES3_13JSONAllocatorE9ParseTrueILj0ENS0_19GenericStringStreamIS3_EENS0_15GenericDocumentIS3_S4_S4_EEEEvRT0_RT1_
um:_emscripten_glUniform2iv
zxc:_UNITY_FT_Outline_Transform
wLi:__ZN6il2cpp2vm5Class10GetMethodsEP11Il2CppClassPPv
MQb:__Z30AddDefaultStreamsToMeshBuffersR9GfxDeviceR11MeshBuffersRK16DrawBuffersRange17ShaderChannelMaskS6_
UCa:__ZN7ApiGLES17DeleteFramebufferERN2gl6HandleILNS0_10ObjectTypeE9EEES3_
wGa:__ZN15UniformTFMethod13MapBoneBufferEj
XNc:__ZN2UI14CanvasRendererD2Ev
l3h:_Array_InternalArray__get_Item_TisParameterModifier_t1461694466_m29553316_gshared
KGd:_Int64_CompareTo_m1928360444_AdjustorThunk
aGb:__Z9SetupArgviPPKc
sBd:_Convert_ToInt64_m2075031821
THj:_glTexParameteri__wrapper
H1a:__ZN12CubemapArray23VirtualRedirectTransferER24GenerateTypeTreeTransfer
x1:__ZN12FileAccessor4OpenER15FileSystemEntry14FilePermission16FileAutoBehavior
jhj:__ZN6il2cpp2os9Directory6CreateERKNSt3__212basic_stringIcNS2_11char_traitsIcEENS2_9allocatorIcEEEEPi
C6:__ZN23TransformChangeDispatch32QueueTransformChangeIfHasChangedERK15TransformAccess
P0a:__ZNSt3__26vectorINS_4pairIN9ShaderLab16FastPropertyNameEN18UnityPropertySheet11UnityTexEnvEEENS_9allocatorIS6_EEE21__push_back_slow_pathIKS6_EEvRT_
PSd:_Assembly_get_FullName_m293988418
B:tempValue
Jsj:__ZN6il2cpp8metadata24Il2CppGenericContextHash4HashEPK20Il2CppGenericContext
toe:_InternalEnumerator_1_get_Current_m356936020_AdjustorThunk
lih:_Collection_1_CheckWritable_m1583234367_gshared
ZFd:_Int32_ToString_m141394615_AdjustorThunk
fud:_ArrayListWrapper_CopyTo_m498486826
MId:_Directory_GetCurrentDirectory_m219218555
Skd:_SmallXmlParser_UnexpectedEndError_m1914362401
_x:__ZN26AnimatorControllerPlayable18DeallocateBindingsEv
Lva:__ZN14DelayedDeletorI15dense_hashtableINSt3__24pairIK9TextureIDiEES3_14GfxGenericHashIS3_EN14GfxDoubleCacheIS3_iS7_NS1_8equal_toIS3_EEN31GfxDoubleCacheConcurrencyPolicy11LocklessGetE42GfxDoubleCacheDefaultEmptyDeletedGeneratorIS3_EE9SelectKeyESA_13stl_allocatorIS5_L18MemLabelIdentifier24ELi16EEEEclEv
tN:__ZN11AudioSource19CreateOpenALRolloffEfff
OCc:_UNITY_FT_Stream_ReadAt
tbg:_TimeSpan__ctor_m1896986612_AdjustorThunk
mPi:__ZN15dense_hashtableINSt3__24pairIK10KeyWrapperIN6il2cpp5utils13dynamic_arrayIPK10Il2CppTypeLj4EEEEPFvvEEESA_NS3_8metadata19Il2CppSignatureHashEN14dense_hash_mapISA_SD_SG_NSA_14EqualsComparerINSF_22Il2CppSignatureCompareEEENS0_9allocatorISE_EEE9SelectKeyESK_SM_E9set_valueEPSE_RKSE_
ojd:_ArgumentException__ctor_m1216717135
ztg:_Ray_ToString_m1732834890_AdjustorThunk
md:_glReadBuffer
D3g:_List_1_System_Collections_IList_Contains_m3860993176_gshared
hO:__ZN11AudioModule22CreateAudioClipFromWWWEP10IWWWStreamPKcbbi
n5b:__ZN9Texture2DC2E10MemLabelId18ObjectCreationMode
Si:_emscripten_glRotatef
efg:_UInt32_System_IConvertible_ToBoolean_m1763673183_AdjustorThunk
lng:_UnityEvent_AddListener_m2276267359
bQc:__Z13RegisterClassIN2UI11CanvasGroupEEvv
A1b:__ZN6prcoreL11inner_clearILj4EEEvPhjjj
of:_emscripten_glClear
poj:_GC_initialize_offsets
qea:__ZNK8Playable6HandleEv
tPe:_SetPropertyUtility_SetColor_m2229203028
bxe:_Enumerator_MoveNext_m481679286_gshared
D$:__ZN14MessageHandler28MessageIDToMessageIdentifierEi
E7a:__ZNK11SpriteAtlas20GetRuntimeRenderDataEPK6Sprite
CId:_FileSystemInfo__ctor_m3035148496
pFd:_Int32_System_IConvertible_ToDecimal_m2190376994_AdjustorThunk
pKc:__ZN20TextRenderingPrivate15DynamicFontData36GetFaceForCharacterIfAvailableInFontERKNS_7FontRefERK13dynamic_arrayI4PPtrIN13TextRendering4FontEELj4EEj
Yv:__ZN7mecanim14ValueArrayCopyILb0EEEvPKNS_10ValueArrayEPS1_
cF:__Z51Register_UnityEngine_Animator_get_hasBoundPlayablesv
Ed:emscriptenWebGLGetUniform
to:FUNCTION_TABLE_iiiiiiiiiii
Uvi:_GUI_CallWindowDelegate_m3309453386
fBc:_cff_set_mm_blend
vWb:__ZL10CleanUpJobP20CullingGroupsJobData
xId:_DirectoryInfo_get_Exists_m3142069876
nLb:__ZN13RenderManager15BatchModeUpdateEv
Pdf:_X509Chain_get_CertificateAuthorities_m804805415
O6a:__ZN14SafeBinaryRead21TransferSTLStyleArrayI13dynamic_arrayI8Vector2fLj4EEEEvRT_17TransferMetaFlags
m3:__ZN17PersistentManager51InstanceIDToLocalSerializedObjectIdentifierInternalEiR31LocalSerializedObjectIdentifier
Bvg:_Vector2_get_one_m738793577
bac:__ZNK4Mesh14GetIndexFormatEv
hd:_glVertexAttribIPointer
d7f:_StringBuilder_ToString_m3317489284
lCa:__ZN13dynamic_arrayI21ComputeShaderResourceLj4EE9push_backERKS0_
oac:__ZNK6Sprite10GetPaddingE20SpriteRenderDataMode
ZIf:_Array_InternalArray__ICollection_Remove_TisUInt32_t2560061978_m733727733_gshared
tfd:_CryptographicException__ctor_m503735289
kKd:_Stream_EndRead_m1896469262
$Ag:__Z93RuntimeInvoker_Boolean_t97287965_Int32_t2950945753_SByte_t1669577662_ExceptionU26_t3600731591PFvvEPK10MethodInfoPvPS4_
GOb:__ZN14qsort_internal5QSortIP15RODataDepthPassi17ROSorterDepthPassEEvT_S4_T0_T1_
yDc:_UNITY_ft_glyphslot_alloc_bitmap
Gfe:_RSASslSignatureDeformatter_SetHashAlgorithm_m895570787
joi:_X509CrlEntry__ctor_m4013514048
aQg:__Z87RuntimeInvoker_Color_t2555686324_Color_t2555686324_Color_t2555686324_Single_t1397266774PFvvEPK10MethodInfoPvPS4_
rIc:_ft_raster1_render
olc:__Z47Register_UnityEngine_Mesh_RecalculateBoundsImplv
nqa:__ZN9GfxDevice27UpdateComputeSkinPoseBufferEP9GfxBufferP12SkinMeshInfo
jyj:__ZNKSt3__221__basic_string_commonILb1EE20__throw_length_errorEv
aXf:_EqualityComparer_1_System_Collections_IEqualityComparer_Equals_m245992594_gshared
HMf:_Array_InternalArray__IndexOf_TisParameterModifier_t1461694466_m1227120810_gshared
VDa:__ZN18GfxFramebufferGLES13ReadbackImageER14ImageReferenceiiiiii
zpc:__ZN5Unity9rapidjson6WriterI16TempBufferWriterNS0_4UTF8IcEES4_13JSONAllocatorE11WriteStringEPKcj
idd:_SerializationInfo_SetType_m3923964808
yza:__ZN6prcoreL12RemapGenericI17TexFormatARGB888815TexFormatRGB565EEvPKNS_9InnerInfoE
ZI:__ZN4FMOD7Channel19setReverbPropertiesEPK29FMOD_REVERB_CHANNELPROPERTIES
rMd:_StreamReader_Dispose_m156389394
m_:__ZN13MonoBehaviour22GetScriptFullClassNameEv
o3b:__ZN13ProduceHelperI11MonoManagerLb0EE7ProduceE10MemLabelId18ObjectCreationMode
sif:_RIPEMD160Managed_JJ_m112143231
cOb:__ZN13BatchRendererC2ER15RenderLoopStatsRK15RenderNodeQueuebb
Vmb:__ZNK16MemoryFileSystem9EnumerateEPKcP19dynamic_block_arrayI13FileEntryInfoLj32EEbPPv19FileEnumerationFlag
_Db:__ZN13MonoBehaviour9CallAwakeEv
BYa:__ZN20SphericalHarmonicsL211AddWeightedERKS_f
bEg:__Z82RuntimeInvoker_RuntimeObject_Int64_t3736567304_Int64_t3736567304_Int64_t3736567304PFvvEPK10MethodInfoPvPS4_
htb:__Z19TransferField_ArrayI17RemapPPtrTransfer27Converter_SimpleNativeClassI8GUIStyleEEvRK23StaticTransferFieldInfoR31RuntimeSerializationCommandInfoRT0_
jqc:__ZN9JSONWrite8TransferI10ColorRGBAfEEvRT_PKc17TransferMetaFlags
x$:__Z25scripting_method_get_name18ScriptingMethodPtr
Rfe:_SslCipherSuite_ComputeKeys_m661027754
Erg:_Object_set_name_m291480324
Gyf:_Decimal_Equals_m2486655999
roj:_GC_exit_check
c1d:_MonoField_ToString_m2518484388
J4e:_DSAManaged_get_Random_m923751780
kze:_Transform_1_Invoke_m2385719192_gshared
Bzg:_Vector3_set_Item_m1772472431_AdjustorThunk
Igf:_Interpreter_PopulateGroup_m4042796257
l_b:__ZNSt3__26vectorINS_4pairIN4core12basic_stringIcNS2_20StringStorageDefaultIcEEEES6_EE13stl_allocatorIS7_L18MemLabelIdentifier38ELi16EEE6insertENS_11__wrap_iterIPKS7_EERSD_
Mng:_RenderPipelineManager_DoRenderLoop_Internal_m3799666479
IA:__ZN9BlobWrite8TransferI22OffsetPtrArrayTransferI9OffsetPtrIN7mecanim12statemachine18StateMachineMemoryEEEEEvRT_PKc17TransferMetaFlags
Efh:_Collection_1_System_Collections_IList_IndexOf_m3894953546_gshared
vmi:_PKCS12_get_Certificates_m26161562
w8e:_NameObjectCollectionBase_Init_m2525481323
Djj:__ZN6il2cpp2vm6String8NewUtf16EPKDsi
ped:_SByte_System_IConvertible_ToByte_m2268214252_AdjustorThunk
Ugj:__ZN6il2cpp2os10ThreadImpl12QueueUserAPCEPFvPvES2_
xti:_RegularExpression__ctor_m119502265
FUc:__ZN22BaseUnityConnectClient10QueueEventERN11UnityEngine15CloudWebService17CloudServiceEventEPKcjb
R6h:_ReadOnlyCollection_1_System_Collections_Generic_ICollectionU3CTU3E_Clear_m522482168_gshared
SIe:_ConstructionCall_InitMethodProperty_m2021094586
oGc:_UNITY_FT_Hypot
yYh:__ZL74CanvasScaler_t2767979955_CustomAttributesCacheGenerator_m_DefaultSpriteDPIP21CustomAttributesCache
p3i:_il2cpp_class_is_abstract
yf:_emscripten_glGetError
P0i:__ZN15dense_hashtableINSt3__24pairIK10KeyWrapperIPK14Il2CppAssemblyEPK22Il2CppMonoAssemblyNameEES6_N6il2cpp5utils11PointerHashIS4_EEN14dense_hash_mapIS6_SA_SF_NS6_14EqualsComparerINS0_8equal_toIS5_EEEENS0_9allocatorISB_EEE9SelectKeyESK_SM_E14squash_deletedEv
KJ:__Z14FMOD_FILE_SeekPvjS_
TUe:_MaskableGraphic_OnDisable_m1757789159
kZa:__ZN7TextureC2E10MemLabelId18ObjectCreationMode
ISe:_LayoutGroup__ctor_m2162961217
wXb:__ZNK13RenderTexture32CalculateNeedsInvertedProjectionEv
y0b:__ZN10systeminfo18GetOperatingSystemEv
Gf:emscriptenWebGLGet
Kaa:__Z19CanReplaceComponentRN5Unity9ComponentEPKNS_4TypeEPN4core12basic_stringIcNS5_20StringStorageDefaultIcEEEE
rOd:_UnmanagedMemoryStream_Flush_m1540584491
PCd:_GuidParser_ParseGuid2_m1914838819
g5b:__ZN12CubemapArray11InitTextureEiii13TextureFormatb
TBd:_Convert_ToSingle_m3983149863
Vie:_InternalEnumerator_1_System_Collections_IEnumerator_get_Current_m55999184_gshared
ead:_Graphic_get_depth_m815589653
wvi:_Event_set_displayIndex_m1342258734
pB:__ZN7mecanim5human13HumanFixTwistEPKNS0_5HumanEPNS_8skeleton13SkeletonPoseTIN4math4trsXEEES9_iiRKf
uRb:__ZL24AssignProjectorQueuesJobP30AssignProjectorQueuesJobHeader
P2d:_ParameterModifier_t1461694466_marshal_pinvoke
tPi:__ZN15dense_hashtableINSt3__24pairIK10KeyWrapperIN6il2cpp5utils13dynamic_arrayIPK10Il2CppTypeLj4EEEEPFvvEEESA_NS3_8metadata19Il2CppSignatureHashEN14dense_hash_mapISA_SD_SG_NSA_14EqualsComparerINSF_22Il2CppSignatureCompareEEENS0_9allocatorISE_EEE9SelectKeyESK_SM_E4swapERSP_
sna:__ZN9ShaderLab20SerializedSubProgram14SetConstBufferEPKci
CVi:__ZN6il2cpp2os4File5CloseEPNS0_10FileHandleEPi
UOi:__ZNSt3__27__sort5IRN6il2cpp5utils11collections13ArrayValueMapIPK10Il2CppType17Il2CppInteropData26InteropDataToTypeConverterNS1_8metadata14Il2CppTypeLessENSA_26Il2CppTypeEqualityComparerEE12SortComparerEPS8_EEjT0_SH_SH_SH_SH_T_
Keg:_UInt16_CompareTo_m2664746316_AdjustorThunk
bX:__Z40DebugStringToFilePostprocessedStacktraceRK21DebugStringToFileData
Xuc:__Z29Transfer_Blittable_ArrayFieldI8JSONReadjEvRT_R9ArrayInfoRK23StaticTransferFieldInfo
xoj:_GC_check_finalizer_nested
mg:__setLetterbox
FYe:_ScrollRect_OnScroll_m3861066534
ZCe:_Dictionary_2_ToTKey_m224697230_gshared
$Mh:__ZL72FormerlySerializedAsAttribute_t2859083114_CustomAttributesCacheGeneratorP21CustomAttributesCache
Qoc:__ZN8JSONRead32GetValueForKeyWithNameConversionEPKN5Unity9rapidjson12GenericValueINS1_4UTF8IcEE13JSONAllocatorEEPKc
lqi:_PatternCompiler_EmitFastRepeat_m3012952683
iab:__ZNSt3__26vectorI17BlendShapeChannelNS_9allocatorIS1_EEE6assignINS_11__wrap_iterIPS1_EEEENS_9enable_ifIXaasr21__is_forward_iteratorIT_EE5valuesr16is_constructibleIS1_NS_15iterator_traitsISA_E9referenceEEE5valueEvE4typeESA_SA_
r0b:__ZN11TimeManager11GetRealtimeEv
cK:__ZN29AudioEffectInternalDefinitionC2EP26UnityAudioEffectDefinitionb
Bbi:_ReadOnlyCollection_1_System_Collections_IList_Remove_m2434650390_gshared
bfg:_UInt16_ToString_m3056878594_AdjustorThunk
Lrj:__ZN6il2cpp2os9FastMutexD2Ev
Fhf:_Interval_get_IsSingleton_m3386290029
KXi:__ZNSt3__2plIcNS_11char_traitsIcEENS_9allocatorIcEEEENS_12basic_stringIT_T0_T1_EERKS9_PKS6_
xxg:_Time_get_unscaledDeltaTime_m4270080131
Lbb:__ZN4Mesh14GetMeshBuffersER11MeshBuffers17ShaderChannelMaskPS_b
ikf:_SHA384Managed__ctor_m3220477113
xya:_stbir_resize
ULf:_Array_IndexOf_TisCustomAttributeTypedArgument_t2723150157_m3158556463_gshared
wCf:_Environment_GetOSVersionString_m407782784
psf:_DecoderExceptionFallback_Equals_m1082173956
orh:__ZL69Assembly_t_CustomAttributesCacheGenerator_Assembly_GetName_m981771927P21CustomAttributesCache
AOa:__Z37ReadDirectoryInfo_UnityWebAndUnityRawR12FileAccessorRKN20ArchiveStorageHeader6HeaderERNS1_13DirectoryInfoE
V9:__ZNSt3__26__treeINS_12__value_typeIPKciEENS_19__map_value_compareIS3_S4_15compare_tstringIS3_ELb1EEENS_9allocatorIS4_EEE7destroyEPNS_11__tree_nodeIS4_PvEE
ZPf:_Array_InternalArray__Insert_TisIntPtr_t_m189626842_gshared
Ucf:_X509Certificate2_get_IssuerName_m1277209535
Oid:_RijndaelManaged_CreateEncryptor_m263736311
jVc:__ZN13dynamic_arrayIN4core12basic_stringIcNS0_20StringStorageDefaultIcEEEELj4EE6assignEPKS4_S7_
EOb:__ZN20DynamicPropertySheet14SetValueQueuedEN9ShaderLab16FastPropertyNameEN19ShaderPropertySheet12PropertyTypeEjNS2_8SetFlagsE
LOc:__ZN2UI6Canvas26MarkAllNestedCanvasesDirtyEv
Smg:_InvokableCallList_ClearPersistent_m1904264973
AFb:__ZN25PathNamePersistentManagerD2Ev
QY:__ZN17PersistentManager48IntegrateObjectAndUnlockIntegrationMutexInternalEi
Jga:__ZZ29InitializeSortingGroupManagerPvEN44PostLateUpdateSortingGroupsUpdateRegistrator7ForwardEv
$Rh:__ZL55EventTrigger_t1076084509_CustomAttributesCacheGeneratorP21CustomAttributesCache
Qnf:_SecurityElement_SearchForChildByTag_m900466299
mp:__ZN6Object12SetHideFlagsENS_9HideFlagsE
y4e:_CryptoConvert_FromCapiPublicKeyBlob_m4073029974
QEj:_emscripten_glGetFramebufferAttachmentParameteriv__wrapper
PLb:__ZN13RendererScene15InitializeUmbraEv
sXa:__Z28CalculateGlobalMatrixInverse23TransformAccessReadOnly
FZf:_GenericEqualityComparer_1_Equals_m3457564127_gshared
a6d:_BigInteger_ModInverse_m2426215562
lsf:_DecoderExceptionFallback__ctor_m4044614564
wOd:_LocalDataStoreSlot__cctor_m644942532
Hsj:__ZN6il2cpp6icalls8mscorlib6System6Object7GetTypeEP12Il2CppObject
T1d:_MonoProperty_CachePropertyInfo_m2968057423
pYc:__ZNK25UnityWebRequestJavaScript18GetDownloadedBytesEv
xtg:_Ray_GetPoint_m1852405345_AdjustorThunk
ZGf:_Array_get_swapper_TisColor32_t2600501292_m2310851009_gshared
hYc:__ZN12HeaderHelper14SetUnvalidatedERKN4core12basic_stringIcNS0_20StringStorageDefaultIcEEEES6_b
aG:__ZN4FMOD6SoundI7releaseEv
Tzc:_cff_parse_num
cPa:__ZN10MemoryFile9SetLengthEy
mvb:__ZN5RectTIiE8TransferI24GenerateTypeTreeTransferEEvRT_
w4a:__ZN14SafeBinaryRead21TransferSTLStyleArrayI13dynamic_arrayI7Hash128Lj8EEEEvRT_17TransferMetaFlags
CEb:__Z28scripting_class_is_interface17ScriptingClassPtr
Dh:_glTexStorage2D
Zxd:_SyncHashtable_get_Item_m2686606216
Pma:__ZNK9ShaderLab10SubProgram14EnsureCompiledEv
kZd:_MethodBuilder_GetGenericArguments_m1765425737
Wuf:_DateTime_CompareTo_m3687348273
mnj:_GC_push_marked
cwf:_DateTime_ToUniversalTime_m1945318289_AdjustorThunk
G2e:_Kernel_modInverse_m668448880
n$:__Z18BuildScriptClassId17ScriptingClassPtr
DGi:_TextGenerator_Init_m1168488231
DMa:__ZL31DeleteLastPathNameComponentImplRKN4core12basic_stringIcNS_20StringStorageDefaultIcEEEEPKc
m2b:__Z13RegisterClassI18DelayedCallManagerEvv
TUc:__ZN18UnityConnectClient15GetCloudServiceEv
vtb:__Z18Transfer_BlittableI24GenerateTypeTreeTransferLb0EiEvRK29SerializationCommandArgumentsR31RuntimeSerializationCommandInfo
sne:_InternalEnumerator_1_get_Current_m2698009637_gshared
aSi:__ZN6il2cpp2os19SocketHandleWrapperD2Ev
lAe:_Enumerator_System_Collections_IEnumerator_Reset_m278261807_gshared
vEb:__ZL28SerializationCommandGroupForRK31TransferFunctionScriptingTraits17ScriptingClassPtr17ScriptingFieldPtrRK20CoreScriptingClasses
HRa:__ZN10TagManager32RegisterDefaultTagsAndLayerMasksEv
nbg:_WaitHandle_Dispose_m738127030
fKg:__Z50RuntimeInvoker_Double_t594665363_Int32_t2950945753PFvvEPK10MethodInfoPvPS4_
MSg:__Z104RuntimeInvoker_Void_t1185182177_Color_t2555686324_Single_t1397266774_SByte_t1669577662_SByte_t1669577662PFvvEPK10MethodInfoPvPS4_
K1f:_Enumerator_System_Collections_IEnumerator_get_Current_m1540440674_gshared
Lof:_Single_System_IConvertible_ToInt16_m809233024_AdjustorThunk
wwj:_fmodf
ROe:_InputField_UpdateLabel_m1837760870
Nua:__ZN4gles8InitCapsEP7ApiGLESP12GraphicsCapsR16GfxDeviceLevelGL
Rya:__ZN6prcore14BlitImageFloatERK14ImageReferenceRS0_NS0_8BlitModeE
XUa:__Z24CalculateVertexLightDataRK15SharedLightDataR14GfxVertexLight
li:_glEnable
Mma:__ZNK9ShaderLab7Program28BeginReadUnsupportedVariantsEv
o6:__ZN12CachedWriter11Align4WriteEv
Qfb:__ZNSt3__26vectorIN30RuntimeInitializeOnLoadManager9ClassInfoE13stl_allocatorIS2_L18MemLabelIdentifier13ELi16EEE7reserveEj
wqc:__Z35Transfer_Blittable_FixedBufferFieldI9JSONWriteiEvRK29SerializationCommandArgumentsR31RuntimeSerializationCommandInfo
VZf:_Enumerator__ctor_m1590062855_AdjustorThunk
N1i:__ZN14dense_hash_mapI10KeyWrapperINSt3__24pairIPK10MethodInfoP11Il2CppClassEEEj17ReflectionMapHashIS8_ENS9_14EqualsComparerINS1_8equal_toIS8_EEEENS1_9allocatorINS2_IKS9_jEEEEEC2EjRKSB_RKSF_
Sx:__ZN26AnimatorControllerPlayable17ProcessRootMotionEP35AnimationPlayableEvaluationConstantP32AnimationPlayableEvaluationInputP33AnimationPlayableEvaluationOutput
XNd:_UnexceptionalStreamReader_Peek_m1842169584
uTc:__ZN11UnityEngine7Connect15DeviceInfoEvent16CollectExtraInfoEv
ajg:_Bounds_GetHashCode_m1844059663_AdjustorThunk
Kfd:_CryptographicException__ctor_m1422015889
_zg:_Vector4_Equals_m1779210055_AdjustorThunk
FCd:_Convert_ChangeType_m739676612
nlj:__ZThn8_N6il2cpp2vm13CachedCCWBaseINS0_13ManagedObjectEE6AddRefEv
R9d:_Alert_GetAlertMessage_m1942367141
KGe:_RemotingServices_GetRealProxy_m2081098851
p4e:_BlockProcessor_Core_m189015002
YEj:_emscripten_glScissor__wrapper
yo:FUNCTION_TABLE_viifi
zo:FUNCTION_TABLE_viiff
vjd:_X501__cctor_m1166912714
aVe:_MaskUtilities_GetRectMasksForClip_m532898711
FGc:_UNITY_tt_face_free_hdmx
Cjg:_Bounds_ToString_m4208690781
qWi:__ZN6il2cpp2vm14TypeNameParser5ParseEb
NOd:_Math_Sqrt_m1297338011
KMd:_StreamWriter_Initialize_m3490883444
Mdg:_Type_GetGenericArguments_m3500465462
kXc:__ZN23UnityPurchasingSettingsC2Ev
$$d:_Module_IsDefined_m2423524910
KVd:_DerivedType_create_unmanaged_type_m747846525
PPh:__ZL60EventType_t3528516131_CustomAttributesCacheGenerator_repaintP21CustomAttributesCache
MTa:__ZN17GPUFenceInternals7ReleaseEv
rXh:__ZL66Selectable_t3250028441_CustomAttributesCacheGenerator_m_NavigationP21CustomAttributesCache
xXb:__ZL10RenderFaceR9GfxDeviceR18MaterialStateCacheP13RenderTextureiif
TLf:_Array_IndexOf_TisCustomAttributeNamedArgument_t287865710_m2817957199_gshared
yja:__ZN15SerializeTraitsI13dynamic_arrayIN9ShaderLab21SerializedBindChannelELj4EEE19ResizeSTLStyleArrayERS3_i
Bbj:__ZNK24NamespaceAndNamePairHashclERKNSt3__24pairIPKcS3_EE
Kli:_ExtendedKeyUsageExtension_ToString_m2116504780
Jib:__ZNK5Unity9Component38MarkGameObjectAndComponentDependenciesER27GarbageCollectorThreadState
aId:_BinaryReader_Read_m3708759962
EYc:__ZN20UnityWebRequestProtoI24UnityWebRequestTransport16AtomicRefCounter14RedirectHelper14ResponseHelper15DownloadHandler13UploadHandler12HeaderHelper14AsyncOperationED0Ev
sua:__ZN9GfxDevice26CreateDefaultVertexBuffersEv
pGj:_emscripten_glVertexAttrib2fv__wrapper
jNd:_SynchronizedReader_ReadToEnd_m2160105378
TAf:_Double_System_IConvertible_ToUInt16_m4132603953_AdjustorThunk
Lxa:__ZN4crnd12symbol_codec32decode_receive_static_data_modelERNS_25static_huffman_data_modelE
P0b:__ZN18ScriptingArguments8AddFloatEf
Kxg:_TouchScreenKeyboard_Open_m3325559252
jcd:_Image_set_fillOrigin_m469806249
kTc:__ZN11UnityEngine15PlatformWrapper16GetVRRenderScaleEv
wrc:__Z18Transfer_BlittableI9JSONWriteLb0EaEvRK29SerializationCommandArgumentsR31RuntimeSerializationCommandInfo
KR:__ZN11UnityEngine15CloudWebService14DataDispatcher34OnSessionContainerArchivedAndReadyERNS0_16SessionContainerE
grg:_ConnectionChangeEvent__ctor_m764126802
i3d:_ResolveEventHandler_Invoke_m1337322179
C0f:_Enumerator_VerifyState_m2621680056_gshared
sui:_UriParser_InternalRegister_m3643767086
Wha:__ZN14SafeBinaryRead19TransferSTLStyleMapINSt3__23mapIN4core12basic_stringIcNS3_20StringStorageDefaultIcEEEEiNS1_4lessIS7_EENS1_9allocatorINS1_4pairIKS7_iEEEEEEEEvRT_17TransferMetaFlags
REc:_gray_move_to
$wf:_DBNull_System_IConvertible_ToSingle_m13713620
W5h:_ReadOnlyCollection_1_System_Collections_IList_Contains_m1327645028_gshared
wcd:_Image_GetDrawingDimensions_m3060965396
oNh:__ZL69FontTextureRebuildCallback_t2467502454_CustomAttributesCacheGeneratorP21CustomAttributesCache
deg:_TypeLoadException__ctor_m1154572625
Zdc:__Z30RegisterValidateMethodCallbackiPF18ScriptingMethodPtrS_17ScriptingClassPtrP6ObjectEPKc
Xce:_Context_get_WriteSequenceNumber_m1115956887
V1h:_Dictionary_2_Do_ICollectionCopyTo_TisKeyValuePair_2_t2401056908_m1169495264_gshared
WZd:_OpCodes__cctor_m3821715395
j6c:_ContentSizeFitter__ctor_m2349275633
cEc:_tt_cmap_init
Ovc:__ZN8JSONRead8TransferI9BoundsIntEEvRT_PKc17TransferMetaFlagsb
Ia:invoke_viidi
w0h:_Array_Sort_TisOrderBlock_t1585977831_m2922111197_gshared
X9c:_Graphic_OnRectTransformDimensionsChange_m3695755375
red:_SByte_System_IConvertible_ToChar_m1489191771_AdjustorThunk
DI:__ZN9AudioClip7CleanupEv
X5i:__ZNK15dense_hashtableINSt3__24pairIK10KeyWrapperIP11Il2CppClassES4_EES5_N6il2cpp8metadata16SZArrayClassHashEN14dense_hash_mapIS5_S4_SA_NS5_14EqualsComparerINS9_19SZArrayClassCompareEEENS0_9allocatorIS7_EEE9SelectKeyESE_SG_E12test_deletedEj
puc:__Z18Transfer_BlittableI8JSONReadLb0EdEvRK29SerializationCommandArgumentsR31RuntimeSerializationCommandInfo
ZHe:_SynchronizationAttribute_EnterContext_m1660729920
lHi:_Canvas_get_referencePixelsPerUnit_m3420541976
Avi:_Event_get_current_m2393892120
Jzi:_VertexHelper_Clear_m627349662
tSi:__ZN6il2cpp2vm21ThreadPoolCompartment13QueueWorkItemEP17Il2CppAsyncResult
ppa:__ZNK9GfxDevice13GetViewMatrixEv
sOd:_UnmanagedMemoryStream_Dispose_m2681886347
Jhb:__ZN17RemapPPtrTransferC2E24TransferInstructionFlagsb
zAd:_Convert_ToDecimal_m889385228
L0:__ZN8TypeTree8BlobReadERPKhS1_ib
Ynd:_Array_Reverse_m3714848183
r8c:_Dropdown_ClearOptions_m4085591601
w5c:_CanvasUpdateRegistry_InternalRegisterCanvasElementForGraphicRebuild_m3522560454
lgb:__ZN18LoadSceneOperation23GetAllowSceneActivationEv
fSa:__ZN6CameraD0Ev
vfa:__ZN31CanvasBatchIntermediateRenderer16StaticInitializeEPv
ix:__ZN7mecanim12AndValueMaskILb0EEEvPKNS_14ValueArrayMaskEPS1_
Efb:__ZN14SafeBinaryRead21TransferSTLStyleArrayINSt3__26vectorIi13stl_allocatorIiL18MemLabelIdentifier13ELi16EEEEEEvRT_17TransferMetaFlags
l5f:_EncoderFallback__cctor_m3806755293
OKc:_raccess_guess_apple_double
QBa:__ZL18ProgramUniform1uivPK7ApiGLESjiihPKv
q5b:__ZN14Texture2DArray13RebuildMipMapEv
sMi:__ZN13Il2CppHashSetIPK17Il2CppGenericInstN6il2cpp8metadata21Il2CppGenericInstHashENS4_24Il2CppGenericInstCompareENSt3__29allocatorI10KeyWrapperIS2_EEEEC2EjRKS5_RKS6_
Sob:__Z18Transfer_BlittableI14SafeBinaryReadLb1EaEvRK29SerializationCommandArgumentsR31RuntimeSerializationCommandInfo
$hj:__ZN6il2cpp2gc16GarbageCollector14RemoveWeakLinkEPPv
tna:__ZN9ShaderLab20SerializedSubProgram14AddVectorParamEPKcii15ShaderParamTypei
d3g:_List_1_GetEnumerator_m563931292_gshared
fzd:_Enumerator__ctor_m3362421874
hRg:__Z117RuntimeInvoker_CSSSize_t3377836552_IntPtr_t_Single_t1397266774_Int32_t2950945753_Single_t1397266774_Int32_t2950945753PFvvEPK10MethodInfoPvPS4_
sKj:_emscripten_glIsFramebuffer__wrapper
$ej:__ZN6il2cpp2vm6Object3BoxEP11Il2CppClassPv
L6i:__ZN6il2cpp2vm6Thread7SetNameEP12Il2CppThreadP12Il2CppString
IGb:__ZN13ScreenManager18SetAllowCursorLockEb
cT:__ZN11UnityEngine15CloudWebService10RestClientINS0_23WebRequestRestHeaderMapEE16SetRequestHeaderERKN4core12basic_stringIcNS4_20StringStorageDefaultIcEEEESA_
Jfb:__ZN30RuntimeInitializeOnLoadManager15ClassMethodInfo8TransferI14SafeBinaryReadEEvRT_
KIe:_ConstructionCall_InitDictionary_m2824447813
zP:__ZL22InitializeModule_Audiov
Imb:__ZN16MemoryFileSystem8IsLockedERK13FileEntryData
s8i:__ZN6il2cpp6icalls8mscorlib6System2IO6MonoIO5WriteEiP11Il2CppArrayiiPi
Rpg:_Mathf_InverseLerp_m4155825980
sHg:__Z92RuntimeInvoker_RuntimeObject_RuntimeObject_RuntimeObject_SByte_t1669577662_SByte_t1669577662PFvvEPK10MethodInfoPvPS4_
Zk:_emscripten_glBindRenderbuffer
O0g:_List_1_System_Collections_IList_Insert_m1011775503_gshared
moj:_GC_dirty_init
ucj:__ZN6il2cpp2vm5Image33GetCachedMemoryMappedResourceFileEP24Il2CppReflectionAssembly
Nej:__ZN6il2cpp2vm5Field14GetValueObjectEP9FieldInfoP12Il2CppObject
TPc:__ZNK2UI6Canvas16GetTargetDisplayEv
Xbg:_TimeSpan_CompareTo_m3633415627_AdjustorThunk
kda:__ZN6Object17FindObjectsOfTypeEPKN5Unity4TypeER13dynamic_arrayIPS_Lj4EEb
UUe:_MaskableGraphic_OnTransformParentChanged_m329502413
UDb:__ZN13MonoBehaviour17RemoveFromManagerEv
zzg:_Vector3_get_Item_m668685504_AdjustorThunk
MSa:__ZN12ImageFilters14AddImageFilterERK11ImageFilter
WGe:_Context_NotifyDynamicSinks_m1841702879
awi:_GUIUtility_get_pixelsPerPoint_m2369948084
Cnf:_WindowsIdentity_System_Runtime_Serialization_IDeserializationCallback_OnDeserialization_m3428853631
rW:__ZN13MemoryManagerC2Ev
JFa:__ZN12SkinMeshInfo10DeallocateEPS_
gYe:_ScrollRect_SetDirty_m214267968
rPa:__ZN20ArchiveStorageReader28AcquireAndPrefillUnusedBlockEjPNS_11CacheResultE
Cpd:_Boolean_System_IConvertible_ToDateTime_m603510836
k5b:__Z12NHxRoughnessIA4_tEvP9Texture2DPT_iiii
S3e:_ASN1_get_Value_m1857007406
Eda:__ZN18AsyncUploadManagerD2Ev
kkb:__ZN9Transform5ResetEv
fzf:_Decimal_op_Explicit_m1842265407
Cvb:__Z22TransferField_NonArrayI24GenerateTypeTreeTransfer16Converter_StringEvRK23StaticTransferFieldInfoR31RuntimeSerializationCommandInfoRT0_
bIi:_CanvasRenderer_SetAlphaTexture_m2009567627
xAc:_UNITY_FT_CMap_New
fke:_InternalEnumerator_1_get_Current_m4241643334_AdjustorThunk
BGb:__Z17MainLoopKeepalivePv
vqe:_InternalEnumerator_1_get_Current_m1588647567_AdjustorThunk
Bvj:_printf_core
Wsh:__ZL51GCHandle_t3351438187_CustomAttributesCacheGeneratorP21CustomAttributesCache
HVb:__Z14CalcHullBoundsPK8Vector3fPKhhRK5PlaneRK10Matrix4x4fR10MinMaxAABB
iPe:_InputField_get_caretBlinkRate_m3620074524
zOb:__Z19SetupLODFadeKeywordR17ShaderPassContexti
yjf:_RSAPKCS1SignatureFormatter_CreateSignature_m3191980616
h$a:__ZN10builtintex16GetDefaultTexEnvE16TextureDimensionb
lFa:__ZL25CheckCopyTextureArgumentsRK7ApiGLESP11GLESTextureS3_
fJj:_glDeleteShader__wrapper
$ub:__Z29Transfer_Blittable_ArrayFieldI24GenerateTypeTreeTransferyEvRT_R9ArrayInfoRK23StaticTransferFieldInfo
oJ:__ZN4FMOD7SystemI9playSoundE17FMOD_CHANNELINDEXPNS_5SoundEbPPNS_7ChannelE
NGd:_Int64_GetHashCode_m703091690
OEf:_CultureInfo_set_DateTimeFormat_m1843682751
tvi:_Event_get_commandName_m4275147343
hx:__ZN27AnimationLayerMixerPlayable17LayerMixerProcessEP35AnimationPlayableEvaluationConstantP32AnimationPlayableEvaluationInputP33AnimationPlayableEvaluationOutputM17AnimationPlayableFvS1_S3_S5_EMS_FvS1_S3_S5_ESA_MS_FvS5_S1_S3_S5_ifE
mzf:_Decimal_op_Implicit_m4256234411
PH:__ZN12AudioManager23VirtualRedirectTransferER18StreamedBinaryReadILb0EE
VDg:__Z60RuntimeInvoker_RuntimeObject_RuntimeObject_Int16_t2552820387PFvvEPK10MethodInfoPvPS4_
nMd:_StreamReader__ctor_m3941437302
ckc:__Z57Register_UnityEngine_Transform_INTERNAL_get_localRotationv
NBj:dynCall_viif
ls:__ZN7mecanim4hand8HandPoseC2Ev
eNd:_StringReader_ReadLine_m2337102945
Hsb:__ZL26Transfer_SimpleNativeClassI17RemapPPtrTransfer8GradientLb0EEvRK29SerializationCommandArgumentsR31RuntimeSerializationCommandInfo
ayd:_SyncHashtable_Add_m3016107307
Uy:__ZN17AnimationPlayable26DisconnectNoTopologyChangeEPS_i
jqd:_Boolean_Equals_m2410333903_AdjustorThunk
r7g:_List_1_System_Collections_IList_Contains_m2131605266_gshared
ZT:__ZN13UploadHandlerD2Ev
jAj:dynCall_viiiiiffi
buj:_Hacker__ctor_m518604791
zc:_emscripten_glBlendFuncSeparate
Ofh:_Collection_1_Add_m809543251_gshared
F_:__Z20scripting_string_newPKc
Bic:__Z43Material_CUSTOM_Internal_CreateWithMaterialP12Il2CppObjectS0_
Cti:_Parser_IsSingleline_m326238187
ewd:_CollectionBase_get_Count_m1708965601
fhd:_HMAC__ctor_m97939284
mhg:_ValueType_DefaultEquals_m2927252100
Upc:__ZN9JSONWrite12AppendToNodeEPN5Unity9rapidjson12GenericValueINS1_4UTF8IcEE13JSONAllocatorEEPKcRS6_
Z3e:_ASN1_ToString_m1340204511
Vdf:_X509Store_get_Certificates_m2149701265
QTh:__ZL144StandaloneInputModule_t2760469101_CustomAttributesCacheGenerator_StandaloneInputModule_t2760469101____allowActivationOnMobileDevice_PropertyInfoP21CustomAttributesCache
c7f:_StringBuilder_set_Chars_m3548656617
uVi:__ZN6il2cpp2os4File17GetFileAttributesERKNSt3__212basic_stringIcNS2_11char_traitsIcEENS2_9allocatorIcEEEEPi
ZB:__ZNSt3__26__sortIRPFbPKN8Animator11AnimatorJobES4_EPS4_EEvT0_S9_T_
UG:__ZN17AudioCustomFilterD2Ev
VXg:__Z56RuntimeInvoker_Void_t1185182177_MonoResource_t4103430009PFvvEPK10MethodInfoPvPS4_
fmj:_GC_unpromote_black_lists
CDa:__ZN18GfxFramebufferGLES18ReleaseFramebufferEP17RenderSurfaceBaseP14GfxContextGLES
ftc:__Z18Transfer_BlittableI8JSONReadLb1EiEvRK29SerializationCommandArgumentsR31RuntimeSerializationCommandInfo
qV:__ZN19CloudServiceHandler34HandleSaveFileWebRequestPlayerLoopEv
Gy:__ZN7mecanim21ValueArrayReverseCopyEPKNS_18ValueArrayConstantEPKNS_10ValueArrayES2_PS3_PKi
CG:__Z31GetParentSampleClipFromInstancePN11SoundHandle8InstanceE
K3b:__ZNK28RectTransformPropertyBinding13GetFloatValueERKN11UnityEngine9Animation10BoundCurveE
UXb:__ZN6Camera22StandaloneCustomRenderENS_10RenderFlagEP6ShaderRKN4core12basic_stringIcNS3_20StringStorageDefaultIcEEEEPNS_21PerformRenderFunctionE
nMf:_Array_InternalArray__IndexOf_TisKeyValuePair_2_t2401056908_m4118889689_gshared
$eb:__ZNSt3__26vectorI4PPtrI6ObjectE13stl_allocatorIS3_L18MemLabelIdentifier52ELi16EEE6assignINS_11__wrap_iterIPS3_EEEENS_9enable_ifIXaasr21__is_forward_iteratorIT_EE5valuesr16is_constructibleIS3_NS_15iterator_traitsISD_E9referenceEEE5valueEvE4typeESD_SD_
ctj:__ZN6il2cpp2os16ThreadLocalValue8GetValueEPPv
Ycf:_X509Certificate2_get_PublicKey_m370665820
Kxc:_cff_slot_init
LQi:__ZN6il2cpp2vm13MetadataCache14GetGenericInstEPKPK10Il2CppTypej
CP:__ZN13AudioListener17ReadExtensionNameEi
Lb:invoke_iiidii
cp:setThrew
b5b:__ZL21BuildEmptyCubeTexturePKci11ColorRGBA3217TextureColorSpace
Zha:__ZN14SafeBinaryRead21TransferSTLStyleArrayINSt3__26vectorIN9ShaderLab20SerializedSubProgramENS1_9allocatorIS4_EEEEEEvRT_17TransferMetaFlags
MMf:_Array_InternalArray__IndexOf_TisX509ChainStatus_t133602714_m48896230_gshared
WNa:__ZN19dynamic_block_arrayI13FileEntryInfoLj32EE4growEj
otc:__Z15Transfer_StringI8JSONReadLb1EEvRK29SerializationCommandArgumentsR31RuntimeSerializationCommandInfo
Zci:_Comparison_1_BeginInvoke_m816899747_gshared
lAa:__ZN6prcoreL17RemapGenericFloatI17TexFormatRGBFloat15TexFormatRGHalfEEvPKNS_9InnerInfoE
RCc:_sfnt_load_face
lKc:_UNITY_FT_Render_Glyph_Internal
k9i:__ZNSt3__212basic_stringIDsNS_11char_traitsIDsEENS_9allocatorIDsEEE21__grow_by_and_replaceEjjjjjjPKDs
RAc:_UNITY_ft_service_list_lookup
Wmc:__ZN5IMGUI21SelectReceivingWindowER8GUIStateb
vhd:_HMAC_Initialize_m3157696427
Dwj:___strchrnul
SV:__ZN13BaseAllocator13TryDeallocateEPv
Rbf:_X509SubjectKeyIdentifierExtension__ctor_m2055934916
WTa:__ZNSt3__26vectorIN12FlareManager10FlareEntryENS_9allocatorIS2_EEE21__push_back_slow_pathIKS2_EEvRT_
xvj:_sprintf
fMh:__ZL67NativeContainerAttribute_t2600515814_CustomAttributesCacheGeneratorP21CustomAttributesCache
Edc:__ZN9Scripting25CreateNullExceptionObjectE18ScriptingObjectPtr
a6e:_PrivateKeyInfo_DecodeRSA_m2889346634
wH:__ZN13AudioListener17RemoveFromManagerEv
td:_glAttachShader
u6c:_ContentSizeFitter_SetLayoutHorizontal_m2833273874
jY:__ZNK6Camera19GetProjectionMatrixEv
aWh:__ZL70InputField_t3762917431_CustomAttributesCacheGenerator_m_SelectionColorP21CustomAttributesCache
KPe:_InputField_SetToCustomIfContentTypeIsNot_m2813459946
GKh:__ZL70RuntimePlatform_t4159857903_CustomAttributesCacheGenerator_FlashPlayerP21CustomAttributesCache
GGf:_Guid_GetHashCode_m3042133858_AdjustorThunk
e_:__Z38PreallocateObjectFromPersistentManagerib
Qgf:_Interpreter_Backtrack_m2828876822
N2a:__ZNK9Texture2D20GetUnscaledTextureIDEv
Hed:_SByte_System_IConvertible_ToType_m4075253447
wHj:_glFenceSync__wrapper
xyg:_Transform_INTERNAL_get_worldToLocalMatrix_m2730237241
_Qe:_InputField_IsValidChar_m1928072643
S2a:__ZNK9Texture2D26CanReuploadDataToGfxDeviceEv
xxh:__ZL63CodeAccessPermission_t2681295399_CustomAttributesCacheGeneratorP21CustomAttributesCache
Xgb:__Z29ClearRepeatingLogMessageStatev
Ioe:_InternalEnumerator_1_get_Current_m3191242573_gshared
lrd:_Byte_Equals_m1161982810_AdjustorThunk
Pfe:_SslCipherSuite_ComputeMasterSecret_m3963626850
FJa:__ZN7ApiGLESD2Ev
bRa:__ZN9Transform47ClearTransformHierarchyAndApplyToSerializedDataEv
Duc:__ZN8JSONRead21TransferSTLStyleArrayINSt3__26vectorI8MonoPPtr13stl_allocatorIS3_L18MemLabelIdentifier1ELi16EEEEEEvRT_17TransferMetaFlags
lSa:__ZN6Camera23VirtualRedirectTransferER19StreamedBinaryWriteILb0EE
cCj:dynCall_fidi
AYi:__ZN15dense_hashtableINSt3__24pairIK10KeyWrapperINS1_IPK9FieldInfoP11Il2CppClassEEEjEES9_17ReflectionMapHashIS8_EN14dense_hash_mapIS9_jSD_NS9_14EqualsComparerINS0_8equal_toIS8_EEEENS0_9allocatorISB_EEE9SelectKeyESI_SK_E12resize_deltaEjj
lwi:_GUILayoutEntry__ctor_m2229197035
o4:__ZN15dense_hashtableINSt3__24pairIKN9ShaderLab7Program23ShaderKeywordSetAndHashEPKNS2_10SubProgramEEES4_NS3_24ShaderKeywordHashFunctorEN14dense_hash_mapIS4_S8_SA_NS0_8equal_toIS4_EE13stl_allocatorIS9_L18MemLabelIdentifier67ELi16EEE9SelectKeyESD_SG_E15insert_noresizeERKS9_
Cdc:__ZNK13MonoBehaviour13GetScriptTypeEv
iZa:__ZN13RenderTexture12SetDimensionE16TextureDimension
C4e:_DSAManaged_add_KeyGenerated_m2286864968
je:_SDL_FreeRW
gRc:__Z34CanvasRenderer_Get_Custom_PropCullP12Il2CppObject
iN:__ZN20SoundChannelInstance8getDelayE14FMOD_DELAYTYPEPjS1_
F4:__ZNSt3__26vectorIN20GpuProgramParameters15StructParameterENS_9allocatorIS2_EEEC2ERKS5_
kie:_ArrayReadOnlyList_1_Contains_m232667507_gshared
KJg:__Z77RuntimeInvoker_Boolean_t97287965_IntPtr_t_Int32_t2950945753_SByte_t1669577662PFvvEPK10MethodInfoPvPS4_
wsg:_PlayableHandle_GetPlayableType_m432385838_AdjustorThunk
aJc:__ZNSt3__26vectorIN20TextRenderingPrivate8FontImpl13CharacterInfoE13stl_allocatorIS3_L18MemLabelIdentifier1ELi16EEE8__appendEj
v:tempBigInt
wQf:_Array_InternalArray__Insert_TisKeyframe_t4206410242_m1558638568_gshared
re:_emscripten_glVertexAttrib1fv
Gia:__ZNSt3__26vectorIN9ShaderLab20SerializedSubProgram12UAVParameterENS_9allocatorIS3_EEE7reserveEj
ezj:__ZSt11__terminatePFvvE
OJ:__ZN12AudioManager14systemCallbackEP11FMOD_SYSTEM24FMOD_SYSTEM_CALLBACKTYPEPvS3_
fei:_Nullable_1_Equals_m4046255732_gshared
F9h:_ReadOnlyCollection_1_System_Collections_Generic_ICollectionU3CTU3E_Clear_m3451551308_gshared
f4c:_BaseMeshEffect_OnEnable_m3291426649
vF:__ZN10SampleClip23VirtualRedirectTransferER24GenerateTypeTreeTransfer
uYa:__ZN16ReflectionProbes16UpdateSampleDataEv
WEf:_CultureInfo_GetCultureInfo_m56098747
XUb:__Z20AddActiveLocalLightsR11CullResultsR27LocalLightCullingParametersPPK15SharedLightDataPK8Vector4fRK9IndexListPfRSA_R12ActiveLightsSG_P5RectTIfEP13TargetEyeMask
Poh:__ZL80Hashtable_t1853889766_CustomAttributesCacheGenerator_Hashtable__ctor_m1763145853P21CustomAttributesCache
uAd:_Convert_ToDecimal_m1284148187
Ehh:_Collection_1__ctor_m3489157029_gshared
_Ej:_emscripten_glRenderbufferStorage__wrapper
MWi:__ZNK6il2cpp2vm14TypeNameParser10NextWillBeEcb
lyc:_cf2_getNormalizedVector
Oe:_JS_Sound_Play
Cai:_ReadOnlyCollection_1_System_Collections_IList_set_Item_m1538987737_gshared
lha:__ZN9ShaderLab16SerializedShader8TransferI14SafeBinaryReadEEvRT_
ubd:_GridLayoutGroup_set_constraint_m3308895167
bJe:_ConstructionCallDictionary_SetMethodProperty_m3145285304
FFd:_Int32_System_IConvertible_ToUInt32_m3557270157
FMg:__Z243RuntimeInvoker_Void_t1185182177_Int16_t2552820387_RuntimeObject_Int32_t2950945753_Int32_t2950945753_Int32_t2950945753_SByte_t1669577662_SByte_t1669577662_SByte_t1669577662_SByte_t1669577662_Int16_t2552820387_SByte_t1669577662_SByte_t1669577662PFvvEPK10MethodInfoPvPS4_
dje:_InternalEnumerator_1_System_Collections_IEnumerator_get_Current_m1503522504_gshared
rB:__ZN7mecanim8skeleton13SkeletonAlignEPKNS0_8SkeletonERKN4math7_float4ES7_i
V5b:__ZN19ShaderPropertySheet16SetVectorIndexedEN9ShaderLab16FastPropertyNameEifRK8Vector4fNS_8SetFlagsE
Pcg:_Type_get_IsAbstract_m1120089130
Fzg:_Vector3_get_normalized_m2454957984_AdjustorThunk
$ui:_UriFormatException__ctor_m1115096473
K4i:__ZN15dense_hashtableINSt3__24pairIK10KeyWrapperINS1_IP11Il2CppClassjEEES4_EES6_N6il2cpp8metadata14ArrayClassHashEN14dense_hash_mapIS6_S4_SB_NS6_14EqualsComparerINSA_17ArrayClassCompareEEENS0_9allocatorIS8_EEE9SelectKeyESF_SH_E9copy_fromERKSK_j
Wxi:_GUIUtility_IsExitGUIException_m3644066650
ZU:__ZN11UnityEngine15CloudWebService14DataDispatcher4StopEv
h6c:_ColorBlock_GetHashCode_m4264192507
uDd:_Int16_System_IConvertible_ToUInt64_m134975563
Iia:__ZNSt3__26vectorIN9ShaderLab20SerializedSubProgram12UAVParameterENS_9allocatorIS3_EEE8__appendEj
Omc:__ZN5IMGUI9GUIWindow5OnGUIER8GUIState
Hof:_Single_System_IConvertible_ToDecimal_m325860800_AdjustorThunk
hPf:_Array_InternalArray__ICollection_CopyTo_TisSingle_t1397266774_m455540885_gshared
SMa:__ZN17ScriptingGCHandle7AcquireE18ScriptingObjectPtr25ScriptingGCHandleWeakness
YLg:__Z74RuntimeInvoker_RuntimeObject_RuntimeObject_Int64_t3736567304_RuntimeObjectPFvvEPK10MethodInfoPvPS4_
bPc:__ZN2UI14CanvasRenderer14AttachToCanvasER8JobFencePNS_6CanvasENS0_15InstructionTypeE
_Aj:dynCall_iifiii
lya:__Z21HasAlphaTextureFormat13TextureFormat
TO:__ZN12AudioManager6UpdateEv
eya:__ZN14ImageReference9BlitImageERKS_NS_8BlitModeE
Vs:__ZN8Animator12AddToManagerEv
Mef:_X509Chain__ctor_m2674663382
G9h:_ReadOnlyCollection_1_System_Collections_Generic_IListU3CTU3E_Insert_m1121807192_gshared
OEb:__ZN23CachedSerializationDataD2Ev
UWb:__ZNK25CameraStackRenderingState31CalculateStereoCameraTargetTypeEv
WXa:__ZN14RenderSettings23VirtualRedirectTransferER14SafeBinaryRead
Gre:_InternalEnumerator_1_get_Current_m114240259_gshared
ahj:__ZN6il2cpp2os10ThreadImpl15CurrentThreadIdEv
GQf:_Array_InternalArray__Insert_TisVector2_t2156229523_m2148694950_gshared
Zkf:_SymmetricAlgorithm_get_Key_m3241860519
cSe:_U3CMouseDragOutsideRectU3Ec__Iterator1_Reset_m2233410497
uPe:_InputField_set_customCaretColor_m720445789
LGc:_UNITY_tt_face_load_fpgm
XQa:__Z17IsObjectAvailablei
ecb:__ZN12InputManagerD0Ev
Oah:_Queue_1_Peek_m1713833142_gshared
A9f:_ExecutionContext_Capture_m681135907
vke:_InternalEnumerator_1_System_Collections_IEnumerator_get_Current_m2889979481_AdjustorThunk
_xj:_posix_memalign
W3e:_ASN1_GetBytes_m3305539297
i_:__ZNK15MonoScriptCache7ReleaseEv
gLi:__ZN6il2cpp2vm5Class13HasReferencesEP11Il2CppClass
bg:_glBindTexture
owj:_snprintf
GSg:__Z50RuntimeInvoker_RuntimeObject_Resources_t1597885468PFvvEPK10MethodInfoPvPS4_
oGj:_emscripten_glVertexAttrib1fv__wrapper
vib:__Z36scripting_liveness_calculation_begin17ScriptingClassPtriPFvPP12Il2CppObjectiPvES3_PFvvES7_
hBi:_AudioExtensionManager_RemoveExtensionFromManager_m442924172
OEj:_emscripten_glGetProgramInfoLog__wrapper
SD:__ZN25AnimatedPropertyEvaluator29BindCurveToScriptingObjectPtrERKN13AnimationClip10FloatCurveEj18ScriptingObjectPtrb
f0:__ZN17PersistentManager23DestroyFromFileInternalEi
Vlg:_Display__ctor_m501911701
o6h:_ReadOnlyCollection_1_System_Collections_Generic_IListU3CTU3E_Insert_m1020890112_gshared
s7c:_DefaultControls_SetDefaultTextValues_m1943359795
dQb:__Z19SetupMotionMatricesR6CameraR18RPDataMotionVector
NJi:__ZL7log2_64y
NC:__ZN26AnimatorControllerPlayable18PrepareForPlaybackERN7mecanim6memory9AllocatorE
jD:__ZN8Animator11AnimatorJob11AddPlayableEP17AnimationPlayablef
pbd:_GridLayoutGroup_get_cellSize_m2967185053
gtf:_CurrentSystemTimeZone_GetUtcOffset_m340358963
kmi:_PKCS12_Decrypt_m1280162536
Eke:_InternalEnumerator_1_get_Current_m3081223448_gshared
Dvi:_Event_get_isMouse_m1058251071
EWa:__ZN10VertexDataC2ERKS_17ShaderChannelMask10MemLabelId
Mvd:_CaseInsensitiveHashCodeProvider_AreEqual_m1790260777
sBc:_otv_JSTF_validate
I4:__ZN22CreateGpuProgramOutputC2Ev
eng:_PersistentCallGroup_Initialize_m4253175514
Bpd:_Boolean_System_IConvertible_ToChar_m4279513009_AdjustorThunk
Lwd:_Hashtable__ctor_m1763145853
mJe:_LogicalCallContext__ctor_m1263247987
JEd:_NumberFormatter_ScaleOrder_m3813786990
b6e:_PrivateKeyInfo_DecodeDSA_m771724585
TZi:__ZNK15dense_hashtableINSt3__24pairIK10KeyWrapperINS1_IPK10MethodInfoP11Il2CppClassEEEjEES9_17ReflectionMapHashIS8_EN14dense_hash_mapIS9_jSD_NS9_14EqualsComparerINS0_8equal_toIS8_EEEENS0_9allocatorISB_EEE9SelectKeyESI_SK_E23find_position_with_hashERSA_j
P6b:__ZN8GUILayer12CleanupClassEv
vfg:_UInt32_System_IConvertible_ToSByte_m1061556466
bGe:_WellKnownClientTypeEntry__ctor_m2471908952
fLi:__ZN6il2cpp2vm5Class4InitEP11Il2CppClass
ga:invoke_vidi
w$a:__ZN8Material17MainThreadCleanupEv
fEe:_RemotingServices_CreateClientProxyForContextBound_m783705199
cbc:__ZNK15GUIEventManager15GetEventAtIndexEi
sPc:__ZN2UI14CanvasRenderer17SyncDirtyElementsER8JobFence
Owe:_Enumerator_System_Collections_IEnumerator_get_Current_m3816090481_gshared
ekj:__ZN6il2cpp5utils11StringUtils15StringDuplicateEPKc
IVf:_DefaultComparer_Equals_m2480133610_gshared
Z3:__ZNK9ShaderLab21ShaderRasterStateDesc16ToGfxRasterStateEPK19ShaderPropertySheetS3_R14GfxRasterState
T0h:_Array_Sort_TisVector3_t3722313464_m1915176437_gshared
jtj:__ZN6il2cpp2os9EventImplC2Ebb
r4g:_List_1_get_Item_m2113769949_gshared
bUa:__ZN12FlareManager12RemoveCameraER6Camera
Y4:__Z20IsMatrixBuiltinParamPKcPi
qmf:_String_memcpy4_m979367827
E7f:_UnicodeEncoding_GetBytesInternal_m1902824297
C5b:__ZN8Renderer19PostInitializeClassEv
KLf:_Array_FindIndex_TisRuntimeObject_m2504082708_gshared
boi:_X509Chain_FindCertificateRoot_m1937726457
ypj:__ZN6il2cpp6icalls8mscorlib6System8Delegate23CreateDelegate_internalEP20Il2CppReflectionTypeP12Il2CppObjectP22Il2CppReflectionMethodb
Pxe:_Enumerator_System_Collections_IEnumerator_get_Current_m921113401_AdjustorThunk
ZVb:__ZNK13RendererScene22GetStaticBoundingBoxesEv
gEb:__ZN18DelayedCallManager18CancelCallDelayed2E4PPtrI6ObjectEPF15CallObjectStatePS1_PvES7_
Upg:_Matrix4x4_GetHashCode_m4034747639
HKa:__ZN25ThreadsafeLinearAllocator10ReallocateEPvji
hob:__Z18Transfer_BlittableI14SafeBinaryReadLb1E11QuaternionfEvRK29SerializationCommandArgumentsR31RuntimeSerializationCommandInfo
Fga:__ZN18SpriteAtlasManagerD0Ev
aab:__ZN10Matrix4x4f8TransferI14SafeBinaryReadEEvRT_
Hfd:_CryptographicUnexpectedOperationException__ctor_m2381988196
i1i:__ZN14dense_hash_mapI10KeyWrapperIPK22Il2CppGenericParameterEPK24MonoGenericParameterInfoN6il2cpp5utils11PointerHashIS2_EENS4_14EqualsComparerINSt3__28equal_toIS3_EEEENSD_9allocatorINSD_4pairIKS4_S7_EEEEE15set_deleted_keyERSJ_
HC:__ZN14AvatarPlayback8StopTimeEv
hne:_InternalEnumerator_1_System_Collections_IEnumerator_get_Current_m4213507601_gshared
iba:__Z6AppendRKN4core12basic_stringIcNS_20StringStorageDefaultIcEEEEPKc
Pxi:_GUIUtility_RemoveCapture_m1294193818
fua:__ZN7ApiGLES18ClearBufferSubDataEjN2gl12BufferTargetEll
gfc:__Z37Camera_Get_Custom_PropAllCamerasCountv
x8a:__ZN14Texture2DArray8TransferI18StreamedBinaryReadILb0EEEEvRT_
eUb:__Z18ApplyOcclusionMaskR19ProbeOcclusionCacheRK17LightProbeContextRK10RenderNodeb
mIc:_Split_Cubic
cb:invoke_fiiii
BRe:_InputField_OnSubmit_m3583210804
mui:_Uri_CheckHostName_m2213216182
lGj:_emscripten_glBindRenderbuffer__wrapper
w2h:_Mesh_SetUvsImpl_TisVector2_t2156229523_m3009194955_gshared
lhg:_ValueType_InternalEquals_m1384040357
V0h:_Array_Sort_TisVector4_t3319028937_TisVector4_t3319028937_m4254533673_gshared
Xtd:_ArrayListWrapper_Contains_m2641184447
_Hc:_ft_black_render
fJg:__Z177RuntimeInvoker_Int32_t2950945753_RuntimeObject_Int32_t2950945753_Int32_t2950945753_RuntimeObject_Int32_t2950945753_EncoderFallbackBufferU26_t2343550713_CharU5BU5DU26_t3299466565PFvvEPK10MethodInfoPvPS4_
iCj:dynCall_viiifi
PCa:__ZN18GfxFramebufferGLES20ActiveContextChangedEPP17RenderSurfaceBaseS2_
GCa:__Z19PluginsRenderMarkeri
zE:__ZN10HumanTrait18InitializeBoneNameEv
Pia:__ZNSt3__26vectorIN9ShaderLab20SerializedSubProgram15StructParameterENS_9allocatorIS3_EEE6assignINS_11__wrap_iterIPS3_EEEENS_9enable_ifIXaasr21__is_forward_iteratorIT_EE5valuesr16is_constructibleIS3_NS_15iterator_traitsISC_E9referenceEEE5valueEvE4typeESC_SC_
zcj:__ZNSt3__214__split_bufferIN6il2cpp2vm5Image20EmbeddedResourceDataERNS_9allocatorIS4_EEEC2EjjS7_
aH:__ZN12AudioManager17RemoveAudioSourceEP11AudioSource
Wdf:_X509Certificate2Collection_Add_m3151757943
rve:_Comparer_1__cctor_m951016718_gshared
Qvd:_CaseInsensitiveHashCodeProvider_get_DefaultInvariant_m4264275163
xJg:__Z195RuntimeInvoker_Int32_t2950945753_RuntimeObject_Int32_t2950945753_Int32_t2950945753_Int32_t2950945753_RuntimeObject_DecoderFallbackBufferU26_t3866396827_ByteU5BU5DU26_t4057885439_SByte_t1669577662PFvvEPK10MethodInfoPvPS4_
JQ:__ZN5physx14PxLightCpuTask12addReferenceEv
mWa:__ZNK15InstancingProps35FillInstanceBufferDispatchConstantsIN10Instancing14RenderLoopArgsEEEvPPvjjRK19ShaderPropertySheetRKT_
zWg:__Z86RuntimeInvoker_Int32_t2950945753_Color32_t2600501292_Color32_t2600501292_RuntimeObjectPFvvEPK10MethodInfoPvPS4_
$4a:__ZN21EnlightenSceneMapping8TransferI19StreamedBinaryWriteILb0EEEEvRT_
mej:__ZN6il2cpp2gc16GarbageCollector19InitializeFinalizerEv
Iy:__ZN7mecanim8skeleton18CreateSkeletonMaskEjPKNS0_19SkeletonMaskElementERNS_6memory9AllocatorE
tmc:__ZN10GUIManager10DoGUIEventER10InputEventb
$tb:__Z35Transfer_Blittable_FixedBufferFieldI24GenerateTypeTreeTransferxEvRK29SerializationCommandArgumentsR31RuntimeSerializationCommandInfo
gCc:_otv_LangSys_validate
Nug:_RectOffset_get_right_m2294081512
VQf:_Array_InternalArray__set_Item_TisLink_t544317964_m1234244240_gshared
RGc:_UNITY_TT_Init_Glyph_Loading
ePb:__Z20CalculateSqrDistanceRK8Vector3fRK4AABB
mdd:_SerializationInfo_GetBoolean_m1756153320
zL:__Z32AudioMixerDuckingProcessCallbackP21UnityAudioEffectStatePfS1_jii
xqg:_Mesh_get_uv2_m3615020997
G4b:__ZN26CustomRenderTextureManagerD2Ev
ihc:__Z32Input_Get_Custom_PropInputStringv
IWf:_EqualityComparer_1_System_Collections_IEqualityComparer_Equals_m4172006498_gshared
UH:__ZN12AudioManager8TransferI24GenerateTypeTreeTransferEEvRT_
Gpg:_Mathf_Round_m4098141538
jxa:__Z25GetBytesFromTextureFormat13TextureFormat
P7i:__ZN6il2cpp6icalls8mscorlib6System9Threading6Thread20Thread_free_internalEP12Il2CppThreadi
lAj:dynCall_iiffi
P8e:__KeysEnumerator_get_Current_m2996478063
LD:__ZN16MecanimAnimation25RegisterIAnimationBindingEPKN5Unity4TypeEiP17IAnimationBinding
X$:__Z32scripting_class_get_assemblyname17ScriptingClassPtr
mTc:__ZN11UnityEngine15PlatformWrapper15GetVRDeviceNameEv
sSg:__Z99RuntimeInvoker_Boolean_t97287965_Int32_t2950945753_PointerEventDataU26_t867828220_SByte_t1669577662PFvvEPK10MethodInfoPvPS4_
huj:_Hacker_ShowRewards_m3662895009
Ple:_InternalEnumerator_1_get_Current_m2128158355_AdjustorThunk
JIa:__ZN9GfxDevice21RegisterNativeTextureE9TextureIDi16TextureDimension
aad:_GraphicRegistry__ctor_m1851575309
Oqj:__ZN6il2cpp6icalls8mscorlib6System10Reflection4Emit11TypeBuilder20create_generic_classEP27Il2CppReflectionTypeBuilder
Mjf:_SHA1Internal_FillBuff_m3615718415
xJf:_PlayableHandle_IsPlayableOfType_TisAnimationLayerMixerPlayable_t3631223897_m201603007_gshared
mQ:__Z60Register_UnityEngine_AudioListener_GetNumExtensionPropertiesv
Wi:_emscripten_glUniformMatrix4fv
Z4i:__ZN15dense_hashtableINSt3__24pairIK10KeyWrapperINS1_IP11Il2CppClassjEEES4_EES6_N6il2cpp8metadata14ArrayClassHashEN14dense_hash_mapIS6_S4_SB_NS6_14EqualsComparerINSA_17ArrayClassCompareEEENS0_9allocatorIS8_EEE9SelectKeyESF_SH_E13set_empty_keyERKS8_
ajb:__ZN12ScriptMapperD2Ev
_Jj:b100
Aqg:_Mesh_get_colors32_m1253190811
Pmj:_GC_stopped_mark
big:_AnimationCurve_Finalize_m2397002729
F$e:_Text_OnEnable_m616205807
C0g:__Z50RuntimeInvoker_RuntimeObject_ColorTween_t809614380PFvvEPK10MethodInfoPvPS4_
uOe:_SerializationCallbacks__cctor_m1674315180
wjc:__Z52Register_UnityEngine_RenderTexture_Internal_GetWidthv
Jnj:_GC_check_leaked
Pla:__ZN9ShaderLab20SerializedSubProgram16TextureParameter8TransferI19StreamedBinaryWriteILb0EEEEvRT_
kKa:__ZNK7Hash12812PackToUInt32Ev
Yud:_SynchronizedArrayListWrapper_IndexOf_m3642674350
K1:__ZNSt3__227__insertion_sort_incompleteIRNS_6__lessI14ObjectLoadDataS2_EEPS2_EEbT0_S6_T_
fV:__ZN11UnityEngine15CloudWebService16SessionContainer8AddEventEPNS0_14CloudEventInfoE
yHa:__Z4TrimRKN4core12basic_stringIcNS_20StringStorageDefaultIcEEEES5_
P1h:_Dictionary_2_Do_ICollectionCopyTo_TisKeyValuePair_2_t3842366416_m1399105608_gshared
gdf:_X509Certificate2_Import_m4026562329
uHj:_glGetStringi__wrapper
X6a:__ZN10VertexData8TransferI14SafeBinaryReadEEvRT_
iJ:__ZN4FMOD8ChannelI8setDelayE14FMOD_DELAYTYPEjj
Doj:_GC_malloc_atomic
z5d:_ActivatedClientTypeEntry_ToString_m2494181680
F_f:_HashSet_1_GetEnumerator_m3346268098_gshared
lrj:__ZN6il2cpp5utils6Memory13AlignedMallocEjj
HRe:_Selectable_get_animator_m2899312855
_Y:__ZL20SortItemByInstanceIDRKN18AwakeFromLoadQueue4ItemES2_
lzg:_Vector2_op_Multiply_m2347887432
f9e:_TypeConverterAttribute__ctor_m1774069684
Ty:__ZNK34AnimationStateMachineMixerPlayable26GetInterruptedPosePlayableEv
dWc:__ZN20UnityConnectSettings8TransferI24GenerateTypeTreeTransferEEvRT_
UA:__ZN34BlobWriteTransferSTLStyleArrayImplI22OffsetPtrArrayTransferIbEEclERS1_17TransferMetaFlagsR9BlobWrite
pkd:_Byte_ToString_m4063101981
dQd:_MonoType_GetConstructors_m2574682189
R9e:_ServicePointManager_FindServicePoint_m4119451290
Oca:__ZL31InitializeRendererUpdateManagerPv
iVd:_ParameterInfo__ctor_m2779026345
BPe:_InputField_set_onValueChange_m1251390545
dQc:__ZN2UI13CanvasManager14GetRenderOrderEPKNS_6CanvasE
xRd:_NumberFormatter_get_IsZeroInteger_m2263284741
xki:_X509Certificate_PEM_m2020851166
TPf:_Array_InternalArray__Insert_TisDateTime_t3738529785_m2308632330_gshared
Jif:_RNGCryptoServiceProvider_RngGetBytes_m1695806698
lee:_TlsServerCertificateRequest_ProcessAsTls1_m3214041063
CCc:_compare_uni_maps
ZTc:__ZN11UnityEngine15PlatformWrapper27GetGraphicsCapsSupportFlagsEv
Cxb:__ZN12NativeBufferI16Converter_StringE15SetupForWritingER9ArrayInfo
Yfa:__ZN13RuntimeStaticI18AssetBundleManagerLb1EE16StaticInitializeEPv
RDj:___cxa_end_catch__wrapper
Msd:_Char_ToString_m278452217
nBg:__Z32RuntimeInvoker_Boolean_t97287965PFvvEPK10MethodInfoPvPS4_
G6d:_BigInteger_op_RightShift_m460065452
REb:__ZN13MonoBehaviour22DoScriptRebuildWarningEv
ifc:__Z38Camera_CUSTOM_INTERNAL_CALL_RaycastTryP12Il2CppObjectRK3Rayfi
zMc:__Z38TextGenerator_Get_Custom_PropLineCountP12Il2CppObject
dki:_InternalAsyncResult_SetComplete_m963842420
Z5f:_Encoding_GetEncoding_m2801244948
vnc:__ZN11IMGUIModule25GetGUIStyleScriptingClassEv
eFc:_tt_get_interface
bhe:_SslStreamBase_EndRead_m495357226
A7i:__ZN6il2cpp5utils9PathUtils7CombineIcEENSt3__212basic_stringIT_NS3_11char_traitsIS5_EENS3_9allocatorIS5_EEEERKSA_SC_
dtc:__ZN9JSONWrite8TransferI13dynamic_arrayIiLj4EEEEvRT_PKc17TransferMetaFlags
QLg:__Z64RuntimeInvoker_RuntimeObject_SByte_t1669577662_SByte_t1669577662PFvvEPK10MethodInfoPvPS4_
P8b:__ZN13PlayableGraph21InvalidateMultithreadEv
t0f:_Enumerator_System_Collections_IEnumerator_get_Current_m713684915_AdjustorThunk
eZf:_GenericComparer_1_Compare_m459680062_gshared
NWd:_EnumBuilder_GetConstructorImpl_m3068576149
I_:__Z18ConvertUTF16toUTF8PPKtS0_PPhS2_15ConversionFlags
wij:__ZN6il2cpp2os20PathErrnoToErrorCodeERKNSt3__212basic_stringIcNS1_11char_traitsIcEENS1_9allocatorIcEEEEi
SVh:__ZL68InputField_t3762917431_CustomAttributesCacheGenerator_m_KeyboardTypeP21CustomAttributesCache
AJi:__ZL16my_g_bit_nth_msfj
aCh:__ZL65NonSerializedAttribute_t2945079482_CustomAttributesCacheGeneratorP21CustomAttributesCache
jah:_Enumerator_MoveNext_m3662315381_AdjustorThunk
Vde:_TlsClientFinished_ProcessAsTls1_m2429863130
qNb:__Z23SetupStereoFlareElementP11FlareVertexRK8Vector2fS3_S3_RK11ColorRGBA32RK10Matrix4x4fRK8Vector3fb
sa:invoke_iiiifiiii
HPe:_InputField_EnforceContentType_m2436948794
prf:_String_Join_m2050845953
Lye:_ShimEnumerator_MoveNext_m2406150314_gshared
IDa:__ZL19BlitFramebufferImplRN4gles23BlitFramebufferDrawQuadER9GfxDevice9TextureIDRK8Vector4f
bZi:__ZN15dense_hashtableINSt3__24pairIK10KeyWrapperIPK10Il2CppTypeEjEES6_N6il2cpp8metadata14Il2CppTypeHashEN14dense_hash_mapIS6_jSB_NS6_14EqualsComparerINSA_26Il2CppTypeEqualityComparerEEENS0_9allocatorIS8_EEE9SelectKeyESF_SH_E4findERS7_
XAj:dynCall_viiiiiiiiiiiiii
vGc:_UNITY_FT_List_Add
e5b:__ZN14Texture2DArray11InitTextureEiii13TextureFormatb
wli:_X509Extension__ctor_m1474351312
igi:_InvokableCall_1_Invoke_m1524307439_gshared
uId:_Directory_CreateDirectoriesInternal_m3735342319
RTe:_LayoutUtility_GetLayoutProperty_m3731360667
Z1i:__ZN15dense_hashtableINSt3__24pairIK10KeyWrapperINS1_IPK11Il2CppImageP11Il2CppClassEEEjEES9_17ReflectionMapHashIS8_EN14dense_hash_mapIS9_jSD_NS9_14EqualsComparerINS0_8equal_toIS8_EEEENS0_9allocatorISB_EEE9SelectKeyESI_SK_E14squash_deletedEv
Okf:_SHAConstants__cctor_m1699027474
aY:__ZNK6Camera26GetStereoSingleCullEnabledEv
Ufb:__Z14resize_trimmedINSt3__26vectorIN4core12basic_stringIcNS2_20StringStorageDefaultIcEEEE13stl_allocatorIS6_L18MemLabelIdentifier13ELi16EEEEEvRT_j
Rob:__Z18Transfer_BlittableI14SafeBinaryReadLb0EaEvRK29SerializationCommandArgumentsR31RuntimeSerializationCommandInfo
Qsd:_CharEnumerator_System_Collections_IEnumerator_get_Current_m1328529384
bDj:_emscripten_glFrustum__wrapper
LIi:_AnimationLayerMixerPlayable__ctor_m860721801
$Gc:_UNITY_FT_List_Iterate
jsd:_Char_System_IConvertible_ToUInt64_m3536560782
ZVf:_EqualityComparer_1__cctor_m3452395357_gshared
eIc:_Render_Single_Pass
XLb:__Z20SyncFenceCullResultsR11CullResults
kGa:__ZN15TextureTFMethod20IsBoneCountSupportedEi
rBf:_Double_ToString_m3828879243_AdjustorThunk
ktb:__Z22TransferField_NonArrayI17RemapPPtrTransfer27Converter_SimpleNativeClassI8GUIStyleEEvRK23StaticTransferFieldInfoR31RuntimeSerializationCommandInfoRT0_
DNd:_TextReader_Synchronized_m3004980758
T0b:__ZNK17AnimationCurveTplIfE20EvaluateWithoutCacheEfRf
BQg:__Z67RuntimeInvoker_Boolean_t97287965_Rect_t2360479859_SByte_t1669577662PFvvEPK10MethodInfoPvPS4_
mYa:__ZN19ShaderPropertySheet10SetTextureERK23FastTexturePropertyNameP7Texture
gUd:_CustomAttributeData__ctor_m2966233049
j5c:_CanvasUpdateRegistry_PerformUpdate_m1793997159
jde:_Context_set_ClientWriteIV_m3405909624
Fac:__ZN4Mesh10SetNormalsEPK8Vector3fj
Lyi:_AesManaged_CreateDecryptor_m692040246
Xjj:__ZNSt3__212basic_stringIDsNS_11char_traitsIDsEENS_9allocatorIDsEEE9__grow_byEjjjjjj
ns:__ZN17AnimationCurveTplIfE8TransferI14SafeBinaryReadEEvRT_
$Qf:_Array_InternalArray__set_Item_TisInt16_t2552820387_m2544074754_gshared
Emd:_ArithmeticException__ctor_m3551809662
VId:_MonoIO_ExistsDirectory_m2182482658
B_b:__Z29StdTemplateConversionFunctionIybEbPvR14SafeBinaryRead
w5a:__ZNSt3__26vectorIN15QualitySettings14QualitySettingENS_9allocatorIS2_EEE6assignIPS2_EENS_9enable_ifIXaasr21__is_forward_iteratorIT_EE5valuesr16is_constructibleIS2_NS_15iterator_traitsIS9_E9referenceEEE5valueEvE4typeES9_S9_
f:HEAPU32
X2f:_List_1_CheckCollection_m1671972112_gshared
ube:_CipherSuiteFactory_GetSsl3SupportedCiphers_m3757358569
Q7f:_UnicodeEncoding_GetPreamble_m3002287178
MAi:_AudioSource_get_spatialize_m3609701298
eQg:__Z52RuntimeInvoker_Color_t2555686324_Color32_t2600501292PFvvEPK10MethodInfoPvPS4_
mna:__ZN20GpuProgramParameters14AddVectorParamEPKcii15ShaderParamTypeiiiP16PropertyNamesSet
UXc:__ZNK12HeaderHelper3GetERKN4core12basic_stringIcNS0_20StringStorageDefaultIcEEEE
ucb:__ZN9InputAxis8TransferI14SafeBinaryReadEEvRT_
tZ:__ZNK21ExecutionOrderManager30GetCustomAwakeFromLoadQueueForEPKN5Unity4TypeE
nXc:__Z27RegisterModule_UnityConnectv
mLd:_MemoryStream_Expand_m3554752073
u0i:__ZN6il2cpp2vm10Reflection27GetCustomAttributesCacheForEP25Il2CppReflectionParameter
pwg:_ScriptableObject_CreateInstance_m2611081756
FMe:_ObjectRecord_get_IsInstanceReady_m2304516395
Fre:_InternalEnumerator_1_System_Collections_IEnumerator_get_Current_m1635397542_gshared
TLd:_Path__cctor_m3273994011
kzj:__ZNSt11logic_errorD2Ev
_tf:_DateTimeUtils_CountRepeat_m3396693018
Rhg:_WeakReference_get_Target_m168713953
CK:__ZN10ObjectPoolIN4FMOD12ChannelGroupENS0_13ChannelGroupIEE7SetSizeEi
wyi:_SymmetricTransform_FinalDecrypt_m764004682
ghj:__ZN6il2cpp2os10ThreadImpl33UnregisterCurrentThreadForCleanupEv
gri:_Parser_ParseGroupingConstruct_m263270497
d2i:__ZN14dense_hash_mapI10KeyWrapperINSt3__24pairIPK9EventInfoP11Il2CppClassEEEj17ReflectionMapHashIS8_ENS9_14EqualsComparerINS1_8equal_toIS8_EEEENS1_9allocatorINS2_IKS9_jEEEEE15set_deleted_keyERSH_
Zw:__ZN27AnimationLayerMixerPlayable22PrepareAnimationEventsEfR13dynamic_arrayI22AnimationClipEventInfoLj4EE
Bqb:__Z14resize_trimmedINSt3__26vectorI17AnimationCurveTplIfE13stl_allocatorIS3_L18MemLabelIdentifier1ELi16EEEEEvRT_j
SWb:__ZN25CameraStackRenderingState19SetupLastEyeCamerasERK11CameraStack
HPa:__Z12GUIDToStringRK9UnityGUID
Hfe:_RSASslSignatureDeformatter_SetKey_m2204705853
zG:__ZN11SoundHandleC2ERKS_
it:__ZN17AnimationPlayableC2E18DirectorPlayerType
JOe:_InputField_set_shouldHideMobileInput_m1650743574
qQi:__ZNK6il2cpp5utils11collections13ArrayValueMapIPK10Il2CppType17Il2CppInteropData26InteropDataToTypeConverterNS_8metadata14Il2CppTypeLessENS8_26Il2CppTypeEqualityComparerEE10find_firstERKS5_
QJd:_FileStream_get_CanSeek_m331583577
Kgd:_DSAParameters_t1885824122_marshal_pinvoke_back
xz:__ZN8Animator22OnGraphTopologyChangedEP8Playablei
q3e:_Kernel_MultiplyByDword_m1266935086
rBd:_Convert_ToInt64_m3916071102
AYb:__ZN6Camera25StandaloneRenderToCubemapEP7TextureiPFvPK9SceneNodePK4AABBR9IndexListPvESA_j
lqf:_String_Trim_m3384720403
_Xa:__ZN14RenderSettings18TransferDeprecatedI14SafeBinaryReadEEvRT_
EJg:__Z93RuntimeInvoker_Single_t1397266774_SingleU26_t1922108698_Single_t1397266774_Single_t1397266774PFvvEPK10MethodInfoPvPS4_
mvi:_Event__ctor_m526447123
NMg:__Z88RuntimeInvoker_RuntimeObject_RuntimeObject_RuntimeObject_RuntimeObject_Int32_t2950945753PFvvEPK10MethodInfoPvPS4_
Ldg:_Type_ToString_m3975981286
lZ:__ZN12TLSAllocatorI14StackAllocatorE8AllocateEji
m$:__ZN16ScriptingManager18GetMonoScriptCacheEi
uri:_ExpressionAssertion__ctor_m2554412824
Yob:__Z18Transfer_BlittableI14SafeBinaryReadLb1EyEvRK29SerializationCommandArgumentsR31RuntimeSerializationCommandInfo
iRd:_NullReferenceException__ctor_m3076065613
$pc:__ZN8JSONRead8TransferIfEEvRT_PKc17TransferMetaFlagsb
Ubf:_X509SubjectKeyIdentifierExtension_Decode_m1505409124
Xma:__ZL23AddGpuProgramParametersR20GpuProgramParametersRKNSt3__26vectorIN9ShaderLab20SerializedSubProgram15MatrixParameterENS1_9allocatorIS5_EEEERKNS2_INS4_15VectorParameterENS6_ISB_EEEEiiP16PropertyNamesSet
AAa:__ZN6prcoreL17RemapGenericFloatI18TexFormatARGBFloat17TexFormatRGBAHalfEEvPKNS_9InnerInfoE
Qpf:_String_System_IConvertible_ToUInt16_m2888090399
jM:__ZN11AudioSource21ApplyCachedParametersE12SoundChannel
ZSd:_Assembly_InternalGetType_m3065345470
fR:__ZN13Simd4iFactoryIN6detail9FourTupleEEC2Eiiii
T3d:_ResourceSet__ctor_m3356376607
P6d:_PrimeGeneratorBase_get_PrimalityTest_m2487240563
Hth:__ZL56_ParameterInfo_t489405856_CustomAttributesCacheGeneratorP21CustomAttributesCache
B4a:__ZN15SerializeTraitsI33EnlightenTerrainChunksInformationE8TransferI14SafeBinaryReadEEvRS0_RT_
S5b:__ZNK32RendererMaterialAnimationBinding9BindValueER6ObjectRKN11UnityEngine9Animation14GenericBindingERNS3_10BoundCurveE
Qze:_Transform_1_Invoke_m1731820209_gshared
VYa:__Z13GetIAnimationv
Jya:__ZL18stbir__support_onef
hpf:_Single_CompareTo_m189772128
Mrc:__Z26Transfer_UnityEngineObjectI9JSONWriteLb0EEvRK29SerializationCommandArgumentsR31RuntimeSerializationCommandInfo
Rte:_DefaultComparer_Compare_m4042058291_gshared
Ybd:_Image_set_overrideSprite_m3213596394
h0a:__ZNSt3__26vectorIN4core12basic_stringIcNS1_20StringStorageDefaultIcEEEE13stl_allocatorIS5_L18MemLabelIdentifier1ELi16EEE6assignINS_11__wrap_iterIPS5_EEEENS_9enable_ifIXaasr21__is_forward_iteratorIT_EE5valuesr16is_constructibleIS5_NS_15iterator_traitsISF_E9referenceEEE5valueEvE4typeESF_SF_
AOc:__ZNSt3__27__sort5IRNS_6__lessIN2UI14DepthSortEntryES3_EEPS3_EEjT0_S7_S7_S7_S7_T_
BJd:_FileLoadException_ToString_m2989457882
cBi:_AudioListener_ClearExtensionProperties_m3849891634
Uxc:_UNITY_FT_DivFix
Z2h:_Array_InternalArray__get_Item_TisDecimal_t2948259380_m3511003792_gshared
Cmf:_SecurityElement_IsValidAttributeValue_m948345692
Nwc:__ZN19ControllerHitReport15onControllerHitERKN5physx16PxControllersHitE
Ba:invoke_vdd
yn:FUNCTION_TABLE_fiii
ONd:_TextWriter_Write_m2252948084
e8b:__Z19RegisterModule_Corev
dMc:__ZZ29InitializeTextRenderingModulevEN27cleanupAfterLoadRegistrator7ForwardEv
ckb:__ZNSt3__26__sortIRPFbRK23TransformAccessReadOnlyS3_EPS1_EEvT0_S8_T_
iDf:_CCFixed_FromDateTime_m3894190577
FWb:__Z29PluginsIssueRenderingExtEvent26UnityRenderingExtEventTypePv
DEg:__Z116RuntimeInvoker_RuntimeObject_RuntimeObject_Int32_t2950945753_RuntimeObject_RuntimeObject_RuntimeObject_RuntimeObjectPFvvEPK10MethodInfoPvPS4_
hNe:_MessageFormatter_ReadMethodCall_m2327590823
T4b:__Z14RandomRotationP9Texture2DPhiiii
fOf:_Array_InternalArray__ICollection_Add_TisUInt16_t2177724958_m3981262878_gshared
fyf:_Decimal_GetBits_m453754410
C_f:_HashSet_1_Contains_m3173358704_gshared
bzi:_ToggleEvent__ctor_m834619998
M8d:_PKCS1_Encode_v15_m2077073129
Lug:_RectOffset_get_left_m1232181034
KBa:__ZN4gles14UseGLSLProgramER15DeviceStateGLESjbij
eJj:_glDeleteProgram__wrapper
pfc:__Z50Register_UnityEngine_Camera_INTERNAL_get_pixelRectv
Sza:__ZN6prcoreL18BlitFloatToIntegerERK14ImageReferenceRS0_
cxf:_DBNull_System_IConvertible_ToUInt32_m3784627971
mce:_ClientSessionCache_Add_m964342678
UFa:__ZN13dynamic_arrayI15ComputeShaderCBLj4EE6assignEPKS0_S3_
AU:__ZN11UnityEngine15CloudWebService14RestDownloader17OnCompleteContentEv
UXi:__ZN15dense_hashtableINSt3__24pairIK10KeyWrapperINS1_IPK14Il2CppAssemblyP11Il2CppClassEEEjEES9_17ReflectionMapHashIS8_EN14dense_hash_mapIS9_jSD_NS9_14EqualsComparerINS0_8equal_toIS8_EEEENS0_9allocatorISB_EEE9SelectKeyESI_SK_E15insert_noresizeERKSB_
oyg:_Transform_get_localScale_m129152068
zyf:_DivideByZeroException__ctor_m3496959969
Qa:invoke_viffi
dz:__ZN17AnimationPlayable28UpdateInternalStateRecursiveILi1ELb0EEEvPK35AnimationPlayableEvaluationConstant
Aej:__ZN6il2cpp2gcL10CleanupCCWEPvS1_
Ta:invoke_vifff
SHj:_glGetVertexAttribiv__wrapper
Ne:_emscripten_request_fullscreen
Dei:_Predicate_1_Invoke_m851618236_gshared
LFb:__ZN20LocalFileSystemWebGL6DeleteER13FileEntryDatab
Pe:_emscripten_glDisableVertexAttribArray
VIf:_Array_InternalArray__ICollection_Remove_TisSingle_t1397266774_m3361324455_gshared
Um:FUNCTION_TABLE_iiiifiiii
Gga:__ZN4core8hash_mapINS_12basic_stringIcNS_20StringStorageDefaultIcEEEE13dynamic_arrayI4PPtrI6SpriteELj4EENS_4hashIS4_EENSt3__28equal_toIS4_EEE12delete_nodesEv
jc:invoke_fifffi
Ihh:_Collection_1_System_Collections_IList_Add_m2969482770_gshared
sJ:__ZN4FMOD5Sound15getNumSubSoundsEPi
ewa:__ZN4gles23ClearCurrentFramebufferEP7ApiGLESbbbRK10ColorRGBAffi
Wwe:_Enumerator_System_Collections_IDictionaryEnumerator_get_Entry_m3249874482_AdjustorThunk
Ihi:_UnityEvent_1_Invoke_m3604335408_gshared
_e:_emscripten_glDeleteObjectARB
f$c:_EventSystem_RaycastComparer_m3685368675
Vf:_IMG_Load
xIg:__Z131RuntimeInvoker_Void_t1185182177_RuntimeObject_RuntimeObject_Int64_t3736567304_ObjectU26_t2146539884_SerializationInfoU26_t419328957PFvvEPK10MethodInfoPvPS4_
xjc:__Z53Register_UnityEngine_RenderTexture_Internal_GetHeightv
B7e:_PKCS12_RemoveCertificate_m1421555398
L_e:_Slider_FindSelectableOnLeft_m1667068522
TAa:__ZN6prcoreL17RemapGenericFloatI17TexFormatRGBAHalf18TexFormatARGBFloatEEvPKNS_9InnerInfoE
lnc:__Z14GetBuiltinSkini
VJe:_MethodDictionary_get_Item_m1201458851
H7:___cxx_global_var_init_18
il:_JS_SystemInfo_GetBrowserVersionString
Ejb:__ZN2UI13RectTransform23VirtualRedirectTransferER14SafeBinaryRead
KAe:_Enumerator_MoveNext_m3045873697_gshared
eka:__ZNSt3__26vectorIN9ShaderLab20SerializedSubProgramENS_9allocatorIS2_EEE6assignIPS2_EENS_9enable_ifIXaasr21__is_forward_iteratorIT_EE5valuesr16is_constructibleIS2_NS_15iterator_traitsIS9_E9referenceEEE5valueEvE4typeES9_S9_
Ytc:__Z18Transfer_BlittableI8JSONReadLb0E8BitFieldEvRK29SerializationCommandArgumentsR31RuntimeSerializationCommandInfo
dmf:_SecurityPermission_set_Flags_m1503445204
w_f:_HashSet_1_CopyTo_m2849056227_gshared
Wyb:__ZL17Transfer_GUIStyleI18StreamedBinaryReadILb1EELb0EEvRK29SerializationCommandArgumentsR31RuntimeSerializationCommandInfo
_2e:_ModulusRing_Multiply_m343333088
Vha:__ZN9ShaderLab14SerializedPass8TransferI14SafeBinaryReadEEvRT_
doc:__Z71Register_UnityEngine_GUILayoutUtility_INTERNAL_CALL_Internal_MoveWindowv
XO:__ZN12AudioManager16SetListenerPauseEb
Rfb:__ZNSt3__26vectorIN30RuntimeInitializeOnLoadManager9ClassInfoE13stl_allocatorIS2_L18MemLabelIdentifier13ELi16EEE6assignINS_11__wrap_iterIPS2_EEEENS_9enable_ifIXaasr21__is_forward_iteratorIT_EE5valuesr16is_constructibleIS2_NS_15iterator_traitsISC_E9referenceEEE5valueEvE4typeESC_SC_
HJf:_SetPropertyUtility_SetStruct_TisSingle_t1397266774_m2805350785_gshared
X8i:__ZN6il2cpp2vm9Exception25RaiseOutOfMemoryExceptionERKNS_5utils10StringViewIDsEE
da:invoke_viiiiiiiiiii
avj:___syscall_ret
nmi:_DeriveBytes_set_Salt_m1400945044
o1c:_PointerEventData_set_worldNormal_m1888481930
csi:_AnchorInfo__ctor_m46784903
Uae:_CipherSuiteCollection_get_Item_m4188309062
Cge:_SslHandshakeHash_HashFinal_m2573455475
RHe:_SynchronizationAttribute_ReleaseLock_m1030353464
z7a:__ZN11ChannelInfo8TransferI19StreamedBinaryWriteILb0EEEEvRT_
_jj:__ZN4utf88internal13validate_nextIPKcEENS0_9utf_errorERT_S5_Rj
$Xh:__ZL53ToggleGroup_t123837990_CustomAttributesCacheGeneratorP21CustomAttributesCache
eOb:__ZN14qsort_internal13Partition3WayIP17RODataReplacementi19ROSorterReplacementEENSt3__24pairIT_S6_EES6_S6_T0_T1_
sRe:_InputField_CreateCursorVerts_m3585916868
xgc:__Z34Register_UnityEngine_Gradient_Initv
dHe:_Context_ToString_m1073616138
x6a:__ZN13ScreenManager23SetIsOrientationEnabledE18EnabledOrientationb
DOe:_InputField_EnforceTextHOverflow_m3400115777
ycb:__ZN9InputAxis8TransferI19StreamedBinaryWriteILb0EEEEvRT_
TDd:__Z33il2cpp_codegen_check_sub_overflowxx
WAj:dynCall_viififiii
qPe:_InputField_get_caretColor_m2973283772
q4h:_Resources_ConvertObjects_TisRuntimeObject_m1486780300_gshared
JAf:_Double_System_IConvertible_ToInt16_m3591921965_AdjustorThunk
Qci:_Comparison_1_Invoke_m2925518770_gshared
EQa:__ZN10GameObject23VirtualRedirectTransferER18StreamedBinaryReadILb0EE
fyi:_SymmetricTransform__ctor_m2693628991
cSd:_ObjectDisposedException__ctor_m1034312941
qg:_glFrontFace
Hug:_RectOffset__ctor_m3236153262
SUe:_MaskUtilities_IsDescendantOrSelf_m2247511982
aTb:__ZNSt3__26vectorI16ShadowCasterData13stl_allocatorIS1_L18MemLabelIdentifier2ELi16EEE21__push_back_slow_pathIKS1_EEvRT_
NMc:__Z51Register_UnityEngine_TextGenerator_GetLinesInternalv
gAe:_Enumerator_get_Current_m2250080680_AdjustorThunk
Syi:_AesManaged_set_Key_m767972181
VCd:_Int16_System_IConvertible_ToBoolean_m1656400658_AdjustorThunk
Sqd:_Byte_System_IConvertible_ToInt64_m285584218
xta:__ZN13GfxDeviceGLES22SetScissorRectPlatformERK5RectTIiE
iAa:__ZN6prcoreL17RemapGenericFloatI17TexFormatRGBFloat18TexFormatRGBAFloatEEvPKNS_9InnerInfoE
zNf:_Array_InternalArray__ICollection_Add_TisDictionaryEntry_t3123975638_m665385049_gshared
$Od:_MissingMemberException__ctor_m2707802176
fXc:__ZN20UnityConnectSettings10InitializeEv
gHi:_Canvas_get_renderMode_m841659411
H4a:__ZN15SerializeTraitsI13dynamic_arrayI28EnlightenRendererInformationLj8EEE19ResizeSTLStyleArrayERS2_i
gdd:_SerializationInfo_GetValue_m42271953
qG:__ZN9AudioClip11CreateSoundEv
r2i:__ZN14dense_hash_mapI10KeyWrapperINSt3__24pairIPK9FieldInfoP11Il2CppClassEEEj17ReflectionMapHashIS8_ENS9_14EqualsComparerINS1_8equal_toIS8_EEEENS1_9allocatorINS2_IKS9_jEEEEEC2EjRKSB_RKSF_
PZi:__ZNK15dense_hashtableINSt3__24pairIK10KeyWrapperINS1_IPK10MethodInfoP11Il2CppClassEEEjEES9_17ReflectionMapHashIS8_EN14dense_hash_mapIS9_jSD_NS9_14EqualsComparerINS0_8equal_toIS8_EEEENS0_9allocatorISB_EEE9SelectKeyESI_SK_E13find_positionERSA_
Esa:__ZN13GfxDeviceGLES20CreateComputeProgramEPKhj
AWc:__ZN11UnityEngine7Connect16PersistentValues13RestoreValuesER8JSONRead
MGf:_Guid_BaseToString_m3600006650
lOa:__ZN20ArchiveStorageReader31TryToReadDirectoryFromBlockDataEyPKvj
bbj:__ZN6il2cpp2vmL11GetIdentityEP14Il2CppIUnknown
snj:_GC_push_gc_structures
dee:_TlsServerCertificate_ProcessAsTls1_m819212276
z8h:_ReadOnlyCollection_1_System_Collections_Generic_ICollectionU3CTU3E_Clear_m2102011098_gshared
a2h:_Dictionary_2_Do_ICollectionCopyTo_TisRuntimeObject_m3942192587_gshared
sUi:__ZN6il2cpp6icalls8mscorlib6SystemL8IsPublicEPK9EventInfo
_6d:_PrimalityTests_RabinMillerTest_m2544317101
j6d:_Kernel_DwordDivMod_m1540317819
eah:_Enumerator_System_Collections_IEnumerator_get_Current_m1399273671_gshared
G_d:_TypeBuilder_GetPropertyImpl_m3104345782
T7a:__ZNSt3__213__stable_sortIRNS_4lessI4PPtrI11SpriteAtlasEEENS_11__wrap_iterIPS4_EEEEvT0_SA_T_NS_15iterator_traitsISA_E15difference_typeEPNSD_10value_typeEi
hHd:_Int64_ToString_m2085073918_AdjustorThunk
m$d:_FieldInfo_GetFieldOffset_m1356898082
KMf:_Array_InternalArray__IndexOf_TisTypeTag_t3541821701_m2988972362_gshared
Z8:__ZN8keywords6CreateEPKc
OJi:__ZL7log2_32j
S:Math_imul
yee:_TlsServerKeyExchange_Update_m453798279
K5a:__ZN11PlayerPrefs6GetIntERKN4core12basic_stringIcNS0_20StringStorageDefaultIcEEEEi
$ae:_CipherSuiteCollection_System_Collections_IList_IndexOf_m1361500977
E$e:_Text_set_fontStyle_m648756124
vMc:__Z45TextGenerator_CUSTOM_INTERNAL_get_rectExtentsP12Il2CppObjectP5RectTIfE
stf:_DateTime__ctor_m2135476686_AdjustorThunk
JP:__ZN11AudioSource12SetAudioClipEP9AudioClip
vvg:_RectTransform_GetLocalCorners_m823861473
evd:_SynchronizedArrayListWrapper_GetEnumerator_m1579424644
u_:__ZN18ScriptingArguments9AddObjectE18ScriptingObjectPtr
JQc:__Z39CanvasGroup_Get_Custom_PropInteractableP12Il2CppObject
ER:__ZN11UnityEngine15CloudWebService16SessionContainerD2Ev
KWc:__ZL38InitializeUnityConnectScriptingClassesv
nXb:__ZN13ProbeRenderer8ConvolveEbijjb
Lxi:_GUIUtility_set_systemCopyBuffer_m608712289
ywa:__ZN17GenericDynamicVBOC2ER9GfxDevice13GfxBufferModejj
mmc:__ZZN10GUIManager14InitGUIManagerEvEN41PreUpdateIMGUISendQueuedEventsRegistrator7ForwardEv
Xaf:_ServicePointManager_get_SecurityProtocol_m966397919
cDa:__ZN13dynamic_arrayIN18GlslGpuProgramGLES9GLProgramELj4EE6insertEPS1_jRKS1_
tDf:_CCGregorianCalendar_day_from_fixed_m1674702403
XS:__ZN11UnityEngine15CloudWebService17SessionEventQueue10PurgeItemsEj
TXb:__ZN6Camera16StandaloneRenderENS_10RenderFlagEP6ShaderRKN4core12basic_stringIcNS3_20StringStorageDefaultIcEEEE
ydf:_X509Chain_PrepareForNextCertificate_m3691934993
oyb:__Z18Transfer_BlittableI18StreamedBinaryReadILb1EELb1EtEvRK29SerializationCommandArgumentsR31RuntimeSerializationCommandInfo
NPh:__ZL58EventType_t3528516131_CustomAttributesCacheGenerator_keyUpP21CustomAttributesCache
Pvh:__ZL57X509Certificate_t713131622_CustomAttributesCacheGeneratorP21CustomAttributesCache
Lab:__ZN12BoneWeights48TransferI19StreamedBinaryWriteILb0EEEEvRT_
Jqa:__ZN9GfxDevice20DeallocRenderSurfaceEP17RenderSurfaceBase
ana:__ZN20GpuProgramParameters36UpdatePrepareValuesMaximumBufferSizeEv
e7h:_ReadOnlyCollection_1_System_Collections_IList_RemoveAt_m2129436005_gshared
R0e:_SimpleCollator_GetContraction_m2205549079
I7d:_ARC4Managed_GenerateKey_m1607343060
POf:_Array_InternalArray__ICollection_CopyTo_TisDecimal_t2948259380_m2749946216_gshared
cSa:__ZN12BaseRenderer23RendererBecameInvisibleEv
iJc:__ZN20TextRenderingPrivate8FontImpl13CharacterInfo8TransferI18StreamedBinaryReadILb0EEEEvRT_
Dvb:__Z29Transfer_Blittable_ArrayFieldI24GenerateTypeTreeTransferfEvRT_R9ArrayInfoRK23StaticTransferFieldInfo
Bba:__ZNSt3__26__treeINS_12__value_typeIN4core12basic_stringIcNS2_20StringStorageDefaultIcEEEES6_EENS_19__map_value_compareIS6_S7_NS_4lessIS6_EELb1EEE13stl_allocatorIS7_L18MemLabelIdentifier13ELi16EEE7destroyEPNS_11__tree_nodeIS7_PvEE
ong:_UnityEvent_FindMethod_Impl_m2312362624
hZb:__ZN19CustomRenderTexture9AddParentE4PPtrIS_E
Y6:__ZN8Gradient8TransferI14SafeBinaryReadEEvRT_
_ig:_Vector3_GetHashCode_m2879461828
eri:_Parser_ParseSpecial_m1961501104
$of:_Single_System_IConvertible_ToUInt64_m3299129161_AdjustorThunk
g0a:__ZNSt3__26vectorIN4core12basic_stringIcNS1_20StringStorageDefaultIcEEEE13stl_allocatorIS5_L18MemLabelIdentifier1ELi16EEE7reserveEj
Caf:_IPv6Address_AsIPv4Int_m844941024
ASd:_Random__ctor_m3209279193
Vee:_RecordProtocol__cctor_m1280873827
R6f:_StringBuilder__ctor_m3504405255
b5d:_Marshal__cctor_m4007734770
mmj:_GC_new_free_list_inner
J6e:_SymmetricTransform_Random_m2004892672
Tlj:_GC_err_printf
m9d:_RSAManaged_DecryptValue_m1804388365
Nie:_InternalEnumerator_1_System_Collections_IEnumerator_get_Current_m2980550840_AdjustorThunk
Muc:__ZN8JSONRead8TransferI10RectOffsetEEvRT_PKc17TransferMetaFlagsb
FS:__ZN9JSONWrite8TransferIN11UnityEngine15CloudWebService14DataErrorEvent15FileErrorDetailEEEvRT_PKc17TransferMetaFlags
UFd:_Int32_Parse_m2087562008
GLf:_Array_compare_TisVector4_t3319028937_m1974066282_gshared
a2d:_MonoProperty_GetAccessors_m412928203
eji:_TweenRunner_1_Start_m3757154622_gshared
wJ:__ZN12SoundManager20RegisterModifiedClipEP10SampleClip
nEe:_RemotingServices_GetClientChannelSinkChain_m1499550585
_Sd:_Assembly_FillName_m1660001542
wth:__ZL56_EventBuilder_t2558055199_CustomAttributesCacheGeneratorP21CustomAttributesCache
okf:_SHA384Managed_processBlock_m1272529332
aM:__ZN11AudioSource4PlayEd
Nsd:_Char_ToString_m278452217_AdjustorThunk
VNi:__ZN15dense_hashtableI10KeyWrapperIPK17Il2CppGenericInstES4_N6il2cpp8metadata21Il2CppGenericInstHashEN14dense_hash_setIS4_S7_NS4_14EqualsComparerINS6_24Il2CppGenericInstCompareEEENSt3__29allocatorIS4_EEE8IdentityESB_SE_E13set_empty_keyERKS4_
eCg:__Z63RuntimeInvoker_Char_t3634460470_Int16_t2552820387_RuntimeObjectPFvvEPK10MethodInfoPvPS4_
GAd:_Convert_ToDouble_m2924063577
CUd:_CustomAttributeNamedArgument_ToString_m1488801416_AdjustorThunk
pBe:_ValueCollection_System_Collections_Generic_ICollectionU3CTValueU3E_Remove_m3673494156_gshared
I2a:__ZN7Cubemap23VirtualRedirectTransferER18StreamedBinaryReadILb0EE
Nhc:__ZNSt3__27__sort4IRNS_6__lessI11KeyframeTplIfES3_EEPS3_EEjT0_S7_S7_S7_T_
LFc:_Read_CVT
QL:__ZN11AudioSource23VirtualRedirectTransferER19StreamedBinaryWriteILb0EE
T0e:_SimpleCollator_GetTailContraction_m2107754083
rub:__ZL26Transfer_SimpleNativeClassI24GenerateTypeTreeTransfer17AnimationCurveTplIfELb0EEvRK29SerializationCommandArgumentsR31RuntimeSerializationCommandInfo
Mvc:__ZN8JSONRead21TransferSTLStyleArrayI13dynamic_arrayI9BoundsIntLj4EEEEvRT_17TransferMetaFlags
P4a:__ZN24GenerateTypeTreeTransfer8TransferI13dynamic_arrayI33EnlightenTerrainChunksInformationLj4EEEEvRT_PKc17TransferMetaFlags
iuf:_DateTimeFormatInfo__ctor_m3106345035
Rbe:_TlsServerKeyExchange_verifySignature_m3412856769
QVf:_EqualityComparer_1_System_Collections_IEqualityComparer_GetHashCode_m4137147946_gshared
Yca:__ZN16LightmapSettings20DidChangeActiveSceneEP10UnitySceneS1_
a_h:__ZL59g_AssemblyU2DCSharp_Assembly_CustomAttributesCacheGeneratorP21CustomAttributesCache
GUi:__ZN6il2cpp5utils9PathUtils8BasenameIcEENSt3__212basic_stringIT_NS3_11char_traitsIS5_EENS3_9allocatorIS5_EEEERKSA_
$Le:_RemotingProxy__cctor_m4096951805
Rnc:__Z35Register_UnityEngine_Event_get_typev
g9i:__ZN6il2cpp2vm9Exception23GetInvalidCastExceptionERKNS_5utils10StringViewIDsEE
ez:__ZN8Animator28BuildControllerPlayableCacheEv
bZ:__Z63ThreadAndSerializationSafeCheckGetMonoBehaviourBeingTransferredv
hAf:_StackTrace__ctor_m206492268
B1g:_List_1_set_Item_m4224739467_gshared
A6c:_ColorTween_set_startColor_m2562993758_AdjustorThunk
sVd:_ConstructorBuilder_get_Name_m2426555260
thc:__Z37Register_UnityEngine_Input_GetAxisRawv
fri:_Parser_ParseCharacterClass_m4285351396
DBd:_Convert_ToSByte_m2653418303
Sxd:_SyncHashtable__ctor_m2449935938
OL:__ZN11AudioSource5ResetEv
Ajf:_RSAPKCS1SignatureFormatter_SetKey_m2935054088
ENb:__ZN12ImageFilters27SetSurfaceUseResolvedBufferEP13RenderTextureb
g8a:__ZN14Texture2DArray23VirtualRedirectTransferER18StreamedBinaryReadILb0EE
z8f:_UTF7Encoding_GetByteCount_m209415911
vjb:__ZN2UI13RectTransform13AwakeFromLoadE17AwakeFromLoadMode
Nti:_RegularExpression_Compile_m2385682508
DDf:_CompareInfo__cctor_m1837489679
ASb:__ZN14qsort_internal30FindAndMovePivotToLastPositionIP20ShadowCasterSortDatai26ShadowCasterSortDataSorterEEvT_S4_T0_T1_
Pnb:__Z18Transfer_BlittableI14SafeBinaryReadLb1EiEvRK29SerializationCommandArgumentsR31RuntimeSerializationCommandInfo
Edf:_X509ExtensionEnumerator_get_Current_m256207749
a8:__GLOBAL__sub_I_modules_profiler_public_0_cpp
Xhb:__ZN17PersistentManager13GetAllFileIDsERKN4core12basic_stringIcNS0_20StringStorageDefaultIcEEEER13dynamic_arrayIxLj8EE
lod:_Array_Sort_m182264525
KSe:_LayoutGroup_set_padding_m282562135
WTd:_Default_IsArrayAssignable_m953489228
Yeg:_UInt16_ToString_m355311020_AdjustorThunk
nid:_RC2__ctor_m1146135664
Ek:_glGetStringi
nsf:_DecoderExceptionFallback_CreateFallbackBuffer_m1133375601
Zcj:__ZNK15dense_hashtableI10KeyWrapperIP18Il2CppGenericClassES3_N6il2cpp8metadata22Il2CppGenericClassHashEN14dense_hash_setIS3_S6_NS3_14EqualsComparerINS5_25Il2CppGenericClassCompareEEENSt3__29allocatorIS3_EEE8IdentityESA_SD_E10test_emptyERK30dense_hashtable_const_iteratorIS3_S3_S6_SF_SA_SD_E
wxe:_Enumerator_get_CurrentKey_m889650866_gshared
wA:__ZN8Animator9WriteStepEy
Pwe:_Enumerator_VerifyCurrent_m829026141_gshared
X8b:__ZN16PropertyAccessorC2Ev
T5a:__ZNSt3__23mapIN4core12basic_stringIcNS1_20StringStorageDefaultIcEEEE9PrefValueNS_4lessIS5_EENS_9allocatorINS_4pairIKS5_S6_EEEEEixERSB_
r8b:__ZN15DirectorManager22ConstructPlayableGraphEv
Bch:_Collection_1_ConvertItem_m1743542180_gshared
CMc:__Z38Register_UnityEngine_Font_HasCharacterv
xWb:__Z35IntersectSpherePlaneBoundsOptimizedRKN4math7_float4EPS1_i
Hif:_RNGCryptoServiceProvider__cctor_m3587754670
Nfj:__ZN6il2cpp2os5posix15PosixWaitObject13InterruptWaitEv
vca:__Z22CleanupLODGroupManagerPv
Nnc:__Z21Event_CUSTOM_PopEventP12Il2CppObject
ol:_glUniform3fv
gsj:__ZNK6il2cpp8metadata24Il2CppGenericInstCompareclERK10KeyWrapperIPK17Il2CppGenericInstES8_
Veb:__ZNSt3__218__insertion_sort_3IRN15ResourceManager10Dependency6SorterEPS2_EEvT0_S6_T_
Zdf:_X509ChainElement_Set_m655180762
Wqg:_MonoBehaviour_StopCoroutine_m615723318
lRb:__ZNK16LightmapSettings31GetRealtimeLightmapDecodeValuesEv
QK:__ZN5audio5mixer12SetSuspendedERNS0_16AudioMixerMemoryEb
Pib:__ZN17PersistentManager21UnloadNonDirtyStreamsEv
hJg:__Z96RuntimeInvoker_Int32_t2950945753_RuntimeObject_Int32_t2950945753_RuntimeObject_Int32_t2950945753PFvvEPK10MethodInfoPvPS4_
nui:_Uri_get_Parser_m3737125102
pHi:_Canvas_get_overrideSorting_m2740418462
Xag:_Scheduler__ctor_m3313141270
h9a:__ZN12ImageFilters4BlitER17ShaderPassContextP7TextureP13RenderTextureiPK18SharedMaterialDataPKcP6ShaderiNS_9BlitFlagsE11CubemapFaceRK8Vector2fSH_
Nqf:_String_LastIndexOf_m3451222878
bpi:_Mark_get_Index_m3048692661
sYh:__ZL69CanvasScaler_t2767979955_CustomAttributesCacheGenerator_m_ScaleFactorP21CustomAttributesCache
wFe:_ConfigHandler_CheckPath_m3079311646
fT:__ZN11UnityEngine15CloudWebService10RestClientINS0_23WebRequestRestHeaderMapEED2Ev
Kl:_emscripten_glDepthMask
eEe:_RemotingServices_CreateClientProxy_m3886727610
Nxa:__ZN4crnd25static_huffman_data_model22prepare_decoder_tablesEv
_ee:_RecordProtocol_GetMessage_m2086135164
Mmc:__Z23GUIStatePopDisplayIndexv
bda:__Znaj
EJj:_emscripten_glEnableClientState__wrapper
L9:__ZN17MessageIdentifierC2EPKcNS_7OptionsEPKN5Unity4TypeES1_
Oqg:_Mesh_SetTriangles_m1523451247
Qof:_Single_System_IConvertible_ToSByte_m1208276900
c$h:_Array_InternalArray__set_Item_TisVector4_t3319028937_m757305038_gshared
AHg:__Z105RuntimeInvoker_Void_t1185182177_RuntimeObject_RuntimeObject_RuntimeObject_RuntimeObject_Int32_t2950945753PFvvEPK10MethodInfoPvPS4_
_Ae:_ValueCollection_System_Collections_Generic_ICollectionU3CTValueU3E_Add_m3298059628_gshared
BCg:__Z64RuntimeInvoker_RuntimeObject_Int16_t2552820387_Int16_t2552820387PFvvEPK10MethodInfoPvPS4_
vQ:__Z55Register_UnityEngine_AudioSource_get_spatializeInternalv
bLa:__ZN14SafeBinaryRead8TransferI14ConstantStringEEvRT_PKc17TransferMetaFlags
RLb:__ZNK6Camera16GetStereoEnabledEv
iMg:__Z72RuntimeInvoker_Int32_t2950945753_TimeSpan_t881159249_TimeSpan_t881159249PFvvEPK10MethodInfoPvPS4_
zfe:_SendRecordAsyncResult_SetComplete_m153213906
Gna:__ZL24FindBelongingStructParamRPKcRNSt3__26vectorIN9ShaderLab20SerializedSubProgram14ConstantBufferENS2_9allocatorIS6_EEEE
u5b:__ZN12LightManager15InitializeClassEv
ibg:_WaitHandle__cctor_m4242752477
f$a:__ZN9ShaderLab11shaderprops16GetComputeBufferEPK19ShaderPropertySheetS3_NS_16FastPropertyNameE
jkj:__ZN6il2cpp6icalls8mscorlib6System10Reflection10MethodBase31GetMethodFromHandleInternalTypeEii
K_:__ZN18ScriptingArgumentsC2Ev
ujg:_Vector3_op_Equality_m4231250055
$Ej:_emscripten_glBlendFuncSeparate__wrapper
dJd:_FileSystemInfo__ctor_m3769019897
G3h:_Array_InternalArray__get_Item_TisContentType_t1787303396_m421427711_gshared
Qua:__Z17HasSampledTexture14GraphicsFormat13formatSupport
eNb:__ZNK25CameraStackRenderingState27GetStereoImageEffectTextureEb
Hhd:_HMACSHA384__ctor_m1677515580
Dif:_RIPEMD160Managed_J_m1336489154
sp:__ZN8Vector3f8TransferI14SafeBinaryReadEEvRT_
cSi:__ZN6il2cpp6icalls6System6System3Net7Sockets6Socket7ReceiveEiP11Il2CppArrayiiNS4_11SocketFlagsEPi
wo:FUNCTION_TABLE_ii
URa:__ZN10TagManager8TransferI18StreamedBinaryReadILb0EEEEvRT_
mrc:__Z18Transfer_BlittableI9JSONWriteLb0E8BitFieldEvRK29SerializationCommandArgumentsR31RuntimeSerializationCommandInfo
cLd:_MemoryStream_set_Capacity_m1773624579
R4i:__ZNK15dense_hashtableINSt3__24pairIK10KeyWrapperINS1_IP11Il2CppClassjEEES4_EES6_N6il2cpp8metadata14ArrayClassHashEN14dense_hash_mapIS6_S4_SB_NS6_14EqualsComparerINSA_17ArrayClassCompareEEENS0_9allocatorIS8_EEE9SelectKeyESF_SH_E10test_emptyEj
Qia:__ZNSt3__26vectorIN9ShaderLab20SerializedSubProgram15StructParameterENS_9allocatorIS3_EEE8__appendEj
tb:invoke_diiii
HDj:b47
nOg:__Z95RuntimeInvoker_Void_t1185182177_RuntimeObject_RuntimeObject_SByte_t1669577662_SByte_t1669577662PFvvEPK10MethodInfoPvPS4_
AMa:__Z24CreateDirectoryRecursiveRKN4core12basic_stringIcNS_20StringStorageDefaultIcEEEE
tDj:b41
kla:__ZN9ShaderLab20SerializedSubProgram8TransferI18StreamedBinaryReadILb0EEEEvRT_
sDj:b40
sKh:__ZL54ContextMenu_t1295656858_CustomAttributesCacheGeneratorP21CustomAttributesCache
l9:__ZN13RuntimeStaticI21ScalableBufferManagerLb0EE13StaticDestroyEPv
iNc:__ZN2UI13CanvasManager9AddCanvasEPNS_6CanvasE
_8a:__ZN9Texture3D8TransferI19StreamedBinaryWriteILb0EEEEvRT_
JNb:__ZNK6Camera22CalculateRenderingPathEv
nBd:_Convert_ToInt64_m3758262873
fC:__ZN11UnityEngine9Animation37SetGenericRootTransformPropertyValuesERKNS0_30AnimatorGenericBindingConstantERKN7mecanim10ValueArrayER9Transformbb
_Da:__Z13ConvertMipmap14GraphicsFormatPKvS_Pviiii
Zsb:__ZL12InvokeMethodI17RemapPPtrTransferEvRK29SerializationCommandArgumentsR31RuntimeSerializationCommandInfo
G9e:_RemoteCertificateValidationCallback_Invoke_m3086073466
Nrf:_StringComparer_Compare_m991165676
sDc:_tt_sbit_decoder_load_image
Sii:_U3CStartU3Ec__Iterator0_Dispose_m261027331_gshared
ZEa:__ZN4core8hash_mapIPK17RenderSurfaceBaseP13RenderTexture19PointerHashFunctionIS3_ENSt3__28equal_toIS3_EEE6insertERKNS8_4pairIKS3_S5_EE
Gmc:__ZNSt3__24listIN10GUIManager12SortedScriptE11memory_poolIS2_EE6__sortI13OldSortScriptEENS_15__list_iteratorIS2_PvEESA_SA_jRT_
Bfh:_Collection_1_System_Collections_IList_Add_m3364892189_gshared
Y1g:_List_1_AddEnumerable_m3500350831_gshared
Z8d:_PrivateKeyInfo_get_PrivateKey_m3647771102
RUc:__ZN18UnityConnectClient12CloseServiceEv
O7i:__ZN6il2cpp6icalls8mscorlib6System9ThreadingL11ThreadStartEPv
Vea:__ZN15DirectorManager12OnSampleTimeEv
BZd:_TypeBuilder_check_not_created_m3652863637
K2c:_StandaloneInputModule_UpdateModule_m450861257
fGi:_Font_add_textureRebuilt_m2164317336
Abi:_ReadOnlyCollection_1_System_Collections_IList_Insert_m2928873627_gshared
xXf:_EqualityComparer_1__cctor_m314889309_gshared
h6:__ZN12CachedReader10Align4ReadEv
$mi:_X501__cctor_m2428304915
oHi:_Canvas_get_renderOrder_m1489855841
_Cg:__Z50RuntimeInvoker_Void_t1185182177_Single_t1397266774PFvvEPK10MethodInfoPvPS4_
Gvi:_Event_ToString_m1688862299
cKa:__ZNK9Behaviour22GetTypeVirtualInternalEv
sDf:_CCGregorianCalendar_month_from_fixed_m4268992710
xLf:_Array_compare_TisUICharInfo_t75501106_m1310495481_gshared
hXb:__Z21GetScriptingArraySize17ScriptingArrayPtr
GIc:__ZN20TextRenderingPrivate8FontImpl8TransferI14SafeBinaryReadEEvRT_
P9h:_ReadOnlyCollection_1_System_Collections_IList_Clear_m4022532825_gshared
$5f:_Encoding_get_ASCII_m3595602635
Fra:__ZN9GfxDevice17ImmediateTexCoordEifff
qWd:_DerivedType_GetCustomAttributes_m3536779709
Hyh:__ZL93Interlocked_t2273387594_CustomAttributesCacheGenerator_Interlocked_CompareExchange_m388540288P21CustomAttributesCache
D_d:_MethodBase_get_IsAbstract_m428833029
Atb:__Z35Transfer_Blittable_FixedBufferFieldI24GenerateTypeTreeTransferhEvRK29SerializationCommandArgumentsR31RuntimeSerializationCommandInfo
VCj:_emscripten_glUniform4f__wrapper
P1f:_Enumerator_MoveNext_m2595190390_AdjustorThunk
VMf:_Array_InternalArray__IndexOf_TisColor32_t2600501292_m3783551884_gshared
oY:__ZNK6Camera16GetProjectionFarEv
Nq:__Z24InverseTransformRotationRK23TransformAccessReadOnlyRKN4math7_float4E
$ni:_X509Chain_Build_m2469702749
VL:__ZN11AudioSource6UpdateEv
i1a:__ZNK14PlayableOutput11DerivesFromE17ScriptingClassPtr
v2a:__ZN7Texture34CreateFileTextureUploadInstructionE18TextureUploadFlagsj
h4e:_BitConverterLE_ULongFromBytes_m1677445591
zZd:_TypeBuilder_DefineConstructor_m2989882735
fPa:__ZN25SingleBlockMemoryFileDataC2E10MemLabelIdPvjb
nD:__ZN8Animator8TransferI14SafeBinaryReadEEvRT_
WVb:__ZN27IntermediateRendererManager24GetIntermediateRenderersEi
C1:__Z23AsyncReadForceCloseFileRKN4core12basic_stringIcNS_20StringStorageDefaultIcEEEE
Ut:__ZN17AnimationPlayable34CollectAnimatorControllerPlayablesER13dynamic_arrayIP26AnimatorControllerPlayableLj4EE
PO:__ZN16BaseVideoTexture19UpdateVideoTexturesEv
$0d:_MonoField_GetValue_m3124733531
eWa:__Z28BuildSingleStreamChannelInfo17ShaderChannelMaskRK20VertexChannelsLayoutS_S2_P11ChannelInfo
E6a:__ZN6Sprite23VirtualRedirectTransferER19StreamedBinaryWriteILb0EE
v$c:_EventTrigger_Execute_m2453060771
Eci:_Comparison_1_Invoke_m517083441_gshared
AJg:__Z253RuntimeInvoker_Int32_t2950945753_RuntimeObject_Int32_t2950945753_Int32_t2950945753_RuntimeObject_Int32_t2950945753_UInt32U26_t3735378166_UInt32U26_t3735378166_RuntimeObject_DecoderFallbackBufferU26_t3866396827_ByteU5BU5DU26_t4057885439_SByte_t1669577662PFvvEPK10MethodInfoPvPS4_
RYi:__ZNK15dense_hashtableINSt3__24pairIK10KeyWrapperINS1_IPK9FieldInfoP11Il2CppClassEEEjEES9_17ReflectionMapHashIS8_EN14dense_hash_mapIS9_jSD_NS9_14EqualsComparerINS0_8equal_toIS8_EEEENS0_9allocatorISB_EEE9SelectKeyESI_SK_E5beginEv
Tna:__ZNK9ShaderLab7Program19HasMatchingVariantsERK13dynamic_arrayI16ShaderKeywordSetLj4EE
jB:__ZN15SerializeTraitsIN4math4trsXEE8TransferI8BlobSizeEEvRS1_RT_
zva:__ZN14DataBufferGLES11CopySubDataEPKS_jjj
fe:_emscripten_glVertexPointer
kPc:__ZN2UI13PrepareOutputERNS_7BatchesEjjNS_30AdditionalCanvasShaderChannelsE
TUi:__ZN6il2cpp2vm7Runtime47RaiseExecutionEngineExceptionIfMethodIsNotFoundEPK10MethodInfo
Jpi:_PatternCompiler_GetMachineFactory_m3758869886
dTb:__Z17GetFrustumPortionPK8Vector3fffPS_
yaj:__ZN15dense_hashtableINSt3__24pairIK10KeyWrapperIP14Il2CppIUnknownEjEES5_N6il2cpp5utils11PointerHashIS3_EEN14dense_hash_mapIS5_jSB_NS5_14EqualsComparerINS0_8equal_toIS4_EEEENS0_9allocatorIS7_EEE9SelectKeyESG_SI_E14squash_deletedEv
M$c:_EventTrigger_OnCancel_m585099428
Swi:_GUILayoutEntry_ApplyOptions_m1741659338
ked:_RuntimeTypeHandle_Equals_m2857439487_AdjustorThunk
wpa:__ZNK9GfxDevice27GetPlatformAdjustedViewportEv
W6h:_ReadOnlyCollection_1_System_Collections_Generic_IListU3CTU3E_set_Item_m88350439_gshared
Odi:_Func_3_Invoke_m1194147890_gshared
ssi:_Reference_Compile_m4195878675
Guj:_InputBuffer_remove_onCommandSent_m3139499669
i9h:_ReadOnlyCollection_1_System_Collections_ICollection_CopyTo_m2672196987_gshared
$8b:__ZN16StreamedResource8TransferI24GenerateTypeTreeTransferEEvRT_
Zug:_RectTransform_get_anchorMin_m2928307238
Ysd:_ArrayList__ctor_m3828927650
Hta:__ZThn9568_N13GfxDeviceGLES26EnableScissorRectsPlatformEv
IGa:__ZN10Matrix3x3f15InvertTransposeEv
cxi:_GUILayoutGroup_SetHorizontal_m996475327
Vwi:_GUILayoutEntry__cctor_m663865902
lLb:__Z11IsBatchmodev
s0f:_Enumerator_System_Collections_IEnumerator_get_Current_m713684915_gshared
zrb:__Z29Transfer_Blittable_ArrayFieldI14SafeBinaryRead8Vector3fEvRT_R9ArrayInfoRK23StaticTransferFieldInfo
vJc:__ZN20TextRenderingPrivate8FontImpl18ResetCachedTextureEv
vTi:__ZN6il2cpp6icalls8mscorlib6SystemL16GetFieldFromTypeINS_5utils10functional6FilterINSt3__212basic_stringIcNS7_11char_traitsIcEENS7_9allocatorIcEEEENS4_13VmStringUtils21CaseSensitiveComparerEEEEEP21Il2CppReflectionFieldP11Il2CppClassSK_iRKT_
Jkc:__Z27Screen_Get_Custom_PropWidthv
Wmj:_GC_print_finalization_stats
Jxi:_GUITargetAttribute_GetGUITargetAttrValue_m2954410352
Uec:__Z53Register_UnityEngine_Behaviour_get_isActiveAndEnabledv
tod:_SimpleEnumerator_get_Current_m72361444
hq:__ZNSt3__26vectorIN4core12basic_stringIcNS1_20StringStorageDefaultIcEEEENS_9allocatorIS5_EEE8__appendEj
cP:__ZN13ProduceHelperI10SampleClipLb0EE7ProduceE10MemLabelId18ObjectCreationMode
ieb:__ZN26PlayerSettingsSplashScreen8TransferI17RemapPPtrTransferEEvRT_
T3e:_ASN1_set_Value_m2803403806
CTi:__ZN6il2cpp6icalls8mscorlib6SystemL17CollectTypeFieldsINS_5utils10functional10TrueFilterEEEvP11Il2CppClassPKS7_iRNSt3__26vectorIP9FieldInfoNSB_9allocatorISE_EEEERKT_
H1b:__Z13GetTagManagerv
Yld:_Hashtable__ctor_m1815022027
W8f:_UTF8Encoding_GetChars_m1433288684
FJi:__ZL10roundUp128PyS_
oR:__ZN11UnityEngine15CloudWebService17CloudJobSchedulerD0Ev
Whe:_ArrayReadOnlyList_1_Contains_m381552673_gshared
Ecg:_TimeZone_ToUniversalTime_m2789507578
WCg:__Z96RuntimeInvoker_Boolean_t97287965_RuntimeObject_RuntimeObject_Int32_t2950945753_Int32_t2950945753PFvvEPK10MethodInfoPvPS4_
ZLf:_Array_IndexOf_TisUICharInfo_t75501106_m3198896198_gshared
GNc:__ZNK2UI11CanvasGroup22GetTypeVirtualInternalEv
rde:_Context_get_Current_m2853615040
Ruj:_Keyboard_WarnIfTerminalNotConneced_m1063217717
_mc:__Z21CleanupGlobalGUIStatev
Gdg:_Type_IsContextfulImpl_m3693603908
k1f:_Enumerator_VerifyState_m2873941769_gshared
OAb:__Z18Transfer_BlittableI18StreamedBinaryReadILb0EELb1EN4math12int3_storageEEvRK29SerializationCommandArgumentsR31RuntimeSerializationCommandInfo
fIa:__ZN22VertexDeclarationCache5ClearEv
Sfd:_CspParameters__ctor_m3852972821
i_b:__ZN17PersistentManager12SetPathRemapERKN4core12basic_stringIcNS0_20StringStorageDefaultIcEEEES6_
xw:__Z27ProcessRootMotionEmptyMixerP35AnimationPlayableEvaluationConstantP32AnimationPlayableEvaluationInputP33AnimationPlayableEvaluationOutput
GUb:__ZN6Camera24PrepareCullingParametersERK23CameraCullingParameters13RenderingPathR11CullResults
tbc:__Z12SetIUISystemP9IUISystem
Bgb:__ZN19RuntimeSceneManager22EndIntegrateMainThreadEP10UnitySceneNS_11LoadingModeE
H0h:_Array_Sort_TisUICharInfo_t75501106_m3474449559_gshared
$sb:__Z26Transfer_UnityEngineObjectI17RemapPPtrTransferLb0EEvRK29SerializationCommandArgumentsR31RuntimeSerializationCommandInfo
Gqi:_QuickSearch_GetShiftDistance_m2542665852
f3h:_Array_InternalArray__get_Item_TisCustomAttributeTypedArgument_t2723150157_m2639399822_gshared
i2e:_BigInteger_GenerateRandom_m3141592944
uvb:__Z29Transfer_Blittable_ArrayFieldI24GenerateTypeTreeTransfer4AABBEvRT_R9ArrayInfoRK23StaticTransferFieldInfo
Nhf:_Interval_Contains_m1454846757
bad:_Graphic_CacheCanvas_m1120385152
Yuj:_emscripten_GetProcAddress
Ca:invoke_fiiifii
swj:_modff
DYa:__ZN20SphericalHarmonicsL219AddDirectionalLightERKN4math7_float3ERKNS0_7_float4E
Mea:__Z26ScheduleJobForEachInternalR8JobFencePFvPvjES1_iPFvS1_E11JobPriority
YKb:__ZZ23InitPlayerLoopCallbacksvEN41PostLateUpdateProfilerEndFrameRegistrator7ForwardEv
Nbc:__ZN9Scripting18RaiseMonoExceptionEPKcz
gNc:__ZN2UI13UIInstruction19ClearSharedMeshDataER8JobFence
P7b:__ZN10GameObject17WillHandleMessageERK17MessageIdentifier
Kmf:_StrongNamePublicKeyBlob_Equals_m3655422942
Hnf:_SecurityContext__ctor_m1730177197
zIi:_RectTransformUtility_GetTransposed_m3952754222
T5b:__ZN9ShaderLab16FastPropertyName15InitBy28BitHashEj
W0g:_List_1_System_Collections_IList_set_Item_m4182383657_gshared
cGg:__Z96RuntimeInvoker_Void_t1185182177_Int32_t2950945753_Single_t1397266774_RuntimeObject_RuntimeObjectPFvvEPK10MethodInfoPvPS4_
_ve:_Enumerator_System_Collections_IDictionaryEnumerator_get_Key_m195047678_AdjustorThunk
nHi:_Canvas_get_pixelPerfect_m333060872
_9a:__ZN17PackedFloatVector12UnpackFloatsEPfiiii
Cz:__ZN17AnimationPlayable28UpdateInternalStateRecursiveILi3ELb0EEEvPK35AnimationPlayableEvaluationConstant
Fsa:__ZN13GfxDeviceGLES21DestroyComputeProgramER12ObjectHandleI18ComputeProgram_TagPvE
dqi:_PatternCompiler_EmitIfDefined_m2075050865
Wxf:_Decimal_System_IConvertible_ToInt64_m1446427516_AdjustorThunk
zca:__ZN17UniqueIDGenerator16DestroyPureIndexEj
dRd:_NotImplementedException__ctor_m3095902440
Y$:__ZL21AppendNestedClassName17ScriptingClassPtrRN4core17string_with_labelILi1EEE
xia:__ZN14SafeBinaryRead21TransferSTLStyleArrayINSt3__26vectorIN9ShaderLab20SerializedSubProgram12UAVParameterENS1_9allocatorIS5_EEEEEEvRT_17TransferMetaFlags
iGi:_FontTextureRebuildCallback_Invoke_m3604797831
xS:__ZN24TextDOMTransferWriteBaseI9JSONWriteE12PushMetaFlagEi
Ith:__ZL59_PropertyBuilder_t1366136710_CustomAttributesCacheGeneratorP21CustomAttributesCache
kBa:__ZN6prcoreL26RemapGenericIntegerToFloatI17TexFormatARGB888815TexFormatRFloatEEvPKNS_9InnerInfoE
WSi:__ZN6il2cpp2vm10ThreadPool10InitializeEv
u4g:_List_1__ctor_m808270210_gshared
QWi:__ZN6il2cpp2vm17TypeNameParseInfoD2Ev
j_f:_PrimeHelper_ToPrime_m3704362632_gshared
WI:__ZN4FMOD7Channel7setModeEj
Exf:_Decimal_System_IConvertible_ToType_m2919262279
szg:_Vector2_get_right_m1027081661
xX:__ZNK8Renderer8GetLayerEv
$Ld:_Stream_Close_m771352034
_te:__ZN21InterfaceFuncInvoker1Ii19TimeSpan_t881159249E6InvokeEjP11Il2CppClassP12Il2CppObjectS0_
qPb:__ZNK6Camera20GetReplacementShaderEv
u7g:_List_1_System_Collections_IList_Remove_m4226673807_gshared
irj:__ZNSt3__26__treeINS_12__value_typeINS_12basic_stringIcNS_11char_traitsIcEENS_9allocatorIcEEEEPFvvEEENS_19__map_value_compareIS7_SA_NS_4lessIS7_EELb1EEENS5_ISA_EEE4findIS7_EENS_15__tree_iteratorISA_PNS_11__tree_nodeISA_PvEEiEERKT_
zya:__ZL23stbir__calculate_memoryP11stbir__info
Xgf:_Interpreter_Close_m126356671
t9a:__ZNK6Camera18GetRenderRectangleEv
P7a:__ZN13sorted_vectorIN4core12basic_stringIcNS0_20StringStorageDefaultIcEEEENSt3__24lessIS4_EE13stl_allocatorIS4_L18MemLabelIdentifier81ELi16EEE4findIS4_EENS5_11__wrap_iterIPS4_EERKT_
Yqi:_Parser_HandleExplicitNumericGroups_m1412234891
E3h:_Array_InternalArray__get_Item_TisRaycastHit2D_t2279581989_m2440275162_gshared
vUd:_CustomAttributeNamedArgument_Equals_m1414002036
fuc:__ZL26Transfer_SimpleNativeClassI8JSONRead10RectOffsetLb1EEvRK29SerializationCommandArgumentsR31RuntimeSerializationCommandInfo
tpg:_Material_SetInt_m475299667
RQc:__Z44CanvasRenderer_CUSTOM_INTERNAL_CALL_SetColorP12Il2CppObjectRK10ColorRGBAf
LAe:_Enumerator_MoveNext_m3045873697_AdjustorThunk
I$f:_Enumerator_System_Collections_IEnumerator_Reset_m959124362_AdjustorThunk
fCf:_Enum_ToObject_m121831801
qcd:_Image_get_hasBorder_m3423344180
Wqc:__Z18Transfer_BlittableI9JSONWriteLb1EsEvRK29SerializationCommandArgumentsR31RuntimeSerializationCommandInfo
ucc:__ZN9Transform16SetLocalRotationERK11Quaternionf
x9c:_FontData_set_richText_m993590067
HLb:__ZN13RenderManager37RenderCamerasWithScriptableRenderLoopEi
ubg:_TimeSpan__ctor_m3689759052
sB:__ZN7mecanim8skeleton25SkeletonPoseComputeLocalQEPKNS0_8SkeletonEPKNS0_13SkeletonPoseTIN4math4trsXEEEPS7_ii
U$g:__Z37RuntimeInvoker_Enumerator_t3123848928PFvvEPK10MethodInfoPvPS4_
Fdj:__ZN6il2cpp2os19ReleaseSocketHandleEj
aO:__ZN11AudioModule16GetDSPSampleRateEv
xIb:__ZN15InstancingProps11NewConstantERKN9ShaderLab16FastPropertyNameEj15ShaderParamTypehhjjP6Object
ePe:_InputField_get_characterValidation_m4196664041
Mcg:_Type_get_Attributes_m58528356
Ijd:_Array_GetUpperBound_m4018715963
Ioi:_X509Store__ctor_m2736551756
Gfj:__ZN6il2cpp2os5posix15PosixWaitObjectC2ENS2_4TypeE
DNb:__ZN6Camera21PostMultiCustomRenderENS_10RenderFlagEb
eQf:_Array_InternalArray__Insert_TisMonoResource_t4103430009_m1997865927_gshared
Gkf:_SHA512Managed_HashFinal_m2173184560
lIb:__ZN23ShaderVariantCollection13WarmupShadersEv
W3b:__ZN13ProduceHelperI9TransformLb0EE7ProduceE10MemLabelId18ObjectCreationMode
G$:__Z25GetCommonScriptingClassesv
Zgb:__Z27scripting_gc_collect_unsafei
z8d:_MD5SHA1_HashFinal_m4115488658
fO:__ZN11AudioModule20SuspendVideoTexturesEv
BNf:_Array_InternalArray__ICollection_Add_TisKeyValuePair_2_t71524366_m3468275433_gshared
qBi:_AudioSettings_InvokeOnAudioManagerUpdate_m4044425648
kQ:__Z59Register_UnityEngine_AudioExtensionManager_GetAudioListenerv
Nub:__Z26Transfer_UnityEngineObjectI24GenerateTypeTreeTransferLb0EEvRK29SerializationCommandArgumentsR31RuntimeSerializationCommandInfo
EAd:_Convert_ToDouble_m278900635
hAc:_UNITY_FT_GlyphLoader_CheckPoints
Tlg:_DebugLogHandler_LogException_m302830419
$Qe:_InputField_LineDownCharacterPosition_m2798128425
Axe:_Enumerator_System_Collections_IDictionaryEnumerator_get_Value_m684446183_AdjustorThunk
yUa:__ZN15SharedLightData7PrecalcEv
P1:__ZN10Matrix4x4fmLERKS_
Ltg:_Vector2__ctor_m3970636864
jyb:__Z35Transfer_Blittable_FixedBufferFieldI18StreamedBinaryReadILb1EEsEvRK29SerializationCommandArgumentsR31RuntimeSerializationCommandInfo
DCf:_Environment_InternalGetFolderPath_m468390978
ZNa:__ZN15ArchiveReadFileD0Ev
dUc:__ZN11UnityEngine15PlatformWrapper18GetOperatingSystemEv
pof:_SecurityFrame_ToString_m339310712
Juc:__ZN8GUIStyle8TransferI8JSONReadEEvRT_
l3c:_TouchInputModule_ProcessTouchPress_m3504077560
KZe:_Selectable_IsInteractable_m2611421038
Mzc:_FT_MSB
fHj:_emscripten_glReadPixels__wrapper
A_f:_HashSet_1_Add_m1971460364_gshared
yrj:__ZN6il2cpp6icalls8mscorlib4Mono8Security12Cryptography18KeyPairPersistence10_CanSecureEP12Il2CppString
KHf:_Array_InternalArray__ICollection_Contains_TisParameterModifier_t1461694466_m1000453323_gshared
qSf:_Dictionary_2_System_Collections_ICollection_CopyTo_m4047192178_gshared
xVi:__ZN6il2cpp2os4File11GetFileStatERKNSt3__212basic_stringIcNS2_11char_traitsIcEENS2_9allocatorIcEEEEPNS0_8FileStatEPi
hif:_RIPEMD160Managed_Initialize_m2173168986
G5b:__ZN9TransformC2E10MemLabelId18ObjectCreationMode
Roa:__ZN13GfxDeviceGLES14SetRasterStateEPK17DeviceRasterState
dTd:_Assembly_ToString_m2053237013
Ypg:_Vector4_Equals_m1779210055
bCc:_otv_Coverage_get_count
Q2d:_ParameterModifier_t1461694466_marshal_pinvoke_back
G2:__ZN14SafeBinaryRead11EndTransferEv
IYf:_EqualityComparer_1__cctor_m2741186979_gshared
zpb:__ZN14SafeBinaryRead8TransferI8MonoPPtrEEvRT_PKc17TransferMetaFlags
XBf:_Enum_System_IConvertible_ToUInt16_m4216751959
pGa:__ZN21UniformBufferTFMethod13MapBoneBufferEj
quj:_StringExtension_Anagram_m968226828
XPf:_Array_InternalArray__Insert_TisInt32_t2950945753_m4073217122_gshared
Kif:_RNGCryptoServiceProvider_RngClose_m3915778345
Gyd:_SortedList_Remove_m2784369438
xxa:__ZN4crnd12crn_unpacker10unpack_dxnEPPhjjj
o0:__ZN14SerializedFileD2Ev
Hnc:__Z30Event_Get_Custom_PropModifiersP12Il2CppObject
hu:__ZN7mecanim9animation16CreateClipOutputEPKNS0_4ClipERNS_6memory9AllocatorE
GVe:_RawImage_get_mainTexture_m2396337033
MXi:__ZN6il2cpp2vm10Reflection17GetAssemblyObjectEPK14Il2CppAssembly
ZCb:__ZNSt3__218__stable_sort_moveIRN10vector_mapI17ScriptingClassPtrPKN5Unity4TypeENS_4lessIS2_EENS_9allocatorINS_4pairIS2_S6_EEEEE13value_compareENS_11__wrap_iterIPSB_EEEEvT0_SJ_T_NS_15iterator_traitsISJ_E15difference_typeEPNSM_10value_typeE
$ga:__ZN6Shader21AwakeFromLoadThreadedEv
mAa:__ZN6prcoreL17RemapGenericFloatI17TexFormatRGBFloat17TexFormatRGBAHalfEEvPKNS_9InnerInfoE
d2e:_BigInteger__ctor_m3991350270
fzg:_Vector2_GetHashCode_m3916089713_AdjustorThunk
Ksj:__ZN6il2cpp2os9SemaphoreC2Eii
Bpb:__ZNSt3__26vectorI8MonoPPtr13stl_allocatorIS1_L18MemLabelIdentifier1ELi16EEE8__appendEj
gOb:__ZN14qsort_internal30FindAndMovePivotToLastPositionIP17RODataReplacementi19ROSorterReplacementEEvT_S4_T0_T1_
AGa:__ZN15UniformTFMethod20IsBoneCountSupportedEi
Zgg:_UnauthorizedAccessException__ctor_m246605039
$4b:__Z12BuildTextureIA4_tPFvP9Texture2DPS0_iiiiEES2_PKcii13TextureFormatRKT0_17TextureColorSpaceb
JAj:dynCall_viidi
W_:__ZN24ScriptingMethodFiltering17FilterOnSignatureENS_18MethodSearchFilterE
IZb:__ZN18ScreenManagerWebGL13SetLockCursorE14CursorLockMode
Gae:_CipherSuite_DecryptRecord_m1495386860
xni:_X509Certificate_VerifySignature_m3538124832
dMd:_StreamAsyncResult_SetComplete_m1102187093
bti:_CharacterClass_GetIntervalCost_m4036989868
u3b:__ZN13MonoBehaviour19HandleNotificationsEPviR11MessageData
Iug:_RectOffset_Init_m2028508611
ltj:__ZN6il2cpp2os9EventImpl5ResetEv
K9d:_Alert__ctor_m3135936936
tGd:_Int64_System_IConvertible_ToInt32_m772105781
oki:_TlsClientSettings__ctor_m3220697265
N$i:__ZNK15dense_hashtableINSt3__24pairIK10KeyWrapperINS1_IPK9EventInfoP11Il2CppClassEEEjEES9_17ReflectionMapHashIS8_EN14dense_hash_mapIS9_jSD_NS9_14EqualsComparerINS0_8equal_toIS8_EEEENS0_9allocatorISB_EEE9SelectKeyESI_SK_E23find_position_with_hashERSA_j
cEj:b58
IRf:_Dictionary_2_make_pair_m2250450206_gshared
D6f:_ForwardingDecoder_GetChars_m4228908854
qhf:_InterpreterFactory_get_GroupCount_m2226373271
XDj:b53
KDj:b50
LDj:b51
aEj:b56
bEj:b57
_Dj:b54
$Dj:b55
Z0e:_SimpleCollator_IsSafe_m310268646
Tjd:_X509Certificate_get_RawData_m2387471414
HFj:_glDetachShader__wrapper
Aod:_ArrayTypeMismatchException__ctor_m3375008173
Tye:_Transform_1_BeginInvoke_m1757796657_gshared
DWg:__Z88RuntimeInvoker_Int32_t2950945753_UIVertex_t4057497605_UIVertex_t4057497605_RuntimeObjectPFvvEPK10MethodInfoPvPS4_
i7b:__ZN10GameObject12CleanupClassEv
Fpa:__ZN9GfxDevice25SetShaderPropertiesSharedERK19ShaderPropertySheet
e4c:_BaseMeshEffect_get_graphic_m1852367505
Rvd:_CaseInsensitiveHashCodeProvider_GetHashCode_m2168170016
Crf:_String_CreateString_m3400201881
C6b:__ZL25InitializeDefaultMaterialv
pRc:__Z53Register_UnityEngine_CanvasRenderer_get_materialCountv
g_d:_PropertyBuilder_GetCustomAttributes_m3798356764
U2d:_PropertyInfo_get_MemberType_m2794839864
Wue:_Comparer_1_System_Collections_IComparer_Compare_m4179495191_gshared
kMa:__ZN17PersistentManager12UnloadStreamERKN4core12basic_stringIcNS0_20StringStorageDefaultIcEEEEb
YOa:__ZN10MemoryFile4ReadEyyPvPy
CQf:_Array_InternalArray__Insert_TisUICharInfo_t75501106_m2924156520_gshared
rNf:_MonoProperty_GetterAdapterFrame_TisRuntimeObject_TisRuntimeObject_m458718082_gshared
Y5a:__ZN13ScreenManager17RequestResolutionEiibi
U3i:_il2cpp_unity_liveness_calculation_from_statics
Qx:__ZNK26AnimatorControllerPlayable11DerivesFromE17ScriptingClassPtr
rse:_InternalEnumerator_1_System_Collections_IEnumerator_get_Current_m2649471526_gshared
a6:__ZN8Renderer8TransferI17RemapPPtrTransferEEvRT_
dpa:__ZN13GfxDeviceGLES26UpdateViewProjectionMatrixEv
Wve:_Enumerator_System_Collections_IDictionaryEnumerator_get_Entry_m522483686_gshared
_5e:_PrivateKeyInfo_RemoveLeadingZero_m3921889925
cag:_Thread_get_CurrentContext_m1695017876
GXb:__Z24LookRotationToQuaternionRK8Vector3fS1_P11Quaternionf
EXb:__ZN16ReflectionProbes9GetCameraEv
Tma:__ZL18IsGpuProgramUsable20ShaderGpuProgramTypePK6Shader
SPc:__ZN2UI6Canvas17SetSortingLayerIDEi
Dfj:__ZN6il2cpp2vm11MethodStack23CleanupForCurrentThreadEv
b5h:_Collection_1_ConvertItem_m618594517_gshared
zCd:_Convert_ToUInt64_m388601487
uVa:__ZN20TierGraphicsSettings8TransferI24GenerateTypeTreeTransferEEvRT_
wPi:__ZN15dense_hashtableINSt3__24pairIK10KeyWrapperIN6il2cpp5utils13dynamic_arrayIPK10Il2CppTypeLj4EEEEPFvvEEESA_NS3_8metadata19Il2CppSignatureHashEN14dense_hash_mapISA_SD_SG_NSA_14EqualsComparerINSF_22Il2CppSignatureCompareEEENS0_9allocatorISE_EEE9SelectKeyESK_SM_E16reset_thresholdsEv
tqg:_Mesh_get_vertices_m3585684815
orb:__ZN14SafeBinaryRead21TransferSTLStyleArrayI13dynamic_arrayI4AABBLj4EEEEvRT_17TransferMetaFlags
Lxg:_TouchScreenKeyboard_get_text_m1797464608
OYb:__ZN26CustomRenderTextureManager25UpdateCustomRenderTextureEP19CustomRenderTexturei
Qfa:__ZNSt3__26__treeINS_12__value_typeIiN11TypeManager18TypeCallbackStructEEENS_19__map_value_compareIiS4_NS_4lessIiEELb1EEENS_9allocatorIS4_EEE7destroyEPNS_11__tree_nodeIS4_PvEE
UEb:__ZN13MonoBehaviour18TransferEngineDataI24GenerateTypeTreeTransferEE4PPtrI10MonoScriptERT_
S8b:__ZNK14PlayableOutput23GetSourcePlayableUnsafeEv
cTc:__ZN11UnityEngine7Connect17XRDeviceInfoEventD0Ev
Nuh:__ZL60SoapTypeAttribute_t1750930817_CustomAttributesCacheGeneratorP21CustomAttributesCache
LTd:_Binder_ConvertArgs_m2124461494
RV:__ZN21UnityDefaultAllocatorI17LowLevelAllocatorE10DeallocateEPv
ts:__ZN15PackedIntVector8TransferI14SafeBinaryReadEEvRT_
uzg:_Vector3__ctor_m3353183577_AdjustorThunk
fle:_InternalEnumerator_1_System_Collections_IEnumerator_get_Current_m1514266661_gshared
y8d:_MD5SHA1_Initialize_m675470944
mOf:_Array_InternalArray__ICollection_Add_TisKeyframe_t4206410242_m442111799_gshared
X4g:_List_1_CheckMatch_m3263549496_gshared
yH:__ZN13AudioListener8DoUpdateEv
eGd:_Int32_GetTypeCode_m1648562395_AdjustorThunk
Ozd:__Z13bankers_roundd
Zdb:__ZN14SafeBinaryRead8TransferI5RectTIfEEEvRT_PKc17TransferMetaFlags
ri:_emscripten_glGenFramebuffers
Kfa:__ZN17BaseObjectManager16StaticInitializeEPv
Q4f:_List_1_CheckCollection_m2602703205_gshared
Crc:__Z18Transfer_BlittableI9JSONWriteLb0EyEvRK29SerializationCommandArgumentsR31RuntimeSerializationCommandInfo
r_a:__ZN13RenderTexture15ThreadedCleanupEv
Jcf:_X509BasicConstraintsExtension__ctor_m3721156175
I1a:__ZN12CubemapArray23VirtualRedirectTransferER14SafeBinaryRead
lu:__ZN21AnimationClipPlayable16ProcessHumanPassEPK35AnimationPlayableEvaluationConstantPK32AnimationPlayableEvaluationInputP33AnimationPlayableEvaluationOutput
FId:_Path_GetFileName_m1354558116
l4e:_BitConverterLE_ToDouble_m1601000678
FEj:_emscripten_glUniform3i__wrapper
qug:_Rect_Contains_m1232228501_AdjustorThunk
hic:__Z43RectTransform_CUSTOM_INTERNAL_set_sizeDeltaP12Il2CppObjectRK13Vector2fIcall
CGd:_Int64_System_IConvertible_ToType_m3223988955_AdjustorThunk
tbj:__ZN15dense_hashtableINSt3__24pairIK10KeyWrapperINS1_IPKcS4_EEEiEES6_24NamespaceAndNamePairHashN14dense_hash_mapIS6_iS9_NS6_14EqualsComparerI26NamespaceAndNamePairEqualsEENS0_9allocatorIS8_EEE9SelectKeyESD_SF_E6insertERKS8_
Z5:__ZN24GenerateTypeTreeTransfer18BeginArrayTransferEPKcS1_Ri17TransferMetaFlags
C3h:_Array_InternalArray__get_Item_TisPlayableBinding_t354260709_m3837494573_gshared
om:___syscall51
pmc:__Z26BeforeDomainReloadCallbackv
spi:_MatchCollection_get_FullList_m1829231879
sm:___syscall54
pnd:_Array_GetValue_m2528415604
yvg:_Transform_INTERNAL_CALL_TransformPoint_m4261269221
KGf:_Guid_AppendShort_m791023083
r5g:_List_1__ctor_m4212503576_gshared
aoa:__ZN9ShaderLab9SubShader19CreateFromSubShaderERKS0_
iAc:_cff_builder_add_point1
Ccj:__ZN6il2cpp2vm5Image21GetCachedResourceDataEPK11Il2CppImageRKNSt3__212basic_stringIcNS5_11char_traitsIcEENS5_9allocatorIcEEEE
iob:__Z18Transfer_BlittableI14SafeBinaryReadLb0E10ColorRGBAfEvRK29SerializationCommandArgumentsR31RuntimeSerializationCommandInfo
za:invoke_iiiiiiiiii
MP:__ZN11AudioSource25GetNumExtensionPropertiesEv
yPf:_Array_InternalArray__ICollection_CopyTo_TisUILineInfo_t4195266810_m104406798_gshared
Gsd:_Char_ToLowerInvariant_m1926695830
Flg:_Debug_LogErrorFormat_m3558239521
Z9c:_Graphic_get_canvas_m3320066409
yQe:_InputField_ActivateInputFieldInternal_m3360893886
dG:__ZN4FMOD7SystemI11createSoundEPKcjP22FMOD_CREATESOUNDEXINFOPPNS_5SoundE
Q$b:__ZN10FileSystem19SetCurrentDirectoryERKN4core12basic_stringIcNS0_20StringStorageDefaultIcEEEE
Mkg:_Component_get_gameObject_m442555142
LOd:_Math_Log_m2526073084
Mec:__Z47Register_UnityEngine_Coroutine_ReleaseCoroutinev
jI:__ZN15AudioReverbZone13SetFMODValuesEv
IZ:__ZN14SafeBinaryRead4InitERK16TypeTreeIteratorxx24TransferInstructionFlags10MemLabelId
Vga:__ZL19StaticDestroyShaderPv
ae:_glRenderbufferStorageMultisample
B8b:__ZN8Playable4PlayEv
gyd:_SyncHashtable_Clone_m3726939774
$y:__ZN23AnimationPlayableOutput17SetTargetAnimatorEP8Animator
Zsc:__ZN9JSONWrite8TransferI13dynamic_arrayIN4math12int3_storageELj4EEEEvRT_PKc17TransferMetaFlags
wQb:__ZN22MotionVectorRenderLoopD2Ev
Hlg:_Debug_LogException_m2207318968
vNf:_Array_InternalArray__ICollection_Add_TisClientCertificateType_t1004704908_m2622721177_gshared
Bs:__ZN17PackedFloatVector8TransferI18StreamedBinaryReadILb0EEEEvRT_
J2a:__ZN7Cubemap23VirtualRedirectTransferER17RemapPPtrTransfer
Mkc:__Z37Register_UnityEngine_Screen_get_widthv
Iui:_Uri_get_Authority_m3816772302
Q9b:__ZN22BlockMemoryCacheWriter11GetPathNameEv
ccf:_X509BasicConstraintsExtension__ctor_m1244152959
Cxg:_Touch_get_position_m3109777936
d2d:_ParameterInfo__ctor_m3269320476
Kff:_X509SubjectKeyIdentifierExtension_FromHexChars_m3244835916
apf:_Single_CompareTo_m2785801815
gmi:_PKCS12_MAC_m3355614022
_o:stackAlloc
efc:__Z44Camera_CUSTOM_INTERNAL_CALL_ScreenPointToRayP12Il2CppObjectRK8Vector3fR3Ray
iPa:__ZN25SingleBlockMemoryFileData4LockEPPv
kIj:_glProgramParameteri__wrapper
DZ:__ZN17PersistentManager23PostReadActivationQueueEiPK8TypeTreeb
Jgc:__Z32RectOffset_Get_Custom_PropBottomP12Il2CppObject
Clg:_Debug_LogError_m2850623458
Bhh:_Collection_1_CheckWritable_m3225530705_gshared
KIj:_emscripten_glGetObjectParameterivARB__wrapper
Ewj:_stat
s4:__ZN9ShaderLab10SubProgram7CompileEv
zIb:__ZN15InstancingProps14CombineBuiltinEN10Instancing11BuiltinPropES1_S1_
$Zd:_PropertyBuilder_get_CanRead_m3783190070
r0:__ZN14SerializedFile14SerializedTypeD2Ev
CNf:_Array_InternalArray__ICollection_Add_TisKeyValuePair_2_t3699644050_m4052349323_gshared
Tae:_CipherSuiteCollection_System_Collections_IList_get_Item_m2175128671
eSa:__ZN6CameraD2Ev
la:invoke_iiiiiiiiiiii
quf:_DateTime_System_IConvertible_ToType_m1242864300_AdjustorThunk
Bre:_InternalEnumerator_1_get_Current_m2446410893_AdjustorThunk
dWa:__Z29CalculateDefaultChannelsToAdd17ShaderChannelMaskS_
JRa:__ZN10TagManager13RegisterLayerEjRKN4core12basic_stringIcNS0_20StringStorageDefaultIcEEEE
mIa:__ZNSt3__26__treeI20DeviceBlendStateGLES14MemoryCompLessI16DeviceBlendStateENS_9allocatorIS1_EEE7destroyEPNS_11__tree_nodeIS1_PvEE
ZHi:_CanvasRenderer_SetMaterial_m633746949
fL:__ZN10AudioMixer12RebindOutputEv
n5i:__ZNK15dense_hashtableINSt3__24pairIK10KeyWrapperIP11Il2CppClassES4_EES5_N6il2cpp8metadata16SZArrayClassHashEN14dense_hash_mapIS5_S4_SA_NS5_14EqualsComparerINS9_19SZArrayClassCompareEEENS0_9allocatorIS7_EEE9SelectKeyESE_SG_E5beginEv
CTe:_LayoutRebuilder_PerformLayoutControl_m4241054021
_Ki:__ZN6il2cpp2vm17SetupFieldsLockedEP11Il2CppClassRKNS_2os12FastAutoLockE
lHb:__ZNK9GfxDevice20IsViewportFullscreenEv
$Ca:__ZN18GlslGpuProgramGLES13SwitchProgramEj
WPa:__ZN20ArchiveStorageReaderC2E10MemLabelId
uCg:__Z132RuntimeInvoker_Int32_t2950945753_RuntimeObject_Int32_t2950945753_Int32_t2950945753_RuntimeObject_Int32_t2950945753_Int32_t2950945753PFvvEPK10MethodInfoPvPS4_
Bmb:__ZN16MemoryFileSystem4NameEv
zof:_Single_System_IConvertible_ToBoolean_m1716619219_AdjustorThunk
Hkc:__Z13SetCopyBufferRKN4core12basic_stringIcNS_20StringStorageDefaultIcEEEE
Gki:_TlsException__ctor_m818940807
fkd:_X509CertificateEnumerator_System_Collections_IEnumerator_get_Current_m418791713
HKc:_UNITY_FT_New_Size
cdc:__Z42ScriptingGetComponentsOfTypeFromGameObjectRK26ScriptingGetComponentsArgs
yLh:__ZL73ArgumentCache_t2187958399_CustomAttributesCacheGenerator_m_ObjectArgumentP21CustomAttributesCache
i1h:_Array_swap_TisRaycastResult_t3360306849_TisRaycastResult_t3360306849_m3400922624_gshared
VAi:_AudioListener_ReadExtensionName_m929423100
Rfd:_CspParameters__ctor_m2741097571
R0a:__ZNSt3__27__sort4IRPFbRKNS_4pairIN9ShaderLab16FastPropertyNameEN18UnityPropertySheet11UnityTexEnvEEES8_EPS6_EEjT0_SD_SD_SD_T_
gzc:_cf2_hintmap_build
mxg:_Texture_get_width_m888163864
pIc:_Line_Up
Yzb:__Z29Transfer_Blittable_ArrayFieldI18StreamedBinaryReadILb1EExEvRT_R9ArrayInfoRK23StaticTransferFieldInfo
he:_emscripten_glBufferSubData
_qf:_String_ReplaceUnchecked_m1381393810
B6e:_SymmetricTransform_CBC_m435753239
due:_DefaultComparer_Compare_m3278268937_gshared
Rp:__Z17CalculateGlobalRS23TransformAccessReadOnly
Xpj:__ZNSt3__210__list_impIPN6il2cpp5utils10MemoryPool6RegionENS_9allocatorIS5_EEE5clearEv
krb:__ZN14SafeBinaryRead21TransferSTLStyleArrayI13dynamic_arrayI9BoundsIntLj4EEEEvRT_17TransferMetaFlags
Tib:__ZN22MemoryCacherReadBlocks14LockCacheBlockEjPPhS1_
zWi:__ZN6il2cpp2vm14TypeNameParser17ParseAssemblyNameEv
o9a:__ZNK9GfxDevice26GetSinglePassStereoEyeMaskEv
Qlg:_DebugLogHandler_Internal_Log_m4175774469
dkj:__ZN4utf88internal15increase_safelyIPKcEENS0_9utf_errorERT_S5_
$Ki:__ZN6il2cpp2vmL21SetupPropertiesLockedEP11Il2CppClassRKNS_2os12FastAutoLockE
WJc:__ZN20TextRenderingPrivate8FontImpl16CacheFontForTextEPtiifjPK13dynamic_arrayINS_16TextFormatChangeELj4EE
Rsd:_CharEnumerator_get_Current_m525608209
O_c:__Z21ArrayElementTypeCheckP11Il2CppArrayPv
pHj:_emscripten_glTexSubImage2D__wrapper
iAf:_StackTrace_init_frames_m641783388
wcf:_PublicKey_DecodeRSA_m1824703659
wyj:__ZNSt3__212basic_stringIcNS_11char_traitsIcEENS_9allocatorIcEEE6appendEjc
PCb:__Z13TransferFieldI18StreamedBinaryReadILb0EELb0E16Converter_StringEvRK23StaticTransferFieldInfoR31RuntimeSerializationCommandInfoRT1_
vSc:__Z42Register_UnityEngine_Canvas_get_rootCanvasv
Ntd:_ArrayListWrapper_set_Item_m3849584877
Qe:_TTF_RenderText_Solid
k3f:_List_1__ctor_m3947764094_gshared
zti:_Parser_IsIgnorePatternWhitespace_m2107132682
I9e:_HttpRequestCreator_Create_m400548686
$Wc:__ZN11UnityEngine7Connect16PersistentValuesC2Ev
Yai:_ReadOnlyCollection_1_System_Collections_IList_Insert_m134149130_gshared
grc:__Z18Transfer_BlittableI9JSONWriteLb0E5RectTIiEEvRK29SerializationCommandArgumentsR31RuntimeSerializationCommandInfo
h2e:_BigInteger_get_Rng_m4216817480
pyc:_cf2_getStdVW
AIf:_Array_InternalArray__ICollection_Remove_TisDateTime_t3738529785_m2250893026_gshared
rDa:__Z15IsIEEE754Format14GraphicsFormat
etb:__Z19TransferField_ArrayI17RemapPPtrTransfer27Converter_UnityEngineObjectEvRK23StaticTransferFieldInfoR31RuntimeSerializationCommandInfoRT0_
Za:invoke_iifiii
Ewd:_KeyNotFoundException__ctor_m541499307
WJf:_SetPropertyUtility_SetStruct_TisSpriteState_t1362986479_m665096788_gshared
QCg:__Z61RuntimeInvoker_Single_t1397266774_RuntimeObject_RuntimeObjectPFvvEPK10MethodInfoPvPS4_
GIf:_Array_InternalArray__ICollection_Remove_TisIntPtr_t_m3807208150_gshared
zPg:__Z71RuntimeInvoker_Void_t1185182177_Vector3_t3722313464_Vector3_t3722313464PFvvEPK10MethodInfoPvPS4_
joe:_InternalEnumerator_1_get_Current_m2316281569_AdjustorThunk
ttf:_DateTime__ctor_m1095105629
_qa:__ZN13GfxDeviceGLES15UploadTexture2DE9TextureID16TextureDimensionPKhiii14GraphicsFormati18TextureUploadFlags16TextureUsageMode
nvi:_Event_Cleanup_m2477919477
bK:__ZN4FMOD6System9createDSPEP20FMOD_DSP_DESCRIPTIONPPNS_3DSPE
Yyh:__ZL87Thread_t2300836069_CustomAttributesCacheGenerator_Thread_GetCompressedStack_m2923422412P21CustomAttributesCache
age:_SslClientStream_get_ClientCertificates_m998716871
bG:__ZN4FMOD8ChannelI11EndCallbackEv
knc:__ZN8GUIStyle14SetDefaultFontEPN13TextRendering4FontE
q5a:__ZN15QualitySettings23VirtualRedirectTransferER24GenerateTypeTreeTransfer
ENe:_ObjectReader_ReadValue_m3145979203
V4c:_CanvasScaler_OnDisable_m3424669401
SWh:__ZL68Scrollbar_t1494447233_CustomAttributesCacheGenerator_m_NumberOfStepsP21CustomAttributesCache
LNi:__ZN30dense_hashtable_const_iteratorINSt3__24pairIK10KeyWrapperIPK19Il2CppGenericMethodEPK26Il2CppGenericMethodIndicesEES6_N6il2cpp8metadata23Il2CppGenericMethodHashEN14dense_hash_mapIS6_SA_SE_NS6_14EqualsComparerINSD_26Il2CppGenericMethodCompareEEENS0_9allocatorISB_EEE9SelectKeyESI_SK_EppEv
Vxc:_UNITY_FT_Request_Metrics
oaj:__ZN6il2cpp6icalls8mscorlib6System10Reflection10MonoMethod29get_IsGenericMethodDefinitionEP22Il2CppReflectionMethod
J6i:__ZN6il2cpp2vm6Thread21AllocThreadStaticDataEi
QTd:_Default_SelectMethod_m469311730
uog:_Input_get_mousePosition_m1616496925
Qn:FUNCTION_TABLE_difi
$ij:__ZN30dense_hashtable_const_iteratorINSt3__24pairIK10KeyWrapperIPK19Il2CppGenericMethodEP10MethodInfoEES6_N6il2cpp8metadata23Il2CppGenericMethodHashEN14dense_hash_mapIS6_S9_SD_NS6_14EqualsComparerINSC_26Il2CppGenericMethodCompareEEENS0_9allocatorISA_EEE9SelectKeyESH_SJ_EppEv
Wfg:_UInt32_ToString_m2066897296_AdjustorThunk
ZO:__Z13RegisterClassI13AudioListenerEvv
pjb:__ZN24GenerateTypeTreeTransfer19TransferSTLStyleMapINSt3__23mapI4PPtrI6ShaderEN4core12basic_stringIcNS6_20StringStorageDefaultIcEEEENS1_4lessIS5_EENS1_9allocatorINS1_4pairIKS5_SA_EEEEEEEEvRT_17TransferMetaFlags
Vwd:_Enumerator_Reset_m4274366540
Fqc:__Z18Transfer_BlittableI9JSONWriteLb0E8Vector3fEvRK29SerializationCommandArgumentsR31RuntimeSerializationCommandInfo
Pf:_emscripten_glUniform4i
dCc:_otv_FeatureList_validate
$e:_emscripten_glUniform4f
yj:___unlock
lBc:_otv_validate
k_b:__ZN13sorted_vectorINSt3__24pairIN4core12basic_stringIcNS2_20StringStorageDefaultIcEEEES6_EEN10vector_mapIS6_S6_27compare_tstring_insensitiveIS6_E13stl_allocatorIS7_L18MemLabelIdentifier38ELi16EEE13value_compareESD_E9erase_oneIS6_EEjRKT_
$lf:_X509Certificate_Equals_m3784196370
f9g:_List_1__ctor_m3376067838_gshared
vM:__ZN20SoundChannelInstance19setReverbPropertiesEP29FMOD_REVERB_CHANNELPROPERTIES
q1f:_Enumerator_MoveNext_m1446151600_gshared
Pjf:_SHA1Internal_ProcessFinalBlock_m1403775421
okc:__Z40Register_UnityEngine_Transform_IsChildOfv
OLe:_RemotingServices_GetOrCreateClientIdentity_m648299611
Dte:_InternalEnumerator_1_get_Current_m2356858238_AdjustorThunk
Ufc:__Z45Register_UnityEngine_Display_GetSystemExtImplv
o6e:_RSAManaged_ImportParameters_m1844641996
bwe:_Enumerator_System_Collections_IDictionaryEnumerator_get_Value_m3325938730_AdjustorThunk
lv:__ZN7mecanim9animation23TransformValuesFromClipEiiiRKNS_10ValueArrayERKNS0_10ClipOutputERKNS0_12ClipBindingsERS1_RNS_14ValueArrayMaskEb
JBe:_ValueCollection_System_Collections_ICollection_get_SyncRoot_m1114275063_gshared
LJi:__ZL17log2withScale_128yyi
AGf:_Guid_Equals_m1866984197
BOc:__ZNSt3__218__insertion_sort_3IRNS_6__lessIN2UI14DepthSortEntryES3_EEPS3_EEvT0_S7_T_
xSd:_PlatformNotSupportedException__ctor_m1787918017
Ida:__ZN13RuntimeStaticI15DirectorManagerLb0EE16StaticInitializeEPv
c8h:_ReadOnlyCollection_1_System_Collections_ICollection_CopyTo_m2643246984_gshared
Lcb:__ZN11TimeManager6UpdateEv
g2f:_Enumerator_System_Collections_IEnumerator_get_Current_m209407522_gshared
O4c:_CanvasScaler_get_fallbackScreenDPI_m2811935689
juf:_DateTimeFormatInfo_ReadOnly_m890935083
dlj:__ZN6il2cpp2vm3CCW9CreateCCWEP12Il2CppObject
Lwj:_fflush
I3:__ZN17LightProbeContext4InitERK16LightmapSettingsRK14RenderSettings
DTb:__ZN18DeferredRenderLoop14RenderLightingER21ActiveLightingContextP13RenderTexture9TextureIDPS3_iRK8Vector4fRK14LightingLayersR10MinMaxAABBb12ObjectHandleI17RenderSurface_TagP17RenderSurfaceBaseE
iwg:_SceneManager_Internal_ActiveSceneChanged_m3676176255
IAf:_Double_System_IConvertible_ToInt16_m3591921965
z8a:__ZN9Texture3DD2Ev
hih:_Collection_1_set_Item_m4280581817_gshared
eAd:_Convert_ToChar_m2796006345
BQf:_Array_InternalArray__Insert_TisContentType_t1787303396_m3566390691_gshared
gud:_ArrayListWrapper_GetEnumerator_m2336495952
VVb:__Z34ProcessIndexListIsNodeVisibleStep2RK22SceneCullingParametersPK9SceneNodePK4AABBR9IndexList
cFb:__ZN10MonoScriptD2Ev
nHa:__ZN19ConstantBuffersGLES8UpdateCBE5CbKeyPKvj
zAi:_AudioSource_get_spatializeInternal_m2117549793
ehc:__Z39Input_CUSTOM_INTERNAL_get_mousePositionP8Vector3f
lnd:_SimpleEnumerator__ctor_m353509656
SDc:_tt_cmap13_char_next
_Rh:__ZL117EventSystem_t1003666588_CustomAttributesCacheGenerator_EventSystem_t1003666588____lastSelectedGameObject_PropertyInfoP21CustomAttributesCache
Zna:__ZN9ShaderLab4Pass16SetupPassOptionsEv
dh:_JS_Sound_ReleaseInstance
Xpa:__ZN13GfxDeviceGLES19DrawBuffersIndirectEP9GfxBufferPK18VertexStreamSourceiP17VertexDeclaration17ShaderChannelMask16GfxPrimitiveType15ComputeBufferIDj
mGf:_Guid_CheckArray_m921056615
FFe:_ConfigHandler_ReadLifetine_m208994800
jeg:_UInt16_System_IConvertible_ToByte_m3185614807_AdjustorThunk
Wtg:_Rect_get_max_m350137314_AdjustorThunk
Cm:FUNCTION_TABLE_diddi
W6i:__ZN6il2cpp6icalls8mscorlib6System5Array8FastCopyEP11Il2CppArrayiS5_ii
yic:__Z26Material_CUSTOM_SetIntImplP12Il2CppObjectii
Wgc:__Z42Register_UnityEngine_RectOffset_get_bottomv
mwj:_newlocale
lrb:__ZN9BoundsInt8TransferI14SafeBinaryReadEEvRT_
tFj:_emscripten_glUniform1f__wrapper
sAj:dynCall_di
Bmg:_BaseInvokableCall_AllowInvoke_m878393606
mqc:__Z28RegisterModule_JSONSerializev
Jjb:__ZN2UI13RectTransform8TransferI14SafeBinaryReadEEvRT_
yrc:__Z35Transfer_Blittable_FixedBufferFieldI9JSONWriteaEvRK29SerializationCommandArgumentsR31RuntimeSerializationCommandInfo
Tig:_Behaviour_get_enabled_m753527255
nbc:__Z20IsHumanControllingUsv
VAe:_Enumerator_MoveNext_m181298207_gshared
GW:__ZNK20DynamicHeapAllocatorI17LowLevelAllocatorE10GetPtrSizeEPKv
Oph:__ZL51TextInfo_t3810425522_CustomAttributesCacheGeneratorP21CustomAttributesCache
zMa:__ZN10systeminfo21GetPersistentDataPathEv
Kpa:__ZN13GfxDeviceGLES17DestroyGpuProgramEPK10GpuProgram
R_h:_Array_InternalArray__set_Item_TisRaycastResult_t3360306849_m730888808_gshared
Hnb:__Z44InitializeTransferFunctionScriptingTraitsForI18StreamedBinaryReadILb0EEEvR31TransferFunctionScriptingTraits
wAe:_Enumerator_System_Collections_IEnumerator_Reset_m53411943_gshared
ZRb:__ZNSt3__218__insertion_sort_3IR23CompareReflectionProbesP31RuntimeReflectionProbeBlendInfoEEvT0_S5_T_
otb:__ZN12NativeBufferI27Converter_SimpleNativeClassI8GradientEE15SetupForWritingER9ArrayInfo
P2e:_Kernel_RightShift_m2207393597
qga:__ZNSt3__213__stable_sortIRNS_4lessIN4core12basic_stringIcNS2_20StringStorageDefaultIcEEEEEENS_11__wrap_iterIPS6_EEEEvT0_SC_T_NS_15iterator_traitsISC_E15difference_typeEPNSF_10value_typeEi
XZh:__ZL48Shadow_t773074319_CustomAttributesCacheGeneratorP21CustomAttributesCache
k8:__ZN12_GLOBAL__N_113StaticDestroyEPv
eKj:_glUnmapBuffer__wrapper
evc:__ZN8JSONRead21TransferSTLStyleArrayINSt3__26vectorI8Gradient13stl_allocatorIS3_L18MemLabelIdentifier1ELi16EEEEEEvRT_17TransferMetaFlags
gdb:__ZNSt3__218__insertion_sort_3IRNS_6__lessINS_4pairIPKN5Unity4TypeE7Hash128EES8_EEPS8_EEvT0_SC_T_
CPe:_InputField_set_onValueChanged_m3658917578
Yub:__ZN10RectOffset8TransferI24GenerateTypeTreeTransferEEvRT_
RHd:_BinaryReader__ctor_m2266204403
Fae:__ZN21InterfaceFuncInvoker5IiP22ByteU5BU5D_t4116647657iiS1_iE6InvokeEjP11Il2CppClassP12Il2CppObjectS1_iiS1_i
Z$f:_Enumerator_VerifyState_m3047769867_AdjustorThunk
iub:__Z18Transfer_BlittableI24GenerateTypeTreeTransferLb1E5RectTIiEEvRK29SerializationCommandArgumentsR31RuntimeSerializationCommandInfo
$mc:__ZN16GUIKeyboardStateD2Ev
lOc:__ZN2UI13CanvasManager19RemoveDirtyRendererEPNS_6CanvasEPNS_14CanvasRendererE
ovj:_isspace
lMe:_BinaryFormatter__ctor_m2620705134
RTc:__ZN11UnityEngine15PlatformWrapper25GetGraphicsRendererStringEv
p8f:_UTF7Encoding_InternalGetBytes_m797138468
nV:__ZN11UnityEngine15CloudWebService17WebFileDownloaderINS0_20WebRequestRestClientENS0_23WebRequestRestHeaderMapEED2Ev
Qb:invoke_vi
Jkd:_SmallXmlParser_HandleWhitespaces_m549588711
Nsc:__ZN9JSONWrite8TransferI13dynamic_arrayI9BoundsIntLj4EEEEvRT_PKc17TransferMetaFlags
Ob:invoke_vd
pb:invoke_vf
opi:_Regex_get_RightToLeft_m2317867572
r3:__ZNK10GameObject8IsActiveEv
Bfc:__Z34Component_Get_Custom_PropTransformP12Il2CppObject
FQh:__ZL67g_UnityEngine_PhysicsModule_Assembly_CustomAttributesCacheGeneratorP21CustomAttributesCache
QCa:__ZN18GfxFramebufferGLES23SetupDefaultFramebufferEPP17RenderSurfaceBaseS2_N2gl6HandleILNS3_10ObjectTypeE9EEE
F7c:_DefaultControls_CreateDropdown_m3286664171
u6a:__ZN13ScreenManager18RequestOrientationE17ScreenOrientation
xLi:__ZN6il2cpp2vm5Class12SetupMethodsEP11Il2CppClass
Dcc:__Z39DeleteLastPathNameComponentWithAnySlashRKN4core12basic_stringIcNS_20StringStorageDefaultIcEEEE
kmc:__ZN10GUIManager14InitGUIManagerEv
Leg:_UInt16_Equals_m642257745
Rmd:_Array_System_Collections_IList_IndexOf_m3301661616
nTd:_AssemblyFileVersionAttribute__ctor_m3720707642
h4d:_RuntimeResourceSet_CloneDisposableObjectIfPossible_m2725520898
toc:__Z37Register_UnityEngine_GUIStyle_Cleanupv
Ma:invoke_iiifii
_Ze:_SliderEvent__ctor_m3149452941
bjd:_DeriveBytes__cctor_m1212925033
nad:_Graphic_OnDisable_m1097930217
mUi:__ZN6il2cpp6icalls8mscorlib6System8MonoType13IsPointerImplEP20Il2CppReflectionType
Qi:_emscripten_glFramebufferRenderbuffer
IUb:__ZN19CullingGroupManager17CullAndSendEventsERK22SceneCullingParametersiRK13CullingOutputRK8JobFence
gRa:__ZN9Transform30EnsureTransformHierarchyExistsEv
Jcg:_Type_FilterName_impl_m2651733559
Fnd:_Array_GetValue_m116098292
vec:__Z46Register_UnityEngine_Application_get_isPlayingv
_Zb:__ZNSt3__26vectorINS_4pairIN4core12basic_stringIcNS2_20StringStorageDefaultIcEEEEPK17MessageIdentifierEENS_9allocatorISA_EEE12__move_rangeEPSA_SE_SE_
hOb:__ZN14qsort_internal17MedianOfThreeSwapIP17RODataReplacement19ROSorterReplacementEEvT_S4_S4_T0_
$pf:_String_Split_m3646115398
Wug:_RectOffset_ToString_m2007443979
nKi:__ZNK15dense_hashtableINSt3__24pairIK10KeyWrapperIPK22Il2CppGenericParameterEP11Il2CppClassEES6_N6il2cpp5utils11PointerHashIS4_EEN14dense_hash_mapIS6_S9_SE_NS6_14EqualsComparerINS0_8equal_toIS5_EEEENS0_9allocatorISA_EEE9SelectKeyESJ_SL_E3endEv
zcc:__ZN17TransformInternal36OnScaleChangedCalculateTransformTypeE15TransformAccess
lNa:__ZN17ArchiveFileSystem10ToAbsoluteEPKc
DUc:__ZN19UnityConnectService15GetPlayerUserIdEv
LMf:_Array_InternalArray__IndexOf_TisSByte_t1669577662_m4156538463_gshared
ir:__ZN7mecanim6CRCKeyENS_7eStringE
hac:__ZL12SetPrefValueRKN4core12basic_stringIcNS_20StringStorageDefaultIcEEEERK9PrefValue
b9a:__ZN19ShaderPropertySheet20ReservePropertyCountEj
Ljj:__ZN6il2cpp5utils11StringUtils6PrintfEPKcz
D5i:__ZNSt3__26vectorIN6il2cpp8metadata18GenericArrayMethodENS_9allocatorIS3_EEE7reserveEj
Dma:__ZN15NameToObjectMapI6ShaderNSt3__23mapI4PPtrIS0_EN4core12basic_stringIcNS5_20StringStorageDefaultIcEEEENS1_4lessIS4_EENS1_9allocatorINS1_4pairIKS4_S9_EEEEEENS1_8multimapIS9_S4_NSA_IS9_EENSC_INSD_IKS9_S4_EEEEEEE4FindERSK_
g2a:__ZN24GenerateTypeTreeTransfer21TransferResourceImageE19ActiveResourceImagePKcR13StreamingInfoPvjiPKN5Unity4TypeE
U0h:_Array_Sort_TisVector3_t3722313464_m1030213405_gshared
dfj:__ZN6il2cpp2vm6Object5CloneEP12Il2CppObject
wrj:__ZN6il2cpp6icalls8mscorlib6System9Threading5Mutex20CreateMutex_internalEbP12Il2CppStringPb
AJj:_emscripten_glLinkProgram__wrapper
$kg:_Coroutine_Finalize_m1957108547
dyi:_KeyBuilder_Key_m2503211157
JXa:__ZNSt3__212__deque_baseI18ReflectionProbeJobNS_9allocatorIS1_EEED2Ev
Ez:__ZN11UnityEngine9Animation27DestroyAnimationSetBindingsEPNS0_20AnimationSetBindingsERN7mecanim6memory9AllocatorE
mia:__ZN15dense_hashtableINSt3__24pairIKiN4core17string_with_labelILi1EEEEEi18SInt32HashFunctionN14dense_hash_mapIiS5_S7_NS0_8equal_toIiEE13stl_allocatorIS6_L18MemLabelIdentifier1ELi16EEE9SelectKeyESA_SD_E13set_empty_keyERKS6_
Pkg:_Component_GetComponentInChildren_m388868270
LZf:_GenericEqualityComparer_1_Equals_m1705889345_gshared
mE:__ZN8Animator12CleanupClassEv
cvc:__Z13TransferFieldI8JSONReadLb0E27Converter_SimpleNativeClassI10RectOffsetEEvRK23StaticTransferFieldInfoR31RuntimeSerializationCommandInfoRT1_
E9e:_FtpWebRequest__cctor_m699542155
Fcj:__GLOBAL__sub_I_GenericMetadata_cpp
D8e:_NameObjectCollectionBase_GetEnumerator_m3677320185
wVb:__Z24CalculateSpotLightBoundsffRK10Matrix4x4fR15SpotLightBounds
LDe:_Dictionary_2_TryGetValue_m3495031886_gshared
AZa:__ZNK13RenderTexture21GetShadowSamplingModeEv
wR:__ZN23CloudWebServicesManager23VirtualRedirectTransferER14SafeBinaryRead
F7e:_PKCS12_AddCertificate_m3857004455
KEb:__Z19ShouldTransferFieldR32SerializationCommandQueueBuilder17ScriptingClassPtriR18TransferField_InfoRK20CoreScriptingClasses
rnf:_SecurityElement_IsValidText_m1346599242
NHa:__ZN26SinglePassStereoSupportExt21SetStereoMatrixCommonE21MonoOrStereoscopicEye24BuiltinShaderMatrixParamRK10Matrix4x4f
LK:__ZN5audio5mixer22UpdateAudioMixerMemoryERKNS0_18AudioMixerConstantERNS0_16AudioMixerMemoryEfPN4FMOD6SystemEf
gxc:__ZL21InitializeCachedStripPv
sRf:_Dictionary_2_System_Collections_Generic_ICollectionU3CSystem_Collections_Generic_KeyValuePairU3CTKeyU2CTValueU3EU3E_Add_m3652125112_gshared
R7i:__ZN6il2cpp6icalls8mscorlib6System9Threading6Thread23GetCachedCurrentCultureEP12Il2CppThread
iY:__ZNK6Camera22GetWorldToCameraMatrixEv
Dzj:runPostSets
tfj:__ZN6il2cpp2vm12GenericClass11IsValueTypeEP18Il2CppGenericClass
FDb:__ZN13MonoBehaviour7SetNameEPKc
UJe:_MethodDictionary_IsOverridenKey_m946843558
eKd:_FileStream_BeginRead_m2419864669
Vii:_U3CStartU3Ec__Iterator0_MoveNext_m4270440387_gshared
fPi:__ZN10KeyWrapperIN6il2cpp5utils13dynamic_arrayIPK10Il2CppTypeLj4EEEEC2ERKS7_
AIb:__ZN17InstancingBatcher22FindCBUpperBoundKonstsEv
Y7:__GLOBAL__sub_I_runtime_shaders_shaderimpl_0_cpp
Egb:__ZN18AwakeFromLoadQueue5ClearEv
CKd:_FileStream_SetLength_m99749826
ZTb:__ZNSt3__27__sort5IR15ReflProbeSorterPP15ReflectionProbeEEjT0_S6_S6_S6_S6_T_
vea:__ZN8Playable10DisconnectEPS_i
uk:_glGenTransformFeedbacks
bMa:__ZN13LoadOperationD2Ev
oDd:_Int16_System_IConvertible_ToType_m3672347013
Adg:_Type_GetProperty_m4206634422
qld:_AttrListImpl_GetValue_m3657391095
vHb:__Z21PlayerStartFirstSceneb
N9g:_List_1_CheckIndex_m3933537097_gshared
S0a:__ZNSt3__27__sort5IRPFbRKNS_4pairIN9ShaderLab16FastPropertyNameEN18UnityPropertySheet11UnityTexEnvEEES8_EPS6_EEjT0_SD_SD_SD_SD_T_
bva:__ZNK7ApiGLES18GetExtensionStringEv
m9g:_List_1_System_Collections_IList_IndexOf_m2444653486_gshared
uFj:_emscripten_glVertexAttrib1f__wrapper
Kkb:__ZNK12HandlerChain4SizeERK13FileEntryData
Yo:FUNCTION_TABLE_iiiiiiiii
B8h:_ReadOnlyCollection_1_System_Collections_Generic_ICollectionU3CTU3E_Remove_m4177779688_gshared
wsd:_Char_IsLetter_m3996985877
Dah:_Queue_1_Peek_m2302800625_gshared
Blh:__ZL51Delegate_t1188392813_CustomAttributesCacheGeneratorP21CustomAttributesCache
vmj:_GC_allochblk
Ogb:__Z15UnloadGameScenev
rPf:_Array_InternalArray__ICollection_CopyTo_TisKeyframe_t4206410242_m2132255743_gshared
$Jj:_glCheckFramebufferStatus__wrapper
Vbd:_Image__ctor_m2551076292
CCe:_Dictionary_2_System_Collections_ICollection_CopyTo_m3143696177_gshared
PEg:__Z103RuntimeInvoker_Void_t1185182177_Int32_t2950945753_Int32_t2950945753_Int32_t2950945753_SByte_t1669577662PFvvEPK10MethodInfoPvPS4_
Skc:__Z36Renderer_Get_Custom_PropSortingOrderP12Il2CppObject
hZi:__ZNK15dense_hashtableINSt3__24pairIK10KeyWrapperIPK10Il2CppTypeEjEES6_N6il2cpp8metadata14Il2CppTypeHashEN14dense_hash_mapIS6_jSB_NS6_14EqualsComparerINSA_26Il2CppTypeEqualityComparerEEENS0_9allocatorIS8_EEE9SelectKeyESF_SH_E13find_positionERS7_
qZa:__ZN7Texture5ResetEv
Ktb:__Z18Transfer_BlittableI24GenerateTypeTreeTransferLb0E8Vector2fEvRK29SerializationCommandArgumentsR31RuntimeSerializationCommandInfo
XGe:_Context_get_HasDynamicSinks_m3952434387
F6f:_Latin1Encoding_GetByteCount_m1145650505
ztb:__Z18Transfer_BlittableI24GenerateTypeTreeTransferLb1EhEvRK29SerializationCommandArgumentsR31RuntimeSerializationCommandInfo
Lmc:__ZN8GUIState18CycleKeyboardFocusERNSt3__26vectorIP6IDListNS0_9allocatorIS3_EEEEb
tAb:__Z13TransferFieldI18StreamedBinaryReadILb1EELb0E16Converter_StringEvRK23StaticTransferFieldInfoR31RuntimeSerializationCommandInfoRT1_
eec:__ZNK16TypeTreeIterator10ByteOffsetEv
NAj:dynCall_iiifii
rda:__ZnwjRKSt9nothrow_t
OC:__ZN8Animator11ClearObjectEv
iei:_Nullable_1_GetHashCode_m4232053575_gshared
kmd:_ApplicationException__ctor_m2557611022
L$a:__ZN14SafeBinaryRead19TransferSTLStyleMapINSt3__23mapI39DeprecatedFastPropertyNameSerializationN18UnityPropertySheet11UnityTexEnvENS1_4lessIS3_EENS1_9allocatorINS1_4pairIKS3_S5_EEEEEEEEvRT_17TransferMetaFlags
R6g:_List_1_CheckMatch_m579516778_gshared
uqd:_Buffer_ByteLengthInternal_m1388208719
TOf:_Array_InternalArray__ICollection_CopyTo_TisInt64_t3736567304_m2845057751_gshared
$dc:__Z35UnregisterSerializationCacheBuilderPFv17ScriptingClassPtrR23CachedSerializationDataRbE
GGd:_Int64_System_IConvertible_ToUInt32_m109903525_AdjustorThunk
$3:__Z30GetBuiltinVectorParamArraySize24BuiltinShaderVectorParam
xPf:_Array_InternalArray__ICollection_CopyTo_TisUICharInfo_t75501106_m4268526610_gshared
jZa:__ZN13RenderTextureC2E10MemLabelId18ObjectCreationMode
EDd:_Int32_GetFormatException_m519586683
dyh:__ZL46StringBuilder_t_CustomAttributesCacheGeneratorP21CustomAttributesCache
C$f:_Enumerator_MoveNext_m1131351993_gshared
ESd:_RankException__ctor_m2226473861
L3h:_Array_InternalArray__get_Item_TisVector2_t2156229523_m2502961026_gshared
z6:__ZN21RendererUpdateManager11AddRendererER8Renderer
I2b:__Z13RegisterClassI15ResourceManagerEvv
pBi:_AudioConfigurationChangeHandler_Invoke_m1233557945
qob:__Z35Transfer_Blittable_FixedBufferFieldI14SafeBinaryReadsEvRK29SerializationCommandArgumentsR31RuntimeSerializationCommandInfo
eab:__ZN14SafeBinaryRead21TransferSTLStyleArrayI13dynamic_arrayIfLj4EEEEvRT_17TransferMetaFlags
iAd:_Convert_ToDateTime_m3802186295
Mjj:__ZN6il2cpp5utils11StringUtils11Utf16ToUtf8EPKDs
nfb:__ZN18StreamedBinaryReadILb0EE21TransferSTLStyleArrayINSt3__26vectorIN15ResourceManager10DependencyE13stl_allocatorIS5_L18MemLabelIdentifier52ELi16EEEEEEvRT_17TransferMetaFlags
Egg:_UInt64_CompareTo_m1614517204_AdjustorThunk
gUc:__ZN11UnityEngine15PlatformWrapper20IsRootedOrJailbrokenEv
eLb:__ZZ23InitPlayerLoopCallbacksvEN52PreLateUpdateScriptRunBehaviourLateUpdateRegistrator7ForwardEv
rVb:__Z33IntersectAABBPlaneBoundsOptimizedRK4AABBPKN4math7_float4Ei
$pa:__ZN9GfxDevice19EndGeometryJobFrameEv
$vi:_GUILayoutUtility_Layout_m1159951704
LOe:_InputField_get_shouldActivateOnSelect_m3055465770
ttb:__ZN27Converter_SimpleNativeClassI17AnimationCurveTplIfEE17ScriptingToNativeER18ScriptingObjectPtrPS1_
Icg:_Type__cctor_m2371893800
hsj:__ZN6il2cpp8metadata24Il2CppGenericInstCompare7CompareERK10KeyWrapperIPK17Il2CppGenericInstES8_
INi:__ZNK15dense_hashtableINSt3__24pairIK10KeyWrapperIPK19Il2CppGenericMethodEPK26Il2CppGenericMethodIndicesEES6_N6il2cpp8metadata23Il2CppGenericMethodHashEN14dense_hash_mapIS6_SA_SE_NS6_14EqualsComparerINSD_26Il2CppGenericMethodCompareEEENS0_9allocatorISB_EEE9SelectKeyESI_SK_E5beginEv
R$c:_ExecuteEvents_Execute_m3049310229
xt:__ZN27AnimationLayerMixerPlayable21UpdateLayerParametersEv
bw:__ZN7mecanim9animation16CopyMotionOutputEPKNS0_18AnimationNodeStateEPS1_bbRKNS_6bitsetILj83EEE
R0b:__ZNK17AnimationCurveTplIfE8EvaluateEfPNS0_5CacheE
iKb:__Z31ManagerContextInitializeClassesv
K8h:_ReadOnlyCollection_1_System_Collections_IList_Contains_m2650112051_gshared
dHf:_Array_get_swapper_TisVector3_t3722313464_m1221246401_gshared
uFc:_UNITY_FT_List_Finalize
kPb:__Z20LightAttenuateApproxRKfS0_
p7:__ZN9Scripting30SetCachedPtrOnScriptingWrapperE18ScriptingObjectPtrP6Object
dhf:_RepeatContext_get_IsMinimum_m3640286252
nOe:_ObjectRecord_ChainFixup_m1889316362
MUa:__ZN18BlockRangeInternal16PopLastNodeIndexEP10BlockRangeji
flj:__ZN6il2cpp2vm13CachedCCWBaseINS0_13ManagedObjectEE6AddRefEv
e3c:_TouchInputModule_UpdateModule_m2582897964
A9a:__ZN4MeshD0Ev
tZc:__ZL42RequestRecreateEyeTexturesBeforeNextUpdatev
HEa:__ZNK6Camera20IsCurrentlyRenderingEv
kv:__ZN21AnimationClipPlayable23ProcessRootMotionNoClipEPK35AnimationPlayableEvaluationConstantPK32AnimationPlayableEvaluationInputP33AnimationPlayableEvaluationOutput
_Qc:__Z36CanvasRenderer_CUSTOM_SetPopMaterialP12Il2CppObjectS0_i
Frc:__Z18Transfer_BlittableI9JSONWriteLb0EdEvRK29SerializationCommandArgumentsR31RuntimeSerializationCommandInfo
Jpf:_String_System_IConvertible_ToDouble_m3740733360
FSa:__ZN6Camera8TransferI19StreamedBinaryWriteILb0EEEEvRT_
_wf:_DBNull_System_IConvertible_ToSByte_m3533624679
Jvj:_wctomb
msd:_Char_CompareTo_m42489266
xYg:__Z67RuntimeInvoker_Void_t1185182177_Int32_t2950945753_Double_t594665363PFvvEPK10MethodInfoPvPS4_
hfc:__Z27Camera_CUSTOM_GetAllCamerasP11Il2CppArray
Wc:___cxa_rethrow
J2d:_ParameterInfo_GetCustomAttributes_m2376494592
itc:__Z18Transfer_BlittableI8JSONReadLb1EhEvRK29SerializationCommandArgumentsR31RuntimeSerializationCommandInfo
fad:_Graphic_get_canvasRenderer_m315509948
Reh:_Collection_1_System_Collections_IList_Contains_m3397768605_gshared
gQg:__Z90RuntimeInvoker_Void_t1185182177_Int64_t3736567304_Int32_t2950945753_RuntimeObject_IntPtr_tPFvvEPK10MethodInfoPvPS4_
AFj:_glBindRenderbuffer__wrapper
T1h:_Dictionary_2_Do_CopyTo_TisInt32_t2950945753_TisInt32_t2950945753_m3384108308_gshared
SEf:_CultureInfo_construct_internal_locale_from_name_m3254739477
Ffe:_RSASslSignatureDeformatter_VerifySignature_m1061897602
e6e:_RSAManaged_remove_KeyGenerated_m2046909903
lid:_RandomNumberGenerator_Create_m4162970280
cQf:_Array_InternalArray__Insert_TisLabelFixup_t858502054_m171542753_gshared
Xse:_InternalEnumerator_1_System_Collections_IEnumerator_get_Current_m3539708496_AdjustorThunk
ylb:__ZN20LocalFileSystemPosix4ReadER13FileEntryDatayyPvPy
ISb:__ZNSt3__211__sift_downIRN23ForwardShaderRenderLoop18RenderObjectSorterILb0EEEP21ForwardRenderPassDataEEvT0_S7_T_NS_15iterator_traitsIS7_E15difference_typeES7_
cmf:_SecurityPermission__ctor_m1462427327
$Bj:dynCall_iiiiiiffiiiiiiiiiffffiiii
VDb:__ZN13MonoBehaviour5DoGUIENS_13GUILayoutTypeEii
LEe:_ChannelData_get_ClientProviders_m594662942
Fqi:_QuickSearch_GetChar_m1297698557
TKa:__ZNK12TLSAllocatorI14StackAllocatorE8ContainsEPKv
Ncb:__ZN11TimeManager8TransferI18StreamedBinaryReadILb0EEEEvRT_
fBg:__Z68RuntimeInvoker_Boolean_t97287965_Int16_t2552820387_SByte_t1669577662PFvvEPK10MethodInfoPvPS4_
xvf:_DateTime__ParseEnum_m253019513
mCd:_Convert_ToUInt32_m2194577773
O6:__ZN15dense_hashtableINSt3__24pairIKyP17VertexDeclarationEEy14GfxGenericHashIyEN14GfxDoubleCacheIyS4_S7_NS0_8equal_toIyEEN31GfxDoubleCacheConcurrencyPolicy11LocklessGetE42GfxDoubleCacheDefaultEmptyDeletedGeneratorIyEE9SelectKeyESA_13stl_allocatorIS5_L18MemLabelIdentifier24ELi16EEE12resize_deltaEjj
nxd:_Hashtable_Remove_m4032631466
nuc:__Z18Transfer_BlittableI8JSONReadLb1EyEvRK29SerializationCommandArgumentsR31RuntimeSerializationCommandInfo
U1a:__ZN7Texture25ReloadFromStorageIfNeededEPvb
fMf:_Array_InternalArray__IndexOf_TisBoolean_t97287965_m1161209222_gshared
_qj:__ZN6il2cpp2os12Cryptography24OpenCryptographyProviderEv
Uud:_SynchronizedArrayListWrapper_Clear_m2191301493
wGc:_Update_Max
d7i:__ZN6il2cpp6icalls8mscorlib6SystemL15ThrowNoWideningEv
a1b:__ZNK23TransformChangeDispatch24GetChangeMaskForInterestENS_12InterestTypeE
C8b:__ZN8Playable5PauseEv
Ujc:__Z45Transform_CUSTOM_INTERNAL_CALL_TransformPointP12Il2CppObjectRK8Vector3fRS1_
cYd:_GenericTypeParameterBuilder_InvokeMember_m1647304778
Sbd:_HorizontalOrVerticalLayoutGroup_set_childControlWidth_m3261460516
a0a:__ZNSt3__26__treeINS_12__value_typeI39DeprecatedFastPropertyNameSerializationfEENS_19__map_value_compareIS2_S3_NS_4lessIS2_EELb1EEENS_9allocatorIS3_EEE7destroyEPNS_11__tree_nodeIS3_PvEE
qEc:_tt_cmap4_char_index
N3c:_AspectRatioFitter_GetParentSize_m3159144324
mof:_SecurityFrame_get_Assembly_m2874566710
cah:_Enumerator_System_Collections_IEnumerator_Reset_m1487823313_gshared
Ukb:__ZNK12HandlerChain8IsHiddenERK13FileEntryData
Jsb:__ZL26Transfer_SimpleNativeClassI17RemapPPtrTransfer10RectOffsetLb0EEvRK29SerializationCommandArgumentsR31RuntimeSerializationCommandInfo
qLc:__Z14ValidateFormatR13dynamic_arrayIN20TextRenderingPrivate16TextFormatChangeELj4EE
dGd:_Int32_ToString_m2507389746_AdjustorThunk
hzf:_Decimal_op_Explicit_m438967917
fJi:_AnimatorControllerPlayable_SetHandle_m2260644454_AdjustorThunk
Gja:__ZNSt3__26vectorIN9ShaderLab20SerializedSubProgram13BufferBindingENS_9allocatorIS3_EEEC2ERKS6_
wPe:_InputField_set_selectionColor_m2084640295
X3:__ZNK9ShaderLab20ShaderBlendStateDesc15ToGfxBlendStateEPK19ShaderPropertySheetS3_R13GfxBlendState
iz:__ZN11UnityEngine9AnimationL22GenericBindingCallbackEPvS1_i
bGc:_Compute_Point_Displacement
foa:__ZN9ShaderLab9IntShaderC2Ev
tUi:__ZN6il2cpp6icalls8mscorlib6SystemL9IsPrivateEPK9EventInfo
Rqj:__ZN6il2cpp6icalls8mscorlib6System10Reflection4Emit11TypeBuilder20setup_internal_classEP27Il2CppReflectionTypeBuilderS7_
Sac:__Z18TransformPoints3x4RK10Matrix4x4fPK8Vector3fjPS2_ji
EMf:_Array_InternalArray__IndexOf_TisILTokenInfo_t2325775114_m2602704009_gshared
u7f:_StringBuilder_AppendFormat_m3255666490
tSd:_OverflowException__ctor_m4029085969
T_d:_TypeBuilder_GetGenericArguments_m2872156836
ZJi:__ZN13Il2CppHashMapIPK22Il2CppGenericParameterP11Il2CppClassN6il2cpp5utils11PointerHashIS1_EENSt3__28equal_toIS2_EENS9_9allocatorINS9_4pairIK10KeyWrapperIS2_ES4_EEEEEC2EjRKS8_RKSB_
t5e:_KeyPairPersistence_Remove_m1876145547
BMa:__Z15CreateDirectoryRKN4core12basic_stringIcNS_20StringStorageDefaultIcEEEE
yYa:__Z21CalculateGlobalMatrix23TransformAccessReadOnly
U_d:_TypeBuilder_GetGenericTypeDefinition_m1632720438
sHf:_Array_InternalArray__ICollection_Contains_TisLink_t544317964_m163190451_gshared
owf:_DateTimeOffset_System_IComparable_CompareTo_m176229495_AdjustorThunk
dpg:_ManagedStreamHelpers_ValidateLoadFromStream_m580138133
Scb:__ZNK13BuildSettings22GetTypeVirtualInternalEv
T7g:_List_1_CheckIndex_m2250397830_gshared
G2b:__Z13RegisterClassI14RenderSettingsEvv
z:tempBigIntI
Chf:_Interval_get_Empty_m3617514670
$Sd:_Assembly_GetName_m981771927
zx:__ZN7mecanim12statemachine24CreateStateMachineOutputEPKNS0_20StateMachineConstantEjRNS_6memory9AllocatorE
rfj:__ZN6il2cpp2vm12GenericClass8GetClassEP18Il2CppGenericClass
Aqa:__ZNK9GfxDevice27GetActiveRenderSurfaceWidthEv
OTh:__ZL114StandaloneInputModule_t2760469101_CustomAttributesCacheGenerator_StandaloneInputModule_ForceAutoSelect_m2837047882P21CustomAttributesCache
TTc:__ZN11UnityEngine15PlatformWrapper28GetCleanGraphicsFixedVersionEv
XUe:_MaskableGraphic_RecalculateClipping_m1772937317
qOd:_UnmanagedMemoryStream_SetLength_m3752964620
pXi:__ZN6il2cpp2vm4Type7GetTypeEPK10Il2CppType
BKc:_open_face_PS_from_sfnt_stream
Rne:_InternalEnumerator_1_get_Current_m165106323_AdjustorThunk
e8f:_UTF32Encoding_GetByteCount_m3610769032
tAa:__ZN6prcoreL17RemapGenericFloatI18TexFormatRGBAFloat17TexFormatRGBAHalfEEvPKNS_9InnerInfoE
ILb:__Z16FindCameraStacksRKNSt3__24listI4PPtrI6CameraENS_9allocatorIS3_EEEERNS_6vectorI11CameraStackNS4_ISA_EEEE
xpi:_MatchCollection_CopyTo_m3807326147
r4a:__ZN10GISettings8TransferI14SafeBinaryReadEEvRT_
un:FUNCTION_TABLE_vifff
XXh:__ZL54Text_t1901882714_CustomAttributesCacheGenerator_m_TextP21CustomAttributesCache
aid:_MD5CryptoServiceProvider__ctor_m3271163125
dZb:__ZN19CustomRenderTexture12ClearGPUDataEv
zZa:__ZN13RenderTexture13ApplySettingsEv
oNe:_ObjectReader_RegisterObject_m1853376334
FZd:_ModuleBuilderTokenGenerator_GetToken_m2588853565
Gpd:_Boolean_System_IConvertible_ToDecimal_m3176932461_AdjustorThunk
Ue:_JS_Sound_SetListenerPosition
mn:FUNCTION_TABLE_fiffi
IYe:_ScrollRect_OnInitializePotentialDrag_m3139711961
E8h:_ReadOnlyCollection_1_System_Collections_Generic_IListU3CTU3E_set_Item_m711370667_gshared
$Td:_Default_check_arguments_with_score_m3467814020
dHj:_glGetActiveUniform__wrapper
UMd:_StreamWriter_LowLevelWrite_m1081676583
Rda:__ZZN15DirectorManager15InitializeClassEvEN45FixedUpdateDirectorFixedSampleTimeRegistrator7ForwardEv
Kib:__ZNK8Material16MarkDependenciesER27GarbageCollectorThreadState
f_e:_Slider_set_handleRect_m1101657556
Cwf:_DateTimeOffset_ToString_m3985341516_AdjustorThunk
Irc:__ZL17Transfer_GUIStyleI9JSONWriteLb0EEvRK29SerializationCommandArgumentsR31RuntimeSerializationCommandInfo
cQb:__Z28GetHaloVertexPositionsStereoP8Vector3fRKS_S2_f
iBa:__ZN6prcoreL27StretchGenericFloatBilinearI15TexFormatRGHalfEEvPKNS_9InnerInfoE
U7:__GLOBAL__sub_I_runtime_misc_0_cpp
_Ff:_SortKey_GetHashCode_m3547067087
_Ab:__Z18Transfer_BlittableI18StreamedBinaryReadILb0EELb1E9BoundsIntEvRK29SerializationCommandArgumentsR31RuntimeSerializationCommandInfo
TXh:__ZL71SpriteState_t1362986479_CustomAttributesCacheGenerator_m_DisabledSpriteP21CustomAttributesCache
xcf:_PublicKey_DecodeDSA_m3490622362
wic:__Z49Register_UnityEngine_Resources_GetBuiltinResourcev
xdg:_Type_GetMethod_m1479779718
dEc:_tt_cmap10_char_index
Hki:_TlsException__ctor_m3242533711
s7d:_BitConverterLE_GetUIntBytes_m795219058
lyd:_SortedList__ctor_m3676552745
BKi:__ZN15dense_hashtableINSt3__24pairIK10KeyWrapperIPK22Il2CppGenericParameterEP11Il2CppClassEES6_N6il2cpp5utils11PointerHashIS4_EEN14dense_hash_mapIS6_S9_SE_NS6_14EqualsComparerINS0_8equal_toIS5_EEEENS0_9allocatorISA_EEE9SelectKeyESJ_SL_E3endEv
fqb:__Z35Transfer_Blittable_SingleValueFieldI14SafeBinaryReadjEvRT_R17GeneralMonoObjectRK23StaticTransferFieldInfo
QP:__ZN11AudioSource24ClearExtensionPropertiesE12PropertyName
Q_h:_Array_InternalArray__set_Item_TisColor32_t2600501292_m1891325855_gshared
Mla:__ZN9ShaderLab22SerializedBindChannels8TransferI19StreamedBinaryWriteILb0EEEEvRT_
Vqb:__ZN15SerializeTraitsI5RectTIiEE8TransferI14SafeBinaryReadEEvRS1_RT_
nnc:__ZN5IMGUI20MoveWindowFromLayoutER8GUIStateiRK5RectTIfE
JAc:_UNITY_FT_Stream_ReadUShort
_gc:__Z51Register_UnityEngine_GUILayer_INTERNAL_CALL_HitTestv
Rha:__ZNSt3__26__treeINS_12__value_typeIN4core12basic_stringIcNS2_20StringStorageDefaultIcEEEES6_EENS_19__map_value_compareIS6_S7_NS_4lessIS6_EELb1EEE13stl_allocatorIS7_L18MemLabelIdentifier1ELi16EEE7destroyEPNS_11__tree_nodeIS7_PvEE
iwa:__Z13IsDepthFormat14GraphicsFormat
deb:__ZN12AspectRatios8TransferI24GenerateTypeTreeTransferEEvRT_
iQd:_MonoType_GetFields_m4176012508
Gwc:__Z12FormatBufferPciPKcz
dtf:_CurrentSystemTimeZone_GetTimeZoneData_m2641861607
WWf:_EqualityComparer_1_System_Collections_IEqualityComparer_GetHashCode_m3423304513_gshared
OKi:__ZN6il2cpp2vm5Class13GetArrayClassEP11Il2CppClassj
y2c:_StandaloneInputModule_set_inputActionsPerSecond_m4057208843
HHb:__ZN19RuntimeSceneManager18LoadSceneAsyncIntoER10UnitySceneRKN4core12basic_stringIcNS2_20StringStorageDefaultIcEEEENS_11LoadingModeEb
brc:__Z35Transfer_Blittable_FixedBufferFieldI9JSONWritetEvRK29SerializationCommandArgumentsR31RuntimeSerializationCommandInfo
unc:__ZN11IMGUIModule12AddGUIScriptER8ListNodeI13MonoBehaviourE
nb:invoke_difi
Yvi:_GUILayoutUtility_BeginWindow_m2240221150
_Fj:_glDeleteSamplers__wrapper
S7e:_HybridDictionary_set_Item_m2997363718
ZLa:__ZNSt3__26__treeIiNS_4lessIiEE13stl_allocatorIiL18MemLabelIdentifier1ELi16EEE7destroyEPNS_11__tree_nodeIiPvEE
tte:_InternalEnumerator_1_get_Current_m1477715453_AdjustorThunk
wgg:_UInt64_System_IConvertible_ToUInt32_m2784653358
Pva:__ZN21GLESGpuProgramApplier11ApplyVectorERKN20GpuProgramParameters14ValueParameterEPK8Vector4ft
NUb:__Z17PrepareSceneNodesP11CullResults
ued:_SByte_System_IConvertible_ToDecimal_m2548745278
Jxc:_cff_size_done
mVb:__ZN29ExtractProjectionPlanesHelperILb1EE5ApplyERK10Matrix4x4fP5Plane
l7b:__ZN13ProduceHelperI7CubemapLb0EE7ProduceE10MemLabelId18ObjectCreationMode
vZb:__ZN6Camera34UpdatePreviousViewProjectionMatrixEv
Gma:__ZN9ShaderLab11ShaderState25RemoveUnsupportedProgramsEPK6Shader
oMc:__Z28Font_Get_Custom_PropMaterialP12Il2CppObject
ypg:_Mathf_Abs_m3281243566
tNd:_SynchronizedWriter_WriteLine_m1552352268
Vbc:__Z26scripting_class_has_parent17ScriptingClassPtrS_
Tba:__ZN13RuntimeStaticI21AssetReferenceStorageLb0EE16StaticInitializeEPv
FVc:__ZNSt3__26__treeINS_12__value_typeIN4core12basic_stringIcNS2_20StringStorageDefaultIcEEEEN11UnityEngine7Connect19RemoteSettingsValueEEENS_19__map_value_compareIS6_SA_NS_4lessIS6_EELb1EEE13stl_allocatorISA_L18MemLabelIdentifier6ELi16EEE16__construct_nodeERKNS_4pairIKS6_S9_EE
jFd:_Int32_System_IConvertible_ToByte_m3832391412_AdjustorThunk
AQ:__Z71Register_UnityEngine_AudioSource_INTERNAL_CALL_ClearExtensionPropertiesv
yC:__ZNK8Animator20IsInMatchTargetStateEv
Dpe:_InternalEnumerator_1_System_Collections_IEnumerator_get_Current_m4088805473_gshared
$nc:__Z36Register_UnityEngine_GUI_set_changedv
eHe:_Context_GetServerContextSinkChain_m3154465897
Qwi:_GUIStyle_get_fixedHeight_m2868324709
pBd:_Convert_ToInt64_m2075293963
qrj:__GLOBAL__sub_I_Il2CppCodeRegistration_cpp
Ww:__ZN27AnimationLayerMixerPlayable18SetInputConnectionEP8Playablei
Fw:__ZN7mecanim28TransformValueArrayBlendNodeEiiiRKNS_10ValueArrayERKNS_14ValueArrayMaskERS0_RS3_RNS_16ValueArrayWeightEf
h8c:_Dropdown_set_value_m1048320169
BVa:__ZN20TierGraphicsSettings8TransferI18StreamedBinaryReadILb0EEEEvRT_
IFd:_Int32_System_IConvertible_ToUInt64_m2502338186_AdjustorThunk
Afa:__Z33CleanupCubemapGPUUtilityMaterialsPv
S$a:__ZN14SafeBinaryRead8TransferINSt3__24pairIN9ShaderLab16FastPropertyNameE10ColorRGBAfEEEEvRT_PKc17TransferMetaFlags
BJi:__ZL9rshift128PyS_
T0f:_Enumerator_VerifyState_m169680537_AdjustorThunk
k2i:__ZN14dense_hash_mapI10KeyWrapperINSt3__24pairIPK12PropertyInfoP11Il2CppClassEEEj17ReflectionMapHashIS8_ENS9_14EqualsComparerINS1_8equal_toIS8_EEEENS1_9allocatorINS2_IKS9_jEEEEE13set_empty_keyERSH_
Ng:_glRenderbufferStorage
wbj:__ZNK15dense_hashtableINSt3__24pairIK10KeyWrapperINS1_IPKcS4_EEEiEES6_24NamespaceAndNamePairHashN14dense_hash_mapIS6_iS9_NS6_14EqualsComparerI26NamespaceAndNamePairEqualsEENS0_9allocatorIS8_EEE9SelectKeyESD_SF_E13find_positionERS7_
Ehc:__Z45Register_UnityEngine_Input_get_touchSupportedv
XTc:__ZN11UnityEngine15PlatformWrapper28GetTextureFormatSupportFlagsEv
KCc:_sfnt_is_postscript
n_b:__ZNSt3__26vectorINS_4pairIN4core12basic_stringIcNS2_20StringStorageDefaultIcEEEES6_EE13stl_allocatorIS7_L18MemLabelIdentifier38ELi16EEE26__swap_out_circular_bufferERNS_14__split_bufferIS7_RSA_EEPS7_
_ti:_Uri_EscapeString_m3864445955
wyc:_cf2_setError
R9a:__ZN14SafeBinaryRead21TransferSTLStyleArrayI13dynamic_arrayI12BoneWeights4Lj16EEEEvRT_17TransferMetaFlags
Ewe:_Enumerator_MoveNext_m465222849_AdjustorThunk
FKb:__ZZ23InitPlayerLoopCallbacksvEN35PreUpdateSendMouseEventsRegistrator7ForwardEv
JEa:__ZNK6Camera25GetNormalizedViewportRectEP13RenderTextureb
i8c:_Dropdown_Awake_m3140021404
_g:_glDisable
WZa:__ZN13RenderTexture8TransferI24GenerateTypeTreeTransferEEvRT_
jzg:_Vector2_get_sqrMagnitude_m837837635
fkj:__ZN6il2cpp5utils11StringUtils15StringDuplicateEPKDsj
qE:__ZZN8Animator15InitializeClassEvEN37FunctorImpl_417kDidModifyOverrideClip4CallEPviR11MessageData
Ori:_Regex_Match_m4145799399
Dv:__ZN17AnimationPlayable17ProcessRootMotionEP35AnimationPlayableEvaluationConstantP32AnimationPlayableEvaluationInputP33AnimationPlayableEvaluationOutput
Tqf:_String_IsNullOrEmpty_m2969720369
dAe:_Enumerator_MoveNext_m2602845255_gshared
$Gi:_TextGenerator_GetPreferredHeight_m3514897836
s2e:_BigInteger_LowestSetBit_m3082714978
NKj:b118
OKj:b119
DLb:__ZNK8Material12GetPassCountEv
gjf:_RSAParameters_t1728406613_marshal_pinvoke
Lhf:_Interval_IsDisjoint_m1532171337_AdjustorThunk
HKj:b112
Hzj:_bitshift64Ashr
JKj:b114
KKj:b115
LKj:b116
MKj:b117
cBj:dynCall_diii
XTe:_LayoutUtility_GetFlexibleWidth_m22831835
_Me:_BinaryFormatter__ctor_m971003555
Hie:_ArrayReadOnlyList_1_ReadOnlyError_m865416608_gshared
bwd:_CollectionBase_System_Collections_IList_get_Item_m3743372945
Ixa:__ZN4crnd12crn_unpacker22decode_alpha_endpointsEv
wah:_Queue_1__ctor_m2068090025_gshared
TVb:__Z23CullDynamicObjectsUmbraPK4AABBPKN5Umbra15OcclusionBufferER9IndexList
rEc:_tt_cmap4_char_next
a_:__ZN4core8hash_mapIi17ThreadedAwakeDataNS_4hashIiEENSt3__28equal_toIiEEE4growEi
SBg:__Z50RuntimeInvoker_Boolean_t97287965_Int16_t2552820387PFvvEPK10MethodInfoPvPS4_
yAd:_Convert_ToDecimal_m1233667008
$Z:__ZN4core8hash_mapIi17ThreadedAwakeDataNS_4hashIiEENSt3__28equal_toIiEEE4growEv
y7:__GLOBAL__sub_I_runtime_assetbundles_1_cpp
II:__ZN4FMOD7Channel11setPositionEjj
Sh:_glBindSampler
Jae:_ClientContext_get_ClientHelloProtocol_m1654639078
Wh:_glGetVertexAttribiv
uAe:_Enumerator_System_Collections_IEnumerator_get_Current_m1975949486_gshared
eqi:_PatternCompiler_EmitSub_m193323684
INc:__ZN2UI11CanvasGroup23VirtualRedirectTransferER18StreamedBinaryReadILb0EE
hGd:_Int64_System_IConvertible_ToByte_m375085029
Nuc:__ZN8JSONRead8TransferIbEEvRT_PKc17TransferMetaFlagsb
ocg:_TimeSpan_ToString_m1128692466
Oyi:_AesManaged_CreateEncryptor_m2294080233
Evi:_Event_GetHashCode_m3559153592
tma:__ZN9ShaderLab9SubShaderD2Ev
dmj:_GC_promote_black_lists
hAd:_Convert_ToChar_m3757390865
Bvc:__Z29Transfer_Blittable_ArrayFieldI8JSONRead8Vector4fEvRT_R9ArrayInfoRK23StaticTransferFieldInfo
Sn:FUNCTION_TABLE_vf
NTd:_Binder_GetDerivedLevel_m3216810447
qo:FUNCTION_TABLE_vd
S8:__ZN13RuntimeStaticI37UnityShaderCompilerExtPluginConfigureLb0EE16StaticInitializeEPv
qVc:__ZN11UnityEngine7Connect17DeviceStatusEvent20SetDeviceAspectRatioEf
v7f:_StringBuilder_AppendFormat_m2403596038
Ogd:_DSASignatureDeformatter_SetHashAlgorithm_m3186995552
n6h:_ReadOnlyCollection_1_System_Collections_Generic_ICollectionU3CTU3E_Clear_m2772202961_gshared
Qsc:__ZN9JSONWrite8TransferI13dynamic_arrayI4AABBLj4EEEEvRT_PKc17TransferMetaFlags
RE:__ZNK8Animator17HasBoundPlayablesEv
c4d:_ResourceSet_ReadResources_m3663669011
Y9f:_SynchronizationContext_SetSynchronizationContext_m1249070039
G7g:_List_1_AddEnumerable_m1267044261_gshared
RDc:_tt_cmap13_char_index
LUi:__ZN6il2cpp2vm7Runtime9SetConfigEPKc
Cpc:__ZN5Unity9rapidjson12PrettyWriterI16TempBufferWriterNS0_4UTF8IcEES4_13JSONAllocatorE10StartArrayEv
ta:invoke_iiifiii
ovg:_RectTransform_INTERNAL_get_pivot_m2970933031
Sgi:_UnityAction_1_Invoke_m927447181_gshared
b9i:__ZN6il2cpp2vm9Exception11FromNameMsgEPK11Il2CppImagePKcS6_S6_
cn:FUNCTION_TABLE_fiiifii
Uea:__Z14GetTimeManagerv
Hkg:_Color32_op_Implicit_m213813866
Qug:_RectOffset_set_top_m713260669
EXc:__ZN19TransportJavaScript7CleanupEv
IPa:__Z12GUIDToStringRK9UnityGUIDPc
Rba:__ZN15FileSystemEntry4LockE12FileLockModeP12FileAccessor
MIj:_emscripten_glDrawArrays__wrapper
RFd:_Int32_Equals_m2976157357
ROg:__Z110RuntimeInvoker_Int32_t2950945753_Int32_t2950945753_Int32_t2950945753_Int32U26_t1369213839_Int32U26_t1369213839PFvvEPK10MethodInfoPvPS4_
fM:__ZN11AudioSource22UnmuteActiveVideoSinksEv
Fki:_TlsException__ctor_m3717683709
ckj:__ZN4utf88internal20is_overlong_sequenceIiEEbjT_
GOi:__ZN6il2cpp2vm13MetadataCache8RegisterEPK22Il2CppCodeRegistrationPK26Il2CppMetadataRegistrationPK20Il2CppCodeGenOptions
mRa:__Z9SetLocalR15TransformAccessRKN4math7_float4Ey
QRb:__Z30SetupBakedOcclusionForGeometrybRK26SharedLightmapSettingsDataRK15LightmapIndicesR17ShaderPassContext
Mfc:__Z41Register_UnityEngine_Cursor_get_lockStatev
mRb:__Z14SetupLightmapsRK8Vector4fS1_R17ShaderPassContext
K0i:__ZN14dense_hash_mapI10KeyWrapperIPK14Il2CppAssemblyEPK22Il2CppMonoAssemblyNameN6il2cpp5utils11PointerHashIS2_EENS4_14EqualsComparerINSt3__28equal_toIS3_EEEENSD_9allocatorINSD_4pairIKS4_S7_EEEEE13set_empty_keyERSJ_
P_a:__ZL20InitializeGUIShadersv
xGf:_Guid_CompareTo_m243656946
k1b:__Z20DestroyObjectDelayedP6Objectf
AW:__ZN20DynamicHeapAllocatorI17LowLevelAllocatorED0Ev
i4b:__ZN11TimeManagerC2E10MemLabelId18ObjectCreationMode
KOb:__ZN9DepthPassD2Ev
AH:__ZN11AudioFilter6GetDSPEv
fjf:_RSACryptoServiceProvider_OnKeyGenerated_m863837376
aXe:_Scrollbar_OnDrag_m4289602768
Eaa:__ZN19RuntimeSceneManager14CanUnloadSceneEP10UnityScene
MOb:__Z22ExtractRenderNodeQueueRK11CullResults15ExtractionFlagsR15RenderNodeQueue
FG:__ZN24AudioScriptBufferManagerC2Ev
aKc:__ZNSt3__26vectorIh13stl_allocatorIhL18MemLabelIdentifier1ELi16EEE8__appendEj
xre:_InternalEnumerator_1_System_Collections_IEnumerator_get_Current_m3854084659_AdjustorThunk
OOe:_OnValidateInput_Invoke_m1009124904
Khe:_U3CGetEnumeratorU3Ec__Iterator0_System_Collections_IEnumerator_get_Current_m283764921_gshared
cKc:__ZN20TextRenderingPrivate8FontImpl16ResetPackingDataEv
ADf:_CultureInfo_get_IcuName_m2258611679
Aqc:__Z18Transfer_BlittableI9JSONWriteLb0EfEvRK29SerializationCommandArgumentsR31RuntimeSerializationCommandInfo
Vwa:__Z21GetAsyncUploadManagerv
Jj:_emscripten_glDetachShader
Dvg:_Vector2_op_Subtraction_m73004381
Jwa:__ZN17GenericDynamicVBO20ReleaseChunkInternalERK21DynamicVBOChunkHandlejj
nMc:__ZL27CleanupModule_TextRenderingv
iwj:_fmodl
D6e:_SymmetricTransform_OFB_m3842617151
MHb:__ZN19RuntimeSceneManager11CreateSceneEv
kkg:_Color__ctor_m286683560
Npi:_PatternCompiler_Emit_m1540115729
BCc:_ps_get_standard_strings
PRb:__Z27SetupBakedOcclusionForLightbRK15SharedLightDataR17ShaderPassContext
Irj:__ZN6il2cpp2os5Mutex6UnlockEv
g5f:_EncoderFallbackException__ctor_m1051987327
A2e:_BigInteger_ToString_m3278248272
Gxf:_Decimal_System_IConvertible_ToBoolean_m1123794670
AWg:__Z98RuntimeInvoker_Int32_t2950945753_RaycastResult_t3360306849_RaycastResult_t3360306849_RuntimeObjectPFvvEPK10MethodInfoPvPS4_
Vaa:__Z17CommitBatchDeleteR11BatchDelete
gUe:_Mask__ctor_m1269055150
ezh:__ZL99WaitHandle_t1743403487_CustomAttributesCacheGenerator_WaitHandle_t1743403487____Handle_PropertyInfoP21CustomAttributesCache
wbf:_WebRequest_AddPrefix_m3187775913
gMb:__Z18RenderImageFiltersR10RenderLoopb
WQc:__Z43CanvasRenderer_Get_Custom_PropMaterialCountP12Il2CppObject
_Rb:__ZNSt3__227__insertion_sort_incompleteIR23CompareReflectionProbesP31RuntimeReflectionProbeBlendInfoEEbT0_S5_T_
g4g:_List_1_Remove_m1457733883_gshared
Wvc:__ZN8JSONRead21TransferSTLStyleArrayI13dynamic_arrayI11QuaternionfLj4EEEEvRT_17TransferMetaFlags
B0d:_MonoEventInfo_GetEventInfo_m873645389
o8d:_MD4Managed_Encode_m386285215
ica:__ZN10InputEventD2Ev
LZ:__ZL23OutOfBoundsReadingErrorPKN5Unity4TypeEiiR6Object
LYc:__ZN22UnityWebRequestManagerD2Ev
svi:_Event_get_character_m1666742088
Pvj:_isalpha
dAd:_Convert_ToChar_m1442101407
yge:_SslClientStream_OnLocalPrivateKeySelection_m1934775249
Ewf:_DateTimeOffset_get_Offset_m2040541042_AdjustorThunk
HSi:__ZN6il2cpp2vmL17IsSocketAsyncCallEP14Il2CppDelegate
Qxd:_Slot_t3975888750_marshal_pinvoke_back
Cjj:__ZN6il2cpp2vm6String6NewLenEPKcj
a5:__Z25GetBuiltinTexEnvParamNamei
GFb:__ZN17PersistentManager9AddStreamEv
_k:_time
p6c:_ContentSizeFitter_set_verticalFit_m1831566876
Dlf:_TripleDESCryptoServiceProvider_CreateDecryptor_m740960117
NSg:__Z122RuntimeInvoker_Void_t1185182177_Color_t2555686324_Single_t1397266774_SByte_t1669577662_SByte_t1669577662_SByte_t1669577662PFvvEPK10MethodInfoPvPS4_
qpg:_Material_EnableKeyword_m329692301
jzc:_cf2_stack_free
zkf:_SHA512Managed_HashCore_m2377807474
RGd:_Int64_Parse_m3309897583
fEf:_CompareInfo_IndexOf_m667936183
rv:__ZN7mecanim9animation19EvaluateFloatValuesEPKNS0_18ClipMuscleConstantEPKNS_18ValueArrayConstantEPKNS0_12ClipBindingsEPKNS0_10ClipOutputEPNS0_18AnimationNodeStateEfbb
cD:__ZN8Animator31ClearInternalControllerPlayableEv
UHa:__ZN26SinglePassStereoSupportExt18AfterSetViewMatrixEv
Yig:_Bounds__ctor_m1937678907_AdjustorThunk
Hwg:_SetupCoroutine_InvokeMember_m2661944898
l_f:_HashSet_1__ctor_m620629637_gshared
Zbf:_X509EnhancedKeyUsageExtension_ToString_m350388564
wYi:__ZN15dense_hashtableINSt3__24pairIK10KeyWrapperINS1_IPK9FieldInfoP11Il2CppClassEEEjEES9_17ReflectionMapHashIS8_EN14dense_hash_mapIS9_jSD_NS9_14EqualsComparerINS0_8equal_toIS8_EEEENS0_9allocatorISB_EEE9SelectKeyESI_SK_E4findERSA_
Hud:_SimpleEnumerator_MoveNext_m3113120129
LHb:__ZN13LoadOperationC2E10MemLabelId
QOe:_InputField_SendOnValueChanged_m2560301445
uXb:__ZN13RenderTexture19SetAutoGenerateMipsEb
pya:__Z20GetTextureFormatInfo13TextureFormat
i9e:_TypeConverterAttribute_Equals_m1580461255
s9d:_RSAManaged_ToXmlString_m2369501989
cy:__ZN26AnimatorControllerPlayable8GetFloatEiRf
Rtf:_DateTime_System_IConvertible_ToSingle_m2193708681_AdjustorThunk
Khf:_Interval_get_Size_m4163671410_AdjustorThunk
_Nc:__ZN2UI14CanvasRenderer13AwakeFromLoadE17AwakeFromLoadMode
Fkh:__ZL64String_t_CustomAttributesCacheGenerator_String_Split_m3580120853P21CustomAttributesCache
_pj:__ZN6il2cpp5utils10MemoryPool6MallocEj
ZF:__ZN11SoundHandle8InstanceD2Ev
O3d:_ResourceEnumerator_Reset_m3754276504
wfa:__ZN31CanvasBatchIntermediateRenderer13StaticDestroyEPv
l$:__ZNSt3__23mapIiP15MonoScriptCacheNS_4lessIiEE13stl_allocatorINS_4pairIKiS2_EEL18MemLabelIdentifier78ELi16EEEixERS7_
bTa:__Z26scripting_method_get_class18ScriptingMethodPtr
xGj:_emscripten_glBindProgramARB__wrapper
Jfc:__Z41Register_UnityEngine_CullingGroup_Disposev
iqi:_PatternCompiler_EmitRepeat_m697083858
H2a:__ZN7Cubemap23VirtualRedirectTransferER19StreamedBinaryWriteILb0EE
tOa:__ZN25MultiBlocksMemoryFileData5WriteEyyPKv
r3d:_ResourceReader_Read7BitEncodedInt_m3568166465
E7c:_DefaultControls_CreateInputField_m1003102365
JHi:_CanvasGroup_set_alpha_m4032573
$md:_Array_get_LongLength_m978104875
ZBa:__ZL17ProgramUniform2fvPK7ApiGLESjiihPKv
rHj:b83
YJc:__ZN20TextRenderingPrivate8FontImpl21HasCharacterInTextureEjijfPj
fkb:__ZNSt3__227__insertion_sort_incompleteIRPFbRK23TransformAccessReadOnlyS3_EPS1_EEbT0_S8_T_
Byg:_Transform_SetAsFirstSibling_m253439912
suf:_DateTime_System_IConvertible_ToUInt16_m4182197229_AdjustorThunk
Dhf:_Interval_get_IsDiscontiguous_m3016063288
Oge:_SslStreamBase_get_CheckCertRevocationStatus_m2739906607
jxj:_htonl
Zta:__Z20GetBufferManagerGLESv
qHj:b82
Jkf:_SHA512Managed_Sigma1_m922902398
WBb:__ZN18StreamedBinaryReadILb0EE21TransferSTLStyleArrayI31ArrayOfManagedObjectsTransfererEEvRT_17TransferMetaFlags
Bua:__ZNSt3__26__treeI22DeviceStencilStateGLES14MemoryCompLessI18DeviceStencilStateENS_9allocatorIS1_EEE12__find_equalIS1_EERPNS_16__tree_node_baseIPvEESD_RKT_
Ltc:__Z18Transfer_BlittableI8JSONReadLb0EtEvRK29SerializationCommandArgumentsR31RuntimeSerializationCommandInfo
FZ:__Z16GenerateTypeTreeRK6ObjectR8TypeTree24TransferInstructionFlags
XEf:_CultureInfo_CreateCulture_m1493441763
vlf:_TripleDES_IsWeakKey_m2147489852
Qy:__ZN34AnimationStateMachineMixerPlayable13EndTransitionEv
iI:__ZN12AudioManager21FixMasterGroupRoutingEv
p9a:__ZNK19ShaderPropertySheet11HasPropertyERKN9ShaderLab16FastPropertyNameE
tBj:dynCall_viffffii
aC:__ZN15AllocatorTraitsIN8Animator11AnimatorJobELb0EE13CopyConstructEPS1_RKS1_10MemLabelId
yVg:__Z81RuntimeInvoker_Boolean_t97287965_NavigationU26_t1807167253_Navigation_t3049316579PFvvEPK10MethodInfoPvPS4_
DIj:_emscripten_glUniform1fv__wrapper
zbd:_GridLayoutGroup_SetLayoutHorizontal_m2838109254
H7c:_Dropdown_RefreshShownValue_m2806045241
lob:__Z18Transfer_BlittableI14SafeBinaryReadLb1E4AABBEvRK29SerializationCommandArgumentsR31RuntimeSerializationCommandInfo
Qfj:__ZN6il2cpp6icalls8mscorlib6System4Enum12get_hashcodeEP12Il2CppObject
bpj:_GC_set_no_dls
K5c:_ColorBlock_set_normalColor_m254595671_AdjustorThunk
ytj:__ZN6il2cpp8metadata26Il2CppGenericMethodCompare6EqualsEPK19Il2CppGenericMethodS4_
Aqe:_InternalEnumerator_1_get_Current_m1007906068_gshared
BMi:__ZN15dense_hashtableINSt3__24pairIK10KeyWrapperIPK11Il2CppClassEPKcEES6_N6il2cpp5utils11PointerHashIS3_EEN14dense_hash_mapIS6_S9_SE_NS6_14EqualsComparerINS0_8equal_toIS5_EEEENS0_9allocatorISA_EEE9SelectKeyESJ_SL_E15set_deleted_keyERKSA_
Jud:_SimpleEnumerator_Reset_m1520014659
NG:__ZN9AudioClip7WWWOpenEPKciPjPPvS4_
cob:__Z18Transfer_BlittableI14SafeBinaryReadLb0E8Vector2fEvRK29SerializationCommandArgumentsR31RuntimeSerializationCommandInfo
Kce:_Context_set_ProtocolNegotiated_m2904861662
ubj:__ZN15dense_hashtableINSt3__24pairIK10KeyWrapperINS1_IPKcS4_EEEiEES6_24NamespaceAndNamePairHashN14dense_hash_mapIS6_iS9_NS6_14EqualsComparerI26NamespaceAndNamePairEqualsEENS0_9allocatorIS8_EEE9SelectKeyESD_SF_E12resize_deltaEjj
KLe:_RemotingServices_GetRemoteObject_m2117098022
_Hi:_CanvasRenderer_SetTexture_m1600559835
TWc:__ZN13dynamic_arrayIiLj4EE6insertEPiPKiS3_
Lhh:_Collection_1_System_Collections_IList_IndexOf_m4256072926_gshared
cFg:__Z132RuntimeInvoker_Boolean_t97287965_RuntimeObject_Int32_t2950945753_Int32_t2950945753_RuntimeObject_Int32_t2950945753_Int32_t2950945753PFvvEPK10MethodInfoPvPS4_
yhc:__Z53Register_UnityEngine_Input_INTERNAL_get_mousePositionv
Sta:__ZN7ApiGLES12DrawElementsE16GfxPrimitiveTypePKvjjjj
U5e:_EncryptedPrivateKeyInfo_get_Salt_m3453455261
zvf:_DateTime__ParseNumber_m1240316250
Tof:_Single_System_IConvertible_ToSingle_m1939829239_AdjustorThunk
Qme:_InternalEnumerator_1_get_Current_m3839250771_gshared
lkc:__Z66Register_UnityEngine_Transform_INTERNAL_CALL_InverseTransformPointv
zEf:_CultureInfo_get_TextInfo_m2342840448
OMf:_Array_InternalArray__IndexOf_TisMark_t3471605523_m2905388260_gshared
fd:_SDL_GetTicks
s_i:__ZN15dense_hashtableINSt3__24pairIK10KeyWrapperINS1_IPK11Il2CppImageP11Il2CppClassEEEjEES9_17ReflectionMapHashIS8_EN14dense_hash_mapIS9_jSD_NS9_14EqualsComparerINS0_8equal_toIS8_EEEENS0_9allocatorISB_EEE9SelectKeyESI_SK_E6insertERKSB_
yVb:__Z21CreateShadowCullerJobP30CreateUmbraShadowCullerJobData
H9h:_ReadOnlyCollection_1_System_Collections_Generic_ICollectionU3CTU3E_Remove_m4072504734_gshared
RBa:__ZL18ProgramUniform2uivPK7ApiGLESjiihPKv
t4c:_U3COnFinishSubmitU3Ec__Iterator0_MoveNext_m2729496168
dIj:_glUniform4iv__wrapper
ySb:__Z33GenerateShadowCasterPartsSortDataRK16ShadowCasterDatajRK15RenderNodeQueueRKNSt3__26vectorI20ShadowCasterPartData13stl_allocatorIS7_L18MemLabelIdentifier2ELi16EEEERK10Matrix4x4fRjP20ShadowCasterSortData
UKb:__ZZ23InitPlayerLoopCallbacksvEN51PostLateUpdateTriggerEndOfFrameCallbacksRegistrator7ForwardEv
Tbg:_TimeSpan_Compare_m753151303
jrb:__Z29Transfer_Blittable_ArrayFieldI14SafeBinaryRead9BoundsIntEvRT_R9ArrayInfoRK23StaticTransferFieldInfo
qyc:_cf2_computeDarkening
MIi:_AnimationLayerMixerPlayable__ctor_m860721801_AdjustorThunk
U1d:_MonoPropertyInfo_get_property_info_m1599555644
lgd:_DESTransform_CipherFunct_m3527261721
zmj:_GC_expand_hp_inner
ldj:__ZNK15dense_hashtableI10KeyWrapperIP18Il2CppGenericClassES3_N6il2cpp8metadata22Il2CppGenericClassHashEN14dense_hash_setIS3_S6_NS3_14EqualsComparerINS5_25Il2CppGenericClassCompareEEENSt3__29allocatorIS3_EEE8IdentityESA_SD_E12test_deletedEj
Lkc:__Z25Screen_Get_Custom_PropDpiv
sng:_UnityEventBase_RebuildPersistentCallsIfNeeded_m216788690
Tjj:__ZN4utf812find_invalidIPKcEET_S3_S3_
KQe:_InputField_OnEndDrag_m4127187089
eci:_ReadOnlyCollection_1_System_Collections_IList_RemoveAt_m2555465054_gshared
Snh:__ZL72RuntimeCompatibilityAttribute_t1169614002_CustomAttributesCacheGeneratorP21CustomAttributesCache
Yzf:_StackFrame__ctor_m343464319
uT:__ZN11UnityEngine15CloudWebService20WebRequestRestClient7PrepareEv
b1d:_MonoField_CheckGeneric_m453069507
LJc:__ZN20TextRenderingPrivate19NativeTextGenerator23FixLineHorizontalOffsetEiii
Pud:_SynchronizedArrayListWrapper_get_IsFixedSize_m3396437476
CNe:_ObjectReader_ReadArrayOfString_m3550800559
iPd:_MonoCustomAttrs_GetCustomAttributesInternal_m648304078
aA:__ZN7mecanim9animation19DestroyAnimationSetEPNS0_12AnimationSetERNS_6memory9AllocatorE
dDj:_emscripten_glDepthRange__wrapper
k0:__ZN14SerializedFile7ReleaseEv
mmb:__ZN16MemoryFileSystem4OpenER13FileEntryData14FilePermission16FileAutoBehavior
aEf:_CompareInfo_GetSortKey_m1915852346
aHc:_ft_var_load_avar
lfa:__ZN13RuntimeStaticI13RendererSceneLb0EE13StaticDestroyEPv
Ote:_DefaultComparer_Compare_m1297750557_gshared
CW:__ZN20DynamicHeapAllocatorI17LowLevelAllocatorE10ReallocateEPvji
qub:__Z18Transfer_BlittableI24GenerateTypeTreeTransferLb1E12PropertyNameEvRK29SerializationCommandArgumentsR31RuntimeSerializationCommandInfo
pzi:_Toggle_OnEnable_m1421694809
_cb:__ZN14SafeBinaryRead21TransferSTLStyleArrayI10vector_mapIPKN5Unity4TypeE7Hash128NSt3__24lessIS5_EENS7_9allocatorINS7_4pairIS5_S6_EEEEEEEvRT_17TransferMetaFlags
MG:__ZN9AudioClip18GetQueuedAudioDataEPPvj
aMc:__ZN20TextRenderingPrivate21TextMeshGeneratorImpl14GarbageCollectEv
sac:__ZNK9Texture2D17CheckHasPixelDataEv
Juj:_InputBuffer_DeleteCharacters_m244939457
dwb:__Z18Transfer_BlittableI19StreamedBinaryWriteILb0EELb0E9BoundsIntEvRK29SerializationCommandArgumentsR31RuntimeSerializationCommandInfo
tOb:__Z18SetShadowsKeywordsR17ShaderPassContext9LightType10ShadowType16ShadowProjectionbb
Dad:_Graphic_GetPixelAdjustedRect_m3729397999
j2i:__ZN14dense_hash_mapI10KeyWrapperINSt3__24pairIPK12PropertyInfoP11Il2CppClassEEEj17ReflectionMapHashIS8_ENS9_14EqualsComparerINS1_8equal_toIS8_EEEENS1_9allocatorINS2_IKS9_jEEEEEC2EjRKSB_RKSF_
y6b:__ZN17CollisionMeshDataC2Ev
_Ce:_Dictionary_2_ToTValue_m692436965_gshared
d5d:_Marshal_Copy_m1222846562
i4a:__ZN16LightmapSettings23VirtualRedirectTransferER19StreamedBinaryWriteILb0EE
XKb:__ZZ23InitPlayerLoopCallbacksvEN47PostLateUpdateMemoryFrameMaintenanceRegistrator7ForwardEv
Uta:__ZN7ApiGLES20SetVertexArrayAttribEjj12VertexFormathjPKv
vo:FUNCTION_TABLE_viiififii
knj:_GC_push_next_marked
Ihb:__ZN18IDCollectorFunctor18GenerateInstanceIDEi17TransferMetaFlags
V3h:_GameObject_GetComponent_TisRuntimeObject_m2049753423_gshared
xGi:_TextGenerationSettings_Equals_m3618607189_AdjustorThunk
H8e:_NameObjectCollectionBase_BaseAdd_m3437748750
kdg:_Type_internal_from_handle_m3156085815
W7h:_ReadOnlyCollection_1_System_Collections_Generic_ICollectionU3CTU3E_Add_m69722965_gshared
wD:__ZN8Animator8TransferI19StreamedBinaryWriteILb0EEEEvRT_
H1:__ZNSt3__27__sort4IRNS_6__lessI14ObjectLoadDataS2_EEPS2_EEjT0_S6_S6_S6_T_
aNb:__ZNK25CameraStackRenderingState16GetCurrentCameraEv
XXe:_ScrollRect_get_rectTransform_m2442061719
w8b:__Z22PlayableValidityChecksRK9HPlayableb
Eeb:__ZN15ResourceManagerD2Ev
yfc:__Z41Register_UnityEngine_Camera_GetAllCamerasv
Img:_InvokableCall__ctor_m2158562079
yri:_Assertion__ctor_m2128950829
aWc:__ZN28PerformanceReportingSettings8TransferI14SafeBinaryReadEEvRT_
$ib:__ZN15CacheWriterBase18GetAddressOfMemoryEv
jjd:_Buffer_BlockCopy_m2884209081
Ttc:__Z18Transfer_BlittableI8JSONReadLb1E5RectTIiEEvRK29SerializationCommandArgumentsR31RuntimeSerializationCommandInfo
F7i:__ZN6il2cpp2vm22EmbeddedResourceRecordC2ERKS1_
qIb:__ZL20DrawVBOChunkWithPassP6ShaderPN9ShaderLab4PassER17ShaderPassContextR10DynamicVBORK21DynamicVBOChunkHandle
$dh:_Collection_1__ctor_m825528237_gshared
C2a:__ZN9Texture2D13AwakeFromLoadE17AwakeFromLoadMode
KJf:_SetPropertyUtility_SetStruct_TisColorBlock_t2139031574_m1748367426_gshared
hrg:_PlayerConnection_get_instance_m1750121257
ifj:__ZN6il2cpp2vm3RCW14QueryInterfaceILb0EEEP14Il2CppIUnknownP15Il2CppComObjectRK10Il2CppGuid
Vni:_X509Store_get_Certificates_m56224934
Xza:__ZN6prcoreL17RemapGenericFloatI15TexFormatRFloat18TexFormatARGBFloatEEvPKNS_9InnerInfoE
GIg:__Z85RuntimeInvoker_Void_t1185182177_Int64_t3736567304_Int32_t2950945753_Int64_t3736567304PFvvEPK10MethodInfoPvPS4_
cae:_CipherSuite__ctor_m2440635082
kjf:_RSAPKCS1KeyExchangeFormatter_SetRSAKey_m1477802943
dnf:_EvidenceEnumerator_get_Current_m1264365535
ZWc:__ZN11UnityEngine15PlatformWrapper20GetPlayerPrefsUInt64ERKN4core12basic_stringIcNS1_20StringStorageDefaultIcEEEEy
c5d:_Marshal_copy_from_unmanaged_m2834266824
GBj:dynCall_iiiifii
cSb:__ZN20ReflectionProbeCacheC2ER13BatchRendererR15RenderLoopStats
kug:_Rect_set_xMax_m1720695099_AdjustorThunk
sLg:__Z59RuntimeInvoker_Int32_t2950945753_DateTimeOffset_t3229287507PFvvEPK10MethodInfoPvPS4_
klb:__ZNK12HandlerChain6ExistsERK13FileEntryData
fDf:_Calendar__ctor_m106290643
OSb:__Z30FindDirectAttenuationFromProbeP18ForwardLightsBlockbiRK10RenderNodeRK23FindForwardLightsParamsf
Lac:__ZNSt3__26vectorIj13stl_allocatorIjL18MemLabelIdentifier1ELi16EEE6assignIPKjEENS_9enable_ifIXaasr21__is_forward_iteratorIT_EE5valuesr16is_constructibleIjNS_15iterator_traitsIS9_E9referenceEEE5valueEvE4typeES9_S9_
lcb:__ZN12InputManager23VirtualRedirectTransferER24GenerateTypeTreeTransfer
pkb:__ZN9Transform23VirtualRedirectTransferER24GenerateTypeTreeTransfer
hmc:__ZN12GUIClipState10BeginOnGUIER10InputEvent
Cna:__ZNSt3__26vectorIN9ShaderLab20SerializedSubProgram12UAVParameterENS_9allocatorIS3_EEE21__push_back_slow_pathIKS3_EEvRT_
XMg:__Z87RuntimeInvoker_RuntimeObject_Byte_t1134296376_RuntimeObject_RuntimeObject_RuntimeObjectPFvvEPK10MethodInfoPvPS4_
Nbe:_HandshakeMessage_Process_m810828609
vFc:_UNITY_tt_size_ready_bytecode
vIc:__ZN13TextRendering4FontD2Ev
_sg:_Quaternion_Inverse_m1311579081
cLc:_UNITY_FT_Stream_Open
svb:__Z29Transfer_Blittable_ArrayFieldI24GenerateTypeTreeTransfer9BoundsIntEvRT_R9ArrayInfoRK23StaticTransferFieldInfo
jbd:_GraphicRegistry__cctor_m1805310505
bjg:_Bounds_Equals_m3920299735
cXa:__ZN8keywords18KeywordSetToStringERK16ShaderKeywordSetRN4core12basic_stringIcNS3_20StringStorageDefaultIcEEEE
sYd:_GenericTypeParameterBuilder_GetGenericArguments_m2988765390
tBc:_otv_MATH_validate
QHg:__Z77RuntimeInvoker_Void_t1185182177_Int64_t3736567304_ResourceInfoU26_t1611441338PFvvEPK10MethodInfoPvPS4_
mF:__ZN4FMOD3DSP12setParameterEif
bGb:__ZN13MemoryManager16StaticInitializeEv
BEf:_CultureInfo_Equals_m1360976324
lf:___cxa_free_exception
NLh:__ZL69PersistentCall_t3407714124_CustomAttributesCacheGenerator_m_CallStateP21CustomAttributesCache
qJ:__ZN4FMOD22FakeModChannelCallbackEPv
VZc:_BaseInput_get_compositionString_m1887614380
rf:_emscripten_glValidateProgram
QVa:__ZN4Mesh10CreateMeshEv
Kid:_RijndaelManagedTransform__ctor_m1033522223
Yuf:_DateTime_CompareTo_m3889078633
Tyc:_cf2_stack_clear
fEd:_NumberFormatter_set_CurrentCulture_m1358228087
vXb:__ZN7Texture13SetAnisoLevelEi
IR:__ZNSt3__26__treeINS_12__value_typeIN4core12basic_stringIcNS2_20StringStorageDefaultIcEEEEjEENS_19__map_value_compareIS6_S7_NS_4lessIS6_EELb1EEE13stl_allocatorIS7_L18MemLabelIdentifier88ELi16EEE7destroyEPNS_11__tree_nodeIS7_PvEE
M6:__ZN19EndOfFrameCallbacks7EnqueueEP18EndOfFrameCallbackb
Jog:_Input_set_compositionCursorPos_m1909373301
TKc:_raccess_guess_vfat
FJg:__Z78RuntimeInvoker_IntPtr_t_SByte_t1669577662_RuntimeObject_BooleanU26_t4125257963PFvvEPK10MethodInfoPvPS4_
bSc:__Z44Canvas_CUSTOM_GetETC1SupportedCanvasMaterialv
Ryf:_Decimal_decimalSetExponent_m3707787243
o9:__ZN33InstancedMeshIntermediateRenderer13StaticDestroyEPv
uaj:__ZN14dense_hash_mapI10KeyWrapperIP14Il2CppIUnknownEjN6il2cpp5utils11PointerHashIS1_EENS3_14EqualsComparerINSt3__28equal_toIS2_EEEENS9_9allocatorINS9_4pairIKS3_jEEEEE13set_empty_keyERSF_
Jva:__ZN15dense_hashtableINSt3__24pairIK9TextureIDiEES2_14GfxGenericHashIS2_EN14GfxDoubleCacheIS2_iS6_NS0_8equal_toIS2_EEN31GfxDoubleCacheConcurrencyPolicy11LocklessGetE42GfxDoubleCacheDefaultEmptyDeletedGeneratorIS2_EE9SelectKeyES9_13stl_allocatorIS4_L18MemLabelIdentifier24ELi16EEE12resize_deltaEjj
QTa:__Z21DestroyShadowMapCacheP14ShadowMapCache
yx:__ZN7mecanim9animation25CreateControllerWorkspaceEPKNS0_18ControllerConstantERNS_6memory9AllocatorE
h3h:_Array_InternalArray__get_Item_TisLabelFixup_t858502054_m3276643490_gshared
J1i:__ZN15dense_hashtableINSt3__24pairIK10KeyWrapperIPK10Il2CppTypeEjEES6_N6il2cpp8metadata14Il2CppTypeHashEN14dense_hash_mapIS6_jSB_NS6_14EqualsComparerINSA_26Il2CppTypeEqualityComparerEEENS0_9allocatorIS8_EEE9SelectKeyESF_SH_E14squash_deletedEv
D8i:__ZN6il2cpp2vm13LivenessState5ResetEv
bqc:__ZN9JSONWrite8TransferI11KeyframeTplIfEEEvRT_PKc17TransferMetaFlags
wyd:_SortedList_GetImpl_m3689246167
y7h:_ReadOnlyCollection_1_System_Collections_Generic_IListU3CTU3E_set_Item_m3209059215_gshared
Uwa:__ZN24BuiltinShaderParamValuesC2Ev
fmi:_PKCS12_Decode_m163534693
qqc:__ZL41CreateJSONTransferFunctionScriptingTraitsv
hha:__ZN6Shader23VirtualRedirectTransferER14SafeBinaryRead
Mxc:_cff_glyph_load
oAg:_WaitForSecondsRealtime_get_keepWaiting_m846832224
Nji:_ObjectPool_1_get_countActive_m807006650_gshared
dEb:__Z23GetLateBehaviourManagerv
DGg:__Z33RuntimeInvoker_Single_t1397266774PFvvEPK10MethodInfoPvPS4_
rqb:__ZN14SafeBinaryRead21TransferSTLStyleArrayINSt3__26vectorI8Gradient13stl_allocatorIS3_L18MemLabelIdentifier1ELi16EEEEEEvRT_17TransferMetaFlags
VX:__ZN10MemoryPool10DeallocateEPv
vmc:__ZN8GUIState8SetEventERK10InputEvent
fRg:__Z80RuntimeInvoker_Void_t1185182177_ScriptableRenderContext_t274343796_RuntimeObjectPFvvEPK10MethodInfoPvPS4_
kBj:dynCall_vif
lBj:dynCall_vid
GBd:_Convert_ToSByte_m4075629912
mBj:dynCall_vii
q5e:_KeyPairPersistence_FromXml_m746585742
gsf:_Decoder__ctor_m4046021500
LBb:__Z18Transfer_BlittableI18StreamedBinaryReadILb0EELb0EdEvRK29SerializationCommandArgumentsR31RuntimeSerializationCommandInfo
u4c:_ColorBlock_get_fadeDuration_m121071467
ATi:__ZN6il2cpp6icalls8mscorlib6System8MonoType18GetFields_internalEP20Il2CppReflectionTypeiS5_
s2:__ZN5Unity9Component16CheckConsistencyEv
L1d:_MonoMethod_get_ContainsGenericParameters_m3860345224
T4:__ZN19ShaderPropertySheet37CreateTextureAuxPropertyUninitializedEN9ShaderLab16FastPropertyNameES1_PKc
Hwb:__ZL26Transfer_SimpleNativeClassI19StreamedBinaryWriteILb0EE10RectOffsetLb1EEvRK29SerializationCommandArgumentsR31RuntimeSerializationCommandInfo
lVc:__ZN11UnityEngine7Connect17DeviceStatusEventD2Ev
dLj:b128
cZi:__ZN15dense_hashtableINSt3__24pairIK10KeyWrapperIPK10Il2CppTypeEjEES6_N6il2cpp8metadata14Il2CppTypeHashEN14dense_hash_mapIS6_jSB_NS6_14EqualsComparerINSA_26Il2CppTypeEqualityComparerEEENS0_9allocatorIS8_EEE9SelectKeyESF_SH_E3endEv
hsa:__ZN13GfxDeviceGLES17SetGpuProgramNameEP10GpuProgramPKc
HT:__ZNK11UnityEngine15CloudWebService25WebRequestDownloadHandler11GetProgressEv
HWa:__Z43IsVertexFormatCompatibleWithDynamicBatchingRK14VertexDataInfo
WNf:_Array_InternalArray__ICollection_Add_TisMonoResource_t4103430009_m2699164149_gshared
ORi:__ZN6il2cpp2vm13MetadataCache28GetMethodDefinitionFromIndexEi
vij:__ZN6il2cpp2os20FileErrnoToErrorCodeEi
N$a:__ZN14SafeBinaryRead19TransferSTLStyleMapINSt3__23mapI39DeprecatedFastPropertyNameSerialization10ColorRGBAfNS1_4lessIS3_EENS1_9allocatorINS1_4pairIKS3_S4_EEEEEEEEvRT_17TransferMetaFlags
txf:_Decimal_ThrowAtPos_m1170269346
dHh:__ZL98GameObject_t1113636619_CustomAttributesCacheGenerator_GameObject_SendMessage_m3720186693____value1P21CustomAttributesCache
ah:_atexit
HZe:_Selectable_set_image_m3625164794
Uqe:_InternalEnumerator_1_get_Current_m1232221964_gshared
obi:_ReadOnlyCollection_1_System_Collections_Generic_IListU3CTU3E_Insert_m1818924748_gshared
k0i:__ZN6il2cpp2vmL31GetObjectForMissingDefaultValueEj
I3c:_AspectRatioFitter__ctor_m2468506840
iTc:__ZN11UnityEngine15PlatformWrapper30GetVRPlayAreaBoundaryDimensionEv
eni:_X509Certificate_get_Hash_m410033711
Zja:__ZN9ShaderLab14SerializedPassC2ERKS0_
zqc:__Z35Transfer_Blittable_FixedBufferFieldI9JSONWritehEvRK29SerializationCommandArgumentsR31RuntimeSerializationCommandInfo
l:STACKTOP
ZAc:_cff_get_name_index
z4a:__ZN21EnlightenSceneMapping16BuildRemapTablesEv
w9b:__ZN17TransformInternal27UpdateDeepChildCountUpwardsER18TransformHierarchyii
U$c:_ExecuteEvents_Execute_m3613826831
w7c:_Image_set_type_m2038193736
A:tempBigIntD
TWb:__ZNK25CameraStackRenderingState25CalculateCameraTargetTypeEv
l_d:_PropertyBuilder_GetSetMethod_m128670376
y:tempBigIntR
x:tempBigIntS
w:tempBigIntP
rn:FUNCTION_TABLE_viffi
nLd:_MemoryStream_SetLength_m974389318
L1:__ZN6Object18RegisterInstanceIDEPS_
Xtb:__Z18Transfer_BlittableI24GenerateTypeTreeTransferLb1EsEvRK29SerializationCommandArgumentsR31RuntimeSerializationCommandInfo
Gej:__ZN15dense_hashtableINSt3__24pairIK10KeyWrapperIP12Il2CppObjectEN6il2cpp2gc9CachedCCWEEES5_NS7_5utils11PointerHashIS3_EEN14dense_hash_mapIS5_S9_SD_NS5_14EqualsComparerINS0_8equal_toIS4_EEEENS0_9allocatorISA_EEE9SelectKeyESI_SK_E11set_deletedER30dense_hashtable_const_iteratorISA_S5_SD_SM_SI_SK_E
npa:__ZNK9GfxDevice18GetWorldViewMatrixEv
VTg:__Z70RuntimeInvoker_Single_t1397266774_Single_t1397266774_Int32_t2950945753PFvvEPK10MethodInfoPvPS4_
rNb:__Z20LookRotationToMatrixRK8Vector3fS1_P10Matrix3x3f
bCd:_Convert_ToUInt16_m3902921832
USd:_Assembly_GetTypes_m1724781913
brh:__ZL54TypeBuilder_t1073948154_CustomAttributesCacheGeneratorP21CustomAttributesCache
Rkj:__ZN6il2cpp6icalls8mscorlib6System7Convert17Base64ToByteArrayEPDsib
Lub:__ZL12InvokeMethodI24GenerateTypeTreeTransferEvRK29SerializationCommandArgumentsR31RuntimeSerializationCommandInfo
J2f:_List_1_AddEnumerable_m376418521_gshared
aNg:__Z79RuntimeInvoker_Void_t1185182177_Byte_t1134296376_Byte_t1134296376_RuntimeObjectPFvvEPK10MethodInfoPvPS4_
VOi:__ZNSt3__218__insertion_sort_3IRN6il2cpp5utils11collections13ArrayValueMapIPK10Il2CppType17Il2CppInteropData26InteropDataToTypeConverterNS1_8metadata14Il2CppTypeLessENSA_26Il2CppTypeEqualityComparerEE12SortComparerEPS8_EEvT0_SH_T_
rpa:__ZNK9GfxDevice25GetDeviceProjectionMatrixEv
ma:invoke_iidiii
bub:__Z18Transfer_BlittableI24GenerateTypeTreeTransferLb1EtEvRK29SerializationCommandArgumentsR31RuntimeSerializationCommandInfo
HP:__ZN12AudioManager33GetCurrentAmbisonicDefinitionNameE31UnityAudioEffectDefinitionFlags
Lcc:__ZN11UTF16StringC2EPKc10MemLabelId
Ybc:__ZN10systeminfo24GetRuntimePlatformStringEv
kJd:_MonoIO_DeleteFile_m3839141322
KQ:__ZN5physx14PxLightCpuTask15removeReferenceEv
egj:__ZN6il2cpp6icalls8mscorlib6System6String22RedirectToCreateStringEv
Qqh:__ZL99ILGenerator_t1388622344_CustomAttributesCacheGenerator_ILGenerator_Mono_GetCurrentOffset_m993338688P21CustomAttributesCache
vTe:_LayoutRebuilder_ReapplyDrivenProperties_m2581469389
Usg:_PropertyName_op_Implicit_m1633828199
h5:__ZN9ShaderLab6TexEnvC2ERKNS_25SerializedTexturePropertyE
jRe:_InputField_Append_m687033660
jRa:__ZN9Transform32SetLocalScaleWithoutNotificationERKN4math7_float3Ey
Z_a:__ZN19ShaderPropertySheet38CopyTextureWithAuxiliaryPropertiesFromERKN9ShaderLab16FastPropertyNameERKS_
JJc:__ZN20TextRenderingPrivate19NativeTextGeneratorD2Ev
rSi:__ZN6il2cpp2vm19SocketPollingThread14DequeueRequestEv
bij:__ZL10RevealLinkPv
qtf:_DateTime__ctor_m12900168_AdjustorThunk
wce:_ClientSessionCache_FromContext_m343076119
Gi:___cxa_end_catch
plf:_ToBase64Transform_TransformBlock_m2497349397
Y8e:_NameValueCollection_Add_m2418530856
PKe:_ReturnMessage_get_MethodSignature_m399735125
jSc:__Z43Register_UnityEngine_Canvas_set_scaleFactorv
g1e:_SortKeyBuffer_AppendLevel5_m3963841125
Gti:_PositionAssertion_Compile_m2500980346
mud:_ArrayListWrapper_ToArray_m3192696690
UKc:_raccess_guess_linux_cap
bQ:__Z36AudioSource_Get_Custom_PropIsPlayingP12Il2CppObject
XBb:__Z19TransferField_ArrayI18StreamedBinaryReadILb0EE27Converter_UnityEngineObjectEvRK23StaticTransferFieldInfoR31RuntimeSerializationCommandInfoRT0_
Mod:_Attribute_GetCustomAttribute_m4034845276
upc:__ZNK5Unity9rapidjson12GenericValueINS0_4UTF8IcEE13JSONAllocatorE6AcceptINS0_12PrettyWriterI16TempBufferWriterS3_S3_S4_EEEEbRT_
baa:__Z33InitializeBuiltinShaderParamNamesv
Idg:_Type_GetConstructor_m2219014380
r5c:_CanvasUpdateRegistry_SortLayoutList_m471948466
S2:__ZNK16TypeTreeIterator4TypeEv
XJb:__ZN10FileSystem25MountDataFolderFileSystemERKN4core12basic_stringIcNS0_20StringStorageDefaultIcEEEES6_
ljd:_ArgumentOutOfRangeException__ctor_m282481429
ewi:_GUILayoutUtility_Internal_MoveWindow_m3463958180
pj:_glGetUniformLocation
Kqa:__ZN13GfxDeviceGLES32CreateColorRenderSurfacePlatformEP17RenderSurfaceBase19RenderTextureFormat
tG:__ZN12AudioManager24CreateFMODSoundFromMovieEP9AudioClip
NQi:__ZN6il2cpp2vm13MetadataCache24GetGenericInstanceMethodEPK10MethodInfoPK20Il2CppGenericContext
Jmj:_GC_hblk_fl_from_blocks
S0d:_MonoField_GetParentType_m2478933781
_0:__Z24ConvertSeparatorsToUnityPc
C$i:__ZN6il2cpp2gc19AppendOnlyGCHashMapINSt3__24pairIPK9EventInfoP11Il2CppClassEEP21Il2CppReflectionEvent17ReflectionMapHashIS9_ENS2_8equal_toIS9_EEE3AddERKS9_SB_
Ybh:_Collection_1_System_Collections_ICollection_CopyTo_m46221116_gshared
q6i:__ZN6il2cpp2vm6Thread20FreeThreadStaticDataEP12Il2CppThread
eMf:_Array_InternalArray__IndexOf_TisClientCertificateType_t1004704908_m3457772631_gshared
CAg:__Z28RuntimeInvoker_RuntimeObjectPFvvEPK10MethodInfoPvPS4_
hzc:_cf2_glyphpath_finalize
exh:__ZL56SecurityAction_t569814076_CustomAttributesCacheGeneratorP21CustomAttributesCache
Vlf:_X509Certificate_GetPublicKey_m4184729161
Qtd:_ArrayListWrapper_set_Capacity_m2373297383
EQe:_Text_get_cachedTextGenerator_m2506989875
JBj:dynCall_viififi
x$f:_Enumerator_System_Collections_IEnumerator_Reset_m502339360_AdjustorThunk
Moh:__ZL58DictionaryEntry_t3123975638_CustomAttributesCacheGeneratorP21CustomAttributesCache
KGi:_TextGenerator_GetVerticesInternal_m3222977969
c6g:_List_1_RemoveAt_m4279084788_gshared
JEc:_UNITY_FT_Stream_Free
d6i:__ZN15dense_hashtableINSt3__24pairIK10KeyWrapperINS1_IP11Il2CppClassjEEES4_EES6_N6il2cpp8metadata14ArrayClassHashEN14dense_hash_mapIS6_S4_SB_NS6_14EqualsComparerINSA_17ArrayClassCompareEEENS0_9allocatorIS8_EEE9SelectKeyESF_SH_E12maybe_shrinkEv
Ifd:_CryptoConfig_EncodeLongNumber_m4127306320
PSg:__Z87RuntimeInvoker_Void_t1185182177_Single_t1397266774_Single_t1397266774_SByte_t1669577662PFvvEPK10MethodInfoPvPS4_
Bae:_CipherSuite_createEncryptionCipher_m2533565116
QR:__ZN11UnityEngine15CloudWebService14DataDispatcher25OnDataBlockConsumedStaticEPv
a5g:_List_1_CheckIndex_m3044940639_gshared
sAg:_GenericStack__ctor_m933681517
hAb:__Z29Transfer_Blittable_ArrayFieldI18StreamedBinaryReadILb1EE11QuaternionfEvRT_R9ArrayInfoRK23StaticTransferFieldInfo
FOd:_Math_Max_m482125436
YDe:_ActivatedServiceTypeEntry_ToString_m1591455874
lnf:_SecurityElement_ToXml_m3664345083
gQf:_Array_InternalArray__Insert_TisParameterModifier_t1461694466_m3664994573_gshared
H:Math_pow
vqg:_Mesh_get_tangents_m3279676290
Aia:__Z14resize_trimmedINSt3__26vectorIN9ShaderLab20SerializedSubProgram16SamplerParameterENS0_9allocatorIS4_EEEEEvRT_j
vsg:_PlayableHandle_GetPlayableType_Injected_m686992718
TZe:_Shadow_set_effectColor_m3910676693
Byj:__ZNSt3__212basic_stringIcNS_11char_traitsIcEENS_9allocatorIcEEE6insertEjPKcj
sqc:__Z44InitializeTransferFunctionScriptingTraitsForI8JSONReadEvR31TransferFunctionScriptingTraits
LIb:__ZNSt3__27__sort4IRNS_4lessIN22BuiltinResourceManager8ResourceEEEPS3_EEjT0_S7_S7_S7_T_
n8e:_ListDictionary_Add_m3918308031
vej:__ZNK15dense_hashtableINSt3__24pairIK10KeyWrapperIP12Il2CppObjectEN6il2cpp2gc9CachedCCWEEES5_NS7_5utils11PointerHashIS3_EEN14dense_hash_mapIS5_S9_SD_NS5_14EqualsComparerINS0_8equal_toIS4_EEEENS0_9allocatorISA_EEE9SelectKeyESI_SK_E23find_position_with_hashERS6_j
lQe:_Selectable_OnDisable_m3225138518
qGc:_UNITY_tt_face_get_location
Wyi:_AesManaged_CreateEncryptor_m1611897367
qrc:__ZL26Transfer_SimpleNativeClassI9JSONWrite17AnimationCurveTplIfELb0EEvRK29SerializationCommandArgumentsR31RuntimeSerializationCommandInfo
kYb:__ZN10GameObject34AddFirstTransformComponentInternalEP9Transform
Lfc:__Z31Cursor_Get_Custom_PropLockStatev
w8:__ZNSt3__26__treeINS_12__value_typeINS_4pairIPcS3_EENS_3setIS3_15compare_tstringIPKcENS_9allocatorIS3_EEEEEENS_19__map_value_compareIS4_SD_20smaller_tstring_pairIS8_ELb1EEENSA_ISD_EEE7destroyEPNS_11__tree_nodeISD_PvEE
TM:__ZN12AudioManager29GetCurrentAmbisonicDefinitionE31UnityAudioEffectDefinitionFlags
kgc:__Z52Register_UnityEngine_GameObject_GetComponentInParentv
jdb:__ZN15SerializeTraitsINSt3__24pairIPKN5Unity4TypeE7Hash128EEE8TransferI14SafeBinaryReadEEvRS7_RT_
emj:_GC_number_stack_black_listed
Vyf:_Decimal_ToString_m4018746482_AdjustorThunk
xVb:__Z37GenerateCombinedDynamicVisibleListJobP11CullResults
NDe:_Dictionary_2_ToTKey_m2055624458_gshared
m6a:__ZNK13ScreenManager21GetCursorInsideWindowEv
mUd:_CustomAttributeData_GetCustomAttributes_m1033457578
l5d:_SafeHandle_DangerousAddRef_m614714386
xSb:__Z20IntersectAABBFrustumRK4AABBPK5Planej
LYe:_ScrollRect_OnDrag_m688583138
c7b:__ZN13RenderManager15InitializeClassEv
Kqb:__ZN15SerializeTraitsI12PropertyNameE8TransferI14SafeBinaryReadEEvRS0_RT_
t5h:_ReadOnlyCollection_1_System_Collections_IList_IndexOf_m3120991897_gshared
fJe:_Header__ctor_m1921907550
N_e:_Slider_FindSelectableOnUp_m4062600878
$rd:_Convert_ToSByte_m1350241137
npg:_Material_SetIntImpl_m724477324
z7:__GLOBAL__sub_I_runtime_baseclasses_2_cpp
zsc:__ZN9JSONWrite8TransferI11ColorRGBA32EEvRT_PKc17TransferMetaFlags
fvc:__Z22TransferField_NonArrayI8JSONRead27Converter_SimpleNativeClassI8GradientEEvRK23StaticTransferFieldInfoR31RuntimeSerializationCommandInfoRT0_
fFb:__ZN10MonoScript13AwakeFromLoadE17AwakeFromLoadMode
Ahf:_Interval__ctor_m4022869013
Zpd:_Boolean_System_IConvertible_ToUInt16_m3465173538
SPa:__ZN10MemoryFile21CreateFileSystemEntryE10MemLabelId14FilePermissionPvjb
FFa:__ZNK18GfxFramebufferGLES15DiscardContentsER12ObjectHandleI17RenderSurface_TagP17RenderSurfaceBaseE
D7d:_ARC4Managed_KeySetup_m2449315676
IRi:__ZN6il2cpp2vm13MetadataCache27GetEventDefinitionFromIndexEi
tCd:_Convert_ToUInt64_m92315402
Grc:__Z18Transfer_BlittableI9JSONWriteLb1EdEvRK29SerializationCommandArgumentsR31RuntimeSerializationCommandInfo
MFj:_glGetIntegerv__wrapper
rne:_InternalEnumerator_1_System_Collections_IEnumerator_get_Current_m435848551_gshared
q3:__ZN10GameObject28FinalizeAddComponentInternalEPN5Unity9ComponentE
CVh:__ZL57Image_t2670269651_CustomAttributesCacheGenerator_m_SpriteP21CustomAttributesCache
C3a:__ZN9Texture2DD2Ev
kBi:_AudioExtensionManager_GetReadyToPlay_m1557263244
QBd:_Convert_ToSingle_m164367433
i3h:_Array_InternalArray__get_Item_TisILTokenInfo_t2325775114_m3110830457_gshared
xAd:_Convert_ToDecimal_m1284410333
dkg:_Camera_INTERNAL_CALL_RaycastTry2D_m3172975827
Vvf:_DateTime_CheckStyle_m1392838900
Qkd:_SmallXmlParser_ReadUntil_m2715581630
v8e:_NameObjectCollectionBase__ctor_m2090733912
rgf:_Group__cctor_m2230627219
xHf:_Array_InternalArray__ICollection_Contains_TisDouble_t594665363_m1696010878_gshared
Jo:FUNCTION_TABLE_viiiffi
o9d:_RSAManaged_EncryptValue_m4149543654
Pq:__ZN13dynamic_arrayIhLj1EE18resize_initializedEjRKh12ResizePolicy
wda:__ZN27IntermediateRendererManagerD2Ev
Rhb:__ZN17PersistentManager27GetLoadErrorMessageFromPathERKN4core12basic_stringIcNS0_20StringStorageDefaultIcEEEE
Xli:_NetscapeCertTypeExtension_ToString_m1800688476
cm:_glGenRenderbuffers
h8i:__ZN6il2cpp6icalls8mscorlib6System2IO6MonoIO19GetCurrentDirectoryEPi
Svg:_Renderer_get_sortingOrder_m344607889
kTb:__Z21IntersectSegmentPlaneRK8Vector3fS1_RK5PlanePS_
UIg:__Z81RuntimeInvoker_Void_t1185182177_Int64_t3736567304_RuntimeObject_Int32_t2950945753PFvvEPK10MethodInfoPvPS4_
VZh:__ZL50Outline_t2536100125_CustomAttributesCacheGeneratorP21CustomAttributesCache
Ldb:__ZN14PlayerSettings23VirtualRedirectTransferER17RemapPPtrTransfer
Kui:_Uri_get_IsFile_m2450018824
Mba:__ZN14CachingManager7DisposeEv
JM:__ZN12AudioManager31GetCurrentSpatializerDefinitionEv
V7e:_HybridDictionary_Add_m912320053
obb:__ZN12MeshRenderer16UpdateCachedMeshEv
eyi:_KeyBuilder_IV_m3340234014
qqb:__Z19TransferField_ArrayI14SafeBinaryRead27Converter_SimpleNativeClassI8GradientEEvRK23StaticTransferFieldInfoR31RuntimeSerializationCommandInfoRT0_
UTf:_DefaultComparer_Equals_m1163494476_gshared
qIf:_Array_InternalArray__ICollection_Remove_TisDictionaryEntry_t3123975638_m3699186409_gshared
VRd:_Object_Equals_m1397037629
Xy:__ZNK27StateMachineBehaviourPlayer25FireStateMachineBehaviourEiiN7mecanim12statemachine19StateMachineMessageE
Cig:_AsyncOperation_t1445031843_marshal_pinvoke_back
_7:__GLOBAL__sub_I_runtime_utilities_4_cpp
Ntg:_Rect_get_center_m138276653
PXb:__ZN6Camera15SetOrthographicEb
QAc:_UNITY_FT_Stream_GetUShort
ypa:__ZN13GfxDeviceGLES14DisableScissorEv
OMg:__Z240RuntimeInvoker_RuntimeObject_Int16_t2552820387_RuntimeObject_Int32_t2950945753_Int32_t2950945753_Int32_t2950945753_SByte_t1669577662_SByte_t1669577662_SByte_t1669577662_SByte_t1669577662_Int16_t2552820387_SByte_t1669577662_SByte_t1669577662PFvvEPK10MethodInfoPvPS4_
ijg:_Bounds_get_size_m1178783246_AdjustorThunk
nHc:_tt_get_var_blend
$Fg:__Z64RuntimeInvoker_Double_t594665363_RuntimeObject_Int32_t2950945753PFvvEPK10MethodInfoPvPS4_
Pke:_InternalEnumerator_1_System_Collections_IEnumerator_get_Current_m2141782011_AdjustorThunk
xyf:_Decimal_decimalMult_m3812462972
Xee:_RecordProtocol_BeginSendRecord_m615249746
Cc:_glVertexAttrib4f
h2f:_Enumerator_System_Collections_IEnumerator_get_Current_m209407522_AdjustorThunk
amg:_Display_get_systemHeight_m730809466
s3f:_List_1_System_Collections_IList_Insert_m4074493513_gshared
WIc:__ZNSt3__26vectorINS_4pairINS1_IttEEfEENS_9allocatorIS3_EEE8__appendEj
Gui:_Uri_GetOpaqueWiseSchemeDelimiter_m1909471550
Inj:_GC_set_hdr_marks
hWa:__Z17SetupObjectMatrixRK10Matrix4x4fi
SRf:_Dictionary_2_OnDeserialization_m1254782141_gshared
z8:__ZN13RuntimeStaticINSt3__23mapINS0_4pairIPcS3_EEPFbPvR14SafeBinaryReadE20smaller_tstring_pairIPKcENS0_9allocatorINS2_IKS4_S9_EEEEEELb0EE13StaticDestroyES5_
TJd:_FileStream_FlushBufferIfDirty_m4249802951
mue:_DefaultComparer_Compare_m1916473435_gshared
EBd:_Convert_ToSByte_m2653811524
AKc:_open_face
M5b:__ZZL31RegisterOtherRendererPropertiesR22GenericPropertyBindingEN30Wrapper_RendererReceiveShadows13SetFloatValueEPvf
DQc:__Z17RegisterModule_UIv
sA:__ZN8Animator24SortJobsBasedOnHierarchyERK13dynamic_arrayINS_11AnimatorJobELj8EERS0_IS2_Lj4EE
nPd:_MonoCustomAttrs_GetCustomAttributes_m1347331976
Rqg:_Mesh_Clear_m2630385472
tGg:__Z46RuntimeInvoker_RuntimeObject_Int16_t2552820387PFvvEPK10MethodInfoPvPS4_
pqa:__ZN9GfxDevice24CreateRenderDepthSurfaceE9TextureIDiiii16TextureDimension17DepthBufferFormat18SurfaceCreateFlags
QHe:_SynchronizationAttribute_set_Locked_m2760363037
yDd:_Int16_Equals_m82811458
Y8d:_PrivateKeyInfo_Decode_m986145117
Pug:_RectOffset_get_top_m2855347295
lG:__ZN4FMOD5Sound11setUserDataEPv
Dha:__ZN14SafeBinaryRead21TransferSTLStyleArrayINSt3__26vectorIN9ShaderLab19SerializedSubShaderENS1_9allocatorIS4_EEEEEEvRT_17TransferMetaFlags
g0c:_ExecuteEvents_Execute_m533210008
sFg:__Z137RuntimeInvoker_Void_t1185182177_Int32_t2950945753_RuntimeObject_RuntimeObject_RuntimeObject_RuntimeObject_RuntimeObject_SByte_t1669577662PFvvEPK10MethodInfoPvPS4_
TGf:_Guid_op_Equality_m4289903222
Rw:__ZN27AnimationLayerMixerPlayable13SetInputCountEi
nPa:__ZNK25SingleBlockMemoryFileData4SizeEv
cB:__ZN9BlobWrite8TransferIN7mecanim12statemachine18StateMachineMemoryEEEvRT_PKc17TransferMetaFlags
jK:__ZL50UnityAudioEffect_InternalSetFloatParameterCallbackP14FMOD_DSP_STATEif
cej:__ZNK15dense_hashtableINSt3__24pairIK10KeyWrapperIP12Il2CppObjectEN6il2cpp2gc9CachedCCWEEES5_NS7_5utils11PointerHashIS3_EEN14dense_hash_mapIS5_S9_SD_NS5_14EqualsComparerINS0_8equal_toIS4_EEEENS0_9allocatorISA_EEE9SelectKeyESI_SK_E3endEv
tuf:_DateTime_System_IConvertible_ToUInt32_m3781235049
rCg:__Z92RuntimeInvoker_Int32_t2950945753_RuntimeObject_RuntimeObject_SByte_t1669577662_RuntimeObjectPFvvEPK10MethodInfoPvPS4_
BGd:_Int64_System_IConvertible_ToType_m3223988955
rUb:__ZN14qsort_internal5QSortIP16RenderObjectDatai25RenderPrePassObjectSorterEEvT_S4_T0_T1_
Tkf:_SymmetricAlgorithm_Dispose_m1120980942
Dba:__ZL19StaticCleanupPlayerPv
oPd:_MonoCustomAttrs_RetrieveAttributeUsage_m2717094301
GId:_DirectoryInfo_Initialize_m1389772934
E8b:__ZN13PlayableGraph4StopEv
Zhg:_AnimationCurve_Init_m425927913
gL:__ZN12AudioManager37RebindAudioSourcesAndSubMixersToMixerEP10AudioMixer
SJa:__ZN9Behaviour10DeactivateE19DeactivateOperation
aTe:_LayoutGroup_DelayedSetDirty_m2562435574
b2a:__ZN13StreamingInfo8TransferI14SafeBinaryReadEEvRT_
eia:__ZN15dense_hashtableINSt3__24pairIKiN4core17string_with_labelILi1EEEEEi18SInt32HashFunctionN14dense_hash_mapIiS5_S7_NS0_8equal_toIiEE13stl_allocatorIS6_L18MemLabelIdentifier1ELi16EEE9SelectKeyESA_SD_E15insert_noresizeERKS6_
Khj:__ZN6il2cpp2vmL22RaiseOverflowExceptionEv
Pp:__Z23CalculateGlobalRotation23TransformAccessReadOnly
Jma:__ZNK9ShaderLab7Program11IsSupportedEPK6Shader
O$:__ZNK4core8hash_mapIPKcPK4RTTIN11TypeManager23ConstCharPtrHashFunctorENS6_19ConstCharPtrEqualToEE6lookupERKS2_
F_d:_TypeBuilder_GetMethodImpl_m3583143647
ZYh:__ZL54LayoutGroup_t2436138090_CustomAttributesCacheGeneratorP21CustomAttributesCache
Lxj:_strcat
J5b:__Z43InitializeRendererAnimationBindingInterfacev
Uaa:__ZL26DestroyGameObjectRecursiveR10GameObjectR11BatchDelete
Znj:_GC_allochblk_nth
e_c:_BaseInput_get_touchSupported_m2634027966
RYe:_ScrollRect_get_vScrollingNeeded_m1717136831
vyi:_SymmetricTransform_FinalEncrypt_m748885414
X4b:__Z7HaloTexP9Texture2DPhiiii
tCj:dynCall_i
brb:__ZN14SafeBinaryRead21TransferSTLStyleArrayI13dynamic_arrayIxLj8EEEEvRT_17TransferMetaFlags
HBj:dynCall_f
k8e:_ListDictionary_GetEnumerator_m3395631195
Cub:__Z35Transfer_Blittable_FixedBufferFieldI24GenerateTypeTreeTransferjEvRK29SerializationCommandArgumentsR31RuntimeSerializationCommandInfo
r5e:_KeyPairPersistence_Save_m3111435398
$Aj:dynCall_v
QDa:__ZN7ApiGLES14TextureSamplerEjjRK24GfxTextureSamplingParams17TextureColorSpace
nyd:_SortedList_System_Collections_IEnumerable_GetEnumerator_m2738760439
I6i:__ZN6il2cpp2vm6Thread8SetStateEP12Il2CppThreadNS0_11ThreadStateE
pSa:__ZN6Camera23VirtualRedirectTransferER14SafeBinaryRead
fig:_Application_get_isEditor_m857789090
IUc:__ZN11UnityEngine7Connect13ConnectConfig11ConfigValueD2Ev
NEa:__ZNSt3__26__treeINS_12__value_typeIjP14DataBufferGLESEENS_19__map_value_compareIjS4_NS_4lessIjEELb1EEENS_9allocatorIS4_EEE7destroyEPNS_11__tree_nodeIS4_PvEE
u7d:_ASN1Convert_ToInt32_m2228176117
zig:_AssetBundleRequest_t699759206_marshal_pinvoke_back
R8b:__ZN13PlayableGraph15SetPrepareStageE13DirectorStage
xb:invoke_viiiiiiii
$Cd:_Int16_System_IConvertible_ToDateTime_m3080274979_AdjustorThunk
SEa:__ZN18GfxFramebufferGLES24UpdateDefaultFramebufferEP17RenderSurfaceBaseS1_N2gl6HandleILNS2_10ObjectTypeE9EEE
_Lg:__Z74RuntimeInvoker_RuntimeObject_RuntimeObject_Double_t594665363_RuntimeObjectPFvvEPK10MethodInfoPvPS4_
lJi:_Animator_ResetTrigger_m2321267720
leb:__ZN18StreamedBinaryReadILb0EE21TransferSTLStyleArrayI13dynamic_arrayIiLj4EEEEvRT_17TransferMetaFlags
g4a:__ZN16LightmapSettings5ResetEv
OMa:__ZN12FileAccessor4ReadEyPvPy
hCg:__Z67RuntimeInvoker_Void_t1185182177_Int16_t2552820387_Int32_t2950945753PFvvEPK10MethodInfoPvPS4_
Vnc:__Z42Register_UnityEngine_Event_get_commandNamev
zhh:_Collection_1_IsValidItem_m714924194_gshared
vpc:__ZN5Unity9rapidjson12PrettyWriterI16TempBufferWriterNS0_4UTF8IcEES4_13JSONAllocatorE12PrettyPrefixENS0_4TypeE
L7f:_UnicodeEncoding_GetString_m332467280
fec:__ZN8TypeTreeC2E10MemLabelId
G1:__ZNK15FileSystemEntry6ExistsEv
Obb:__ZNK9Transform21GetLocalToWorldMatrixER10Matrix4x4f
jyg:_Transform_INTERNAL_get_rotation_m2413441996
f3c:_TouchInputModule_IsModuleSupported_m384818291
Yvf:_DateTime_ToString_m884486936
k8d:_MD4Managed_HashCore_m3384203071
oH:__ZN13AudioListener23VirtualRedirectTransferER19StreamedBinaryWriteILb0EE
Fbe:_ClientRecordProtocol_createClientHandshakeMessage_m3325677558
gra:__ZN13GfxDeviceGLES11CopyTextureE9TextureIDS0_
Byd:_SortedList_get_Capacity_m919184864
XEj:_emscripten_glViewport__wrapper
ST:__ZN11UnityEngine15CloudWebService23WebRequestUploadHandler13GetUploadDataERj
Jkg:_Color32_ToString_m403383053_AdjustorThunk
Eqf:_String_IndexOfOrdinalUnchecked_m460601827
rHi:_Canvas_get_sortingOrder_m1860900812
GFe:_ConfigHandler_ReadChannel_m781299361
Ttg:_Rect_get_max_m350137314
NNg:__Z99RuntimeInvoker_Void_t1185182177_Int32_t2950945753_Int32_t2950945753_SByte_t1669577662_RuntimeObjectPFvvEPK10MethodInfoPvPS4_
oFc:_tt_size_select
YFe:_InternalRemotingServices_GetCachedSoapAttribute_m1042302982
gS:__ZN11UnityEngine15CloudWebService17SessionEventQueue15RestoreFromFileER12FileAccessorPvy
wVd:_ConstructorBuilder_GetILGenerator_m1421260830
W8i:__ZN6il2cpp2vm9Exception25RaiseOutOfMemoryExceptionEv
Cdb:__ZN14PlayerSettingsD2Ev
NUe:_RectMask2D_RemoveClippable_m773604960
Sjh:__ZL51Attribute_t861562559_CustomAttributesCacheGeneratorP21CustomAttributesCache
COd:_Math_Ceiling_m625148210
Nmj:_GC_reclaim_all
pea:__ZN13PlayableGraph14DestroyOutputsEv
Uah:_Enumerator_System_Collections_IEnumerator_get_Current_m3895111131_gshared
kf:___syscall122
BAd:_Convert_ToDecimal_m2858622624
iSd:_OperatingSystem__ctor_m1545635730
h4g:_List_1_RemoveAll_m2406195485_gshared
gnb:__ZNK17InstancingBatcher25FillInstanceBufferWithJobIN10Instancing11DrawAPIArgsEEEvR8JobFenceR13dynamic_arrayIPvLj4EEjjRKT_
FO:__ZN9AudioClip16EnableLegacyModeEv
qHe:_Context_DoCallBack_m749197451
XHi:_CanvasRenderer_set_materialCount_m4286588063
zfc:__Z52Register_UnityEngine_Camera_INTERNAL_CALL_RaycastTryv
sxj:_mkdir
aAi:_VerticalLayoutGroup_SetLayoutHorizontal_m84550911
P9e:_HttpWebRequest_get_ServicePoint_m3916606901
Aqj:__GLOBAL__sub_I_MemoryMappedFile_cpp
D1f:_Enumerator_MoveNext_m29052175_AdjustorThunk
swg:_SendMouseEvents_SetMouseMoved_m2822596724
Idc:__ZN18ScriptingArguments13CopyFromOtherERKS_
k7e:_PKCS12_ReadSafeBag_m1585166574
xHc:_ps_hints_close
q7b:__Z16CreateRenderLoopR6Camera
pEb:__ZN32SerializationCommandQueueBuilder3AddERK20SerializationCommand
WW:_tlsf_create
N9h:_ReadOnlyCollection_1_System_Collections_IEnumerable_GetEnumerator_m2505713430_gshared
Peb:__ZN14SafeBinaryRead21TransferSTLStyleArrayINSt3__26vectorIN15ResourceManager10DependencyE13stl_allocatorIS4_L18MemLabelIdentifier52ELi16EEEEEEvRT_17TransferMetaFlags
IDb:__ZN13MonoBehaviour23VirtualRedirectTransferER18StreamedBinaryReadILb0EE
Dja:__ZN9ShaderLab20SerializedSubProgramC2ERKS0_
xJd:_FileLoadException__ctor_m3879680456
Q2h:_Array_InternalArray__get_Item_TisKeyValuePair_2_t71524366_m252172060_gshared
tzj:__ZNK10__cxxabiv121__vmi_class_type_info27has_unambiguous_public_baseEPNS_19__dynamic_cast_infoEPvi
WQd:_MulticastDelegate_CombineImpl_m2857239134
Hhg:_Version_op_Inequality_m1696193441
f5d:_Marshal_ReadByte_m1960935664
n5a:__ZN15QualitySettings23VirtualRedirectTransferER19StreamedBinaryWriteILb0EE
zQb:__Z20RenderFullScreenQuadR9GfxDeviceRK6Camera17ShaderChannelMaskRK5RectTIfEf21MonoOrStereoscopicEye
eud:_ArrayListWrapper_CopyTo_m3756520478
P3d:_ResourceInfo_t2872965302_marshal_pinvoke
W5b:__ZN8Material8GetFloatEN9ShaderLab16FastPropertyNameE
dmc:__Z11GetGUIStatev
kg:_glGetActiveUniform
qMf:_Array_InternalArray__IndexOf_TisSlot_t3975888750_m4250446283_gshared
nHd:_IntPtr__ctor_m620280096_AdjustorThunk
rg:_emscripten_glGetObjectParameterivARB
Wsi:_CharacterClass_AddCharacter_m2370152363
b7:__ZN15SerializeTraitsI10ColorRGBAfE8TransferI14SafeBinaryReadEEvRS0_RT_
a5h:_Collection_1_IsValidItem_m2333176545_gshared
Aba:__ZN22BuiltinResourceManager13StaticDestroyEPv
dPi:__ZN15dense_hashtableINSt3__24pairIK10KeyWrapperIN6il2cpp5utils13dynamic_arrayIPK10Il2CppTypeLj4EEEEPFvvEEESA_NS3_8metadata19Il2CppSignatureHashEN14dense_hash_mapISA_SD_SG_NSA_14EqualsComparerINSF_22Il2CppSignatureCompareEEENS0_9allocatorISE_EEE9SelectKeyESK_SM_E4findERSB_
Maa:__ZN10GameObject17GetComponentIndexEPN5Unity9ComponentE
T6a:__ZN14SafeBinaryRead21TransferSTLStyleArrayI13dynamic_arrayI7SubMeshLj4EEEEvRT_17TransferMetaFlags
z_h:_Array_InternalArray__set_Item_TisILTokenInfo_t2325775114_m309595583_gshared
CLc:__ZNK13TextRendering4Font11GetMaterialEv
XJ:__ZN29AudioEffectInternalDefinition9CreateDSPEPN4FMOD6SystemEPvPfP23UnityAudioAmbisonicDataPP25UnityAudioSpatializerData
dHc:_UNITY_tt_face_vary_cvt
m1e:_SimpleCollator_ClearBuffer_m2975394169
qvi:_Event_Internal_GetMousePosition_m1101229675
NZb:__ZN35RegisterRuntimeInitializeAndCleanup22ExecuteInitializationsEv
Flf:_TripleDESCryptoServiceProvider_CreateEncryptor_m450924958
qui:_UriParser_GetParser_m544052729
fRe:_Text_get_font_m2857203289
rLa:__ZN23PreloadManagerOperation14SetFinalTimingEffff
i:DYNAMICTOP_PTR
cZd:_MethodBuilder_fixup_m1765890582
DNe:_ObjectReader_ReadSimpleArray_m428957657
mdb:__ZN13BuildSettings8TransferI18StreamedBinaryReadILb0EEEEvRT_
VOd:_MissingFieldException__ctor_m4282575076
ryf:_Decimal_Equals_m2592017260
nGe:_ConfigHandler_OnEndParsing_m3764034673
qGe:_RemotingConfiguration_RegisterTypes_m2378540395
Rkc:__Z38Renderer_Get_Custom_PropSortingLayerIDP12Il2CppObject
$oe:_InternalEnumerator_1_System_Collections_IEnumerator_get_Current_m767948013_gshared
alg:_DelegatePInvokeWrapper_CSSMeasureFunc_t1554030124
mig:_UnityAction_Invoke_m893829196
aMa:__ZN14AsyncOperationD0Ev
pva:__Z29TextureIdMapGLES_QueryOrAlloc9TextureID
$_i:__ZN15dense_hashtableINSt3__24pairIK10KeyWrapperINS1_IPK12PropertyInfoP11Il2CppClassEEEjEES9_17ReflectionMapHashIS8_EN14dense_hash_mapIS9_jSD_NS9_14EqualsComparerINS0_8equal_toIS8_EEEENS0_9allocatorISB_EEE9SelectKeyESI_SK_E12resize_deltaEjj
okg:_Color_GetHashCode_m1829208463
$cc:__Z25scripting_raise_exception21ScriptingExceptionPtr
NRe:_Text_get_cachedTextGeneratorForLayout_m116487342
JJi:__ZL11decimalLog2P19il2cpp_decimal_repr
Yeb:__ZN15ResourceManager10Dependency8TransferI14SafeBinaryReadEEvRT_
Gfh:_Collection_1_System_Collections_IList_Remove_m3800279569_gshared
pmj:_GC_extend_size_map
g$e:_Text_FontTextureChanged_m495427969
vEd:_NumberFormatter_RoundDecimal_m2957290908
zK:__ZN4FMOD6System9setDriverEi
xY:__ZNK9Transform11GetRotationEv
bGj:_emscripten_glGetIntegerv__wrapper
GK:__ZN12AudioManager15DidReloadDomainEv
cOf:_Array_InternalArray__ICollection_Add_TisSingle_t1397266774_m1873979703_gshared
UHc:_pshinter_get_globals_funcs
Dub:__Z18Transfer_BlittableI24GenerateTypeTreeTransferLb0EyEvRK29SerializationCommandArgumentsR31RuntimeSerializationCommandInfo
s$a:__ZN8Material14CreateMaterialER6ShaderN6Object9HideFlagsEb
Gbg:_TimeSpan_get_Minutes_m4278980001_AdjustorThunk
bEc:_tt_cmap12_char_map_binary
Hvi:_GUI__cctor_m3051457990
i$c:_EventSystem_IsPointerOverGameObject_m1911785875
l5:__Z25GetBuiltinResourceManagerv
Bdj:__ZN6il2cpp2gc8GCHandle15GetTargetHandleEP12Il2CppObjectii
iFd:_Int32_System_IConvertible_ToByte_m3832391412
Jh:_llvm_trap
haa:__ZNSt3__27__sort5IRNS_6__lessIN12_GLOBAL__N_114ParamNameIndexES3_EEPS3_EEjT0_S7_S7_S7_S7_T_
wni:_X509Certificate_VerifySignature_m3988463526
fvg:_RectTransform_get_anchoredPosition_m1813443094
Mmj:_get_index
ICd:_GuidParser_AtEnd_m3409982497
X4e:_KeyBuilder_Key_m876696100
hse:_InternalEnumerator_1_System_Collections_IEnumerator_get_Current_m2164048921_gshared
bYi:__ZN15dense_hashtableINSt3__24pairIK10KeyWrapperINS1_IPK14Il2CppAssemblyP11Il2CppClassEEEjEES9_17ReflectionMapHashIS8_EN14dense_hash_mapIS9_jSD_NS9_14EqualsComparerINS0_8equal_toIS8_EEEENS0_9allocatorISB_EEE9SelectKeyESI_SK_EC2ERKSN_j
DSi:__ZN6il2cpp2vm21ThreadPoolCompartment12DetachThreadEP12Il2CppThread
zed:_SByte_System_IConvertible_ToInt16_m885121451_AdjustorThunk
sxf:_Decimal_stripStyles_m1823381019
Fqa:__ZN13GfxDeviceGLES30SetBackBufferColorDepthSurfaceEP17RenderSurfaceBaseS1_
Joc:__Z52Register_UnityEngine_GUIUtility_get_systemCopyBufferv
x2h:_LayoutGroup_SetProperty_TisBoolean_t97287965_m3903959758_gshared
b9b:__ZN16StreamedResource8TransferI18StreamedBinaryReadILb0EEEEvRT_
Fhc:__Z49Register_UnityEngine_Input_get_imeCompositionModev
Mwg:_Sprite_INTERNAL_get_rect_m1600380876
dia:__ZN15dense_hashtableINSt3__24pairIKiN4core17string_with_labelILi1EEEEEi18SInt32HashFunctionN14dense_hash_mapIiS5_S7_NS0_8equal_toIiEE13stl_allocatorIS6_L18MemLabelIdentifier1ELi16EEE9SelectKeyESA_SD_E12resize_deltaEjj
MWb:__ZNK20OcclusionCullingData22GetStaticRendererCountEv
pwc:__GLOBAL__sub_I_runtime_particlesystem_modules_5_cpp
KJj:_emscripten_glDisableVertexAttribArray__wrapper
YRd:_Object_InternalGetHashCode_m4213713973
$Pd:_MonoType_GetAttributeFlagsImpl_m167182975
J9d:_EncryptedData_get_EncryptedContent_m3205649670
qbb:__ZN12MeshRenderer18CalculateLocalAABBER4AABBRKS_RK4Mesh
PV:__ZN21UnityDefaultAllocatorI17LowLevelAllocatorE8AllocateEji
nx:__ZN7mecanim5human14HumanPoseClearERNS0_9HumanPoseERKNS_6bitsetILj83EEE
pOc:__ZL28InitializeUIScriptingClassesv
JQg:__Z54RuntimeInvoker_Vector2_t2156229523_Vector3_t3722313464PFvvEPK10MethodInfoPvPS4_
wHb:__ZN10UnityScene10ClearRootsEv
w9h:_ReadOnlyCollection_1_System_Collections_IList_set_Item_m2162444692_gshared
flb:__ZN12HandlerChain10AtomicMoveER13FileEntryDataS1_
VGa:__ZN9GfxDevice17HasGPUFencePassedEPv
Vda:__ZZN15DirectorManager15InitializeClassEvEN48PreLateUpdateDirectorDeferredEvaluateRegistrator7ForwardEv
oxc:__ZN20SpeedTreeWindManager6UpdateEf
YGg:__Z68RuntimeInvoker_Int64_t3736567304_IntPtr_t_MonoIOErrorU26_t1548853198PFvvEPK10MethodInfoPvPS4_
RC:__ZN7mecanim9animation20CreateAvatarConstantEPNS_8skeleton8SkeletonEPNS1_13SkeletonPoseTIN4math4trsXEEES8_PNS_5human5HumanES3_iRKS6_RNS_6memory9AllocatorE
Nab:__ZN14CompressedMesh8TransferI19StreamedBinaryWriteILb0EEEEvRT_
VPf:_Array_InternalArray__Insert_TisDouble_t594665363_m675699942_gshared
t6g:_List_1_System_Collections_IList_Add_m3014885234_gshared
Cgi:_UnityAction_1_Invoke_m3535252839_gshared
Kkj:__ZNK6il2cpp5utils13VmStringUtils21CaseSensitiveComparerclERKNSt3__212basic_stringIcNS3_11char_traitsIcEENS3_9allocatorIcEEEEPKc
CZe:_Selectable_set_isPointerInside_m701571657
vVa:__ZN24GenerateTypeTreeTransfer8TransferI21PlatformShaderDefinesEEvRT_PKc17TransferMetaFlags
Geb:__ZNK15ResourceManager22GetTypeVirtualInternalEv
rbj:__ZN6il2cpp2vmL36AddNestedTypesToNametoClassHashTableEPK11Il2CppImagePK20Il2CppTypeDefinition
d8g:_List_1_set_Capacity_m2707586410_gshared
lrg:_PlayerConnection_MessageCallbackInternal_m1914517467
Mig:_AttributeHelperEngine__cctor_m1900959362
DIc:__ZN13TextRendering4Font23VirtualRedirectTransferER24GenerateTypeTreeTransfer
KVh:__ZL102Image_t2670269651_CustomAttributesCacheGenerator_Image_t2670269651____eventAlphaThreshold_PropertyInfoP21CustomAttributesCache
Sbf:_X509SubjectKeyIdentifierExtension_ToString_m12089275
mTg:__Z106RuntimeInvoker_RuntimeObject_RuntimeObject_Int32_t2950945753_Int16_t2552820387_RuntimeObject_RuntimeObjectPFvvEPK10MethodInfoPvPS4_
ahg:_UnhandledExceptionEventArgs__ctor_m224348470
g0b:__ZL16MouseMoveHandleriPK20EmscriptenMouseEventPv
gMf:_Array_InternalArray__IndexOf_TisByte_t1134296376_m929524687_gshared
kP:__ZN11AudioSource15InitializeClassEv
m0c:_ExecuteEvents_get_dragHandler_m3849431675
aQb:__ZN11HaloManager17RenderGeometryJobEP25DynamicVBOGeometryJobDataj
Brg:_Object_DestroyImmediate_m2288369078
f4e:_BitConverterLE_UShortFromBytes_m1253080092
fE:__ZNSt3__227__insertion_sort_incompleteIRPFbN7mecanim9animation13MuscleIndexIdES3_EPS3_EEbT0_S8_T_
WJj:_emscripten_glBlendEquation__wrapper
w5i:__ZN15dense_hashtableINSt3__24pairIK10KeyWrapperIP11Il2CppClassES4_EES5_N6il2cpp8metadata16SZArrayClassHashEN14dense_hash_mapIS5_S4_SA_NS5_14EqualsComparerINS9_19SZArrayClassCompareEEENS0_9allocatorIS7_EEE9SelectKeyESE_SG_E13set_empty_keyERKS7_
myj:__ZNSt3__212basic_stringIcNS_11char_traitsIcEENS_9allocatorIcEEE6__initEPKcj
Qj:_emscripten_set_fullscreenchange_callback
cci:_ReadOnlyCollection_1_System_Collections_IList_Insert_m4085855595_gshared
pqi:_PatternCompiler_NewLink_m3699449496
$U:__ZN11UnityEngine15CloudWebService14DataDispatcher22ResetNetworkRetryIndexEv
Vj:_emscripten_glDrawArrays
opg:_Material_HasProperty_m2704238996
tKb:__ZZ23InitPlayerLoopCallbacksvEN43EarlyUpdateExecuteMainThreadJobsRegistrator7ForwardEv
CU:__ZN11UnityEngine15CloudWebService19SessionEventManagerC2Ev
csd:_Char_System_IConvertible_ToSingle_m2690985411_AdjustorThunk
adi:_Comparison_1_Invoke_m668117148_gshared
b8e:_DictionaryNodeEnumerator_FailFast_m2494733641
I6:__ZN14GfxDoubleCacheIyP17VertexDeclaration14GfxGenericHashIyENSt3__28equal_toIyEEN31GfxDoubleCacheConcurrencyPolicy11LocklessGetE42GfxDoubleCacheDefaultEmptyDeletedGeneratorIyEE3GetI15VertDeclCreatorEERKS1_RKyT_
lZc:__ZN13RuntimeStaticI14dynamic_bitsetLb0EE16StaticInitializeEPv
Cga:__ZNSt3__222__merge_move_constructIRNS_4lessIN4core12basic_stringIcNS2_20StringStorageDefaultIcEEEEEENS_11__wrap_iterIPS6_EESB_EEvT0_SC_T1_SD_PNS_15iterator_traitsISC_E10value_typeET_
ofc:__Z41Register_UnityEngine_Camera_get_eventMaskv
AP:__ZL19CleanupModule_Audiov
dif:_IntervalCollection_CopyTo_m2976848759
e5c:_CanvasUpdateRegistry_ObjectValidForUpdate_m2723813849
gDa:__ZN18GlslGpuProgramGLES25LoadFromBinaryShaderCacheERjRKN4core12basic_stringIcNS1_20StringStorageDefaultIcEEEER17ShaderChannelMaskPKc
i4g:_List_1_RemoveAt_m1433290785_gshared
Hrb:__Z29Transfer_Blittable_ArrayFieldI14SafeBinaryReadiEvRT_R9ArrayInfoRK23StaticTransferFieldInfo
tTi:__ZN6il2cpp6icalls8mscorlib6System8MonoType8GetFieldEP20Il2CppReflectionTypeP12Il2CppStringi
yPi:__ZN15dense_hashtableINSt3__24pairIK10KeyWrapperIN6il2cpp5utils13dynamic_arrayIPK10Il2CppTypeLj4EEEEPFvvEEESA_NS3_8metadata19Il2CppSignatureHashEN14dense_hash_mapISA_SD_SG_NSA_14EqualsComparerINSF_22Il2CppSignatureCompareEEENS0_9allocatorISE_EEE9SelectKeyESK_SM_E5clearEv
akf:_SHA256Managed_ProcessBlock_m2297835517
qGj:_emscripten_glVertexAttrib3fv__wrapper
clg:_CSSMeasureFunc_Invoke_m3910201085
Azd:_Convert_ToBoolean_m4098720762
Ybi:_ReadOnlyCollection_1_System_Collections_ICollection_CopyTo_m511916545_gshared
aJf:_Array_InternalArray__ICollection_Remove_TisOrderBlock_t1585977831_m1449044465_gshared
auj:_DisplayBuffer_OnCommand_m444302511
qTd:_AssemblyName__ctor_m1753467291
j_e:_Slider_set_minValue_m3431883418
lcc:__ZN8Material10GetTextureEN9ShaderLab16FastPropertyNameE
Zze:_Enumerator_System_Collections_IEnumerator_get_Current_m1657817602_gshared
Aab:__ZN18StreamedBinaryReadILb0EE21TransferSTLStyleArrayI13dynamic_arrayI10Matrix4x4fLj16EEEEvRT_17TransferMetaFlags
x3b:__ZNK28MonoBehaviourPropertyBinding13GetFloatValueERKN11UnityEngine9Animation10BoundCurveE
Coj:_GC_generic_malloc
jbf:_WebHeaderCollection_get_Keys_m910440889
GGa:__Z19GetVertexFormatSize12VertexFormat
up:__ZN14SafeBinaryRead21TransferSTLStyleArrayI13dynamic_arrayIiLj4EEEEvRT_17TransferMetaFlags
hAg:_Vector4__cctor_m2519631228
FZb:__ZNK18ScreenManagerWebGL13GetShowCursorEv
Wtd:_ArrayListWrapper_Clear_m2625302714
mKj:_emscripten_glIsTexture__wrapper
Zae:_CipherSuiteCollection_System_Collections_IEnumerable_GetEnumerator_m3240848888
Jzj:_llvm_bswap_i32
vCd:_Convert_ToUInt64_m1627266664
hqa:__ZN9GfxDevice25ReleaseAsyncCommandHeaderEPN21GfxDeviceAsyncCommand3ArgE
ioi:_X509Crl_Parse_m3164013387
Pub:__ZL22Transfer_ManagedObjectI24GenerateTypeTreeTransferLb0EEvRK29SerializationCommandArgumentsR31RuntimeSerializationCommandInfo
JDb:__ZN13MonoBehaviour23VirtualRedirectTransferER17RemapPPtrTransfer
tGa:__ZN21UniformBufferTFMethod20IsBoneCountSupportedEi
Bkg:_Color_get_black_m719512684
Ebd:_HorizontalLayoutGroup_CalculateLayoutInputHorizontal_m750541069
lij:__ZN6il2cpp6icalls8mscorlib6System11Environment11get_NewLineEv
zef:_X509CertificateCollection__ctor_m1395805580
q3d:_ResourceReader_CreateResourceInfo_m1818330740
qce:_ClientSessionInfo_Dispose_m3253728296
o$a:__ZN6Shader27MarkShaderStateNotSupportedEPKS_
yrg:_Object_Internal_CloneSingle_m1021157572
WFa:__ZN25TransformFeedbackSkinning8SkinMeshERK18VertexStreamSourceP9GfxBufferP17GPUSkinPoseBufferS4_ii17ShaderChannelMaskb
Saj:__ZN15dense_hashtableINSt3__24pairIK10KeyWrapperIP14Il2CppIUnknownEjEES5_N6il2cpp5utils11PointerHashIS3_EEN14dense_hash_mapIS5_jSB_NS5_14EqualsComparerINS0_8equal_toIS4_EEEENS0_9allocatorIS7_EEE9SelectKeyESG_SI_E12resize_deltaEjj
g3d:_ResolveEventArgs__ctor_m1455935166
hdg:_Type_Equals_m1673304139
lNd:_SynchronizedReader_Read_m1388613247
gxb:__Z22TransferField_NonArrayI19StreamedBinaryWriteILb0EE27Converter_SimpleNativeClassI8GUIStyleEEvRK23StaticTransferFieldInfoR31RuntimeSerializationCommandInfoRT0_
bXe:_Scrollbar_OnPointerDown_m3213715319
Nvc:__ZN8JSONRead8TransferIN4math12int3_storageEEEvRT_PKc17TransferMetaFlagsb
oLb:__ZN27IntermediateRendererManager29ClearAllIntermediateRenderersEv
r2c:_StandaloneInputModule__ctor_m2419721820
gve:_Comparer_1_System_Collections_IComparer_Compare_m2018996185_gshared
Qp:__Z17CalculateGlobalSM23TransformAccessReadOnlyRKN4math7_float4E
tR:__ZN23CloudWebServicesManager23VirtualRedirectTransferER18StreamedBinaryReadILb0EE
Xvd:_CollectionBase_System_Collections_IList_Contains_m2994901969
Vl:_emscripten_glLoadIdentity
$Zb:__ZNSt3__26vectorINS_4pairIN4core12basic_stringIcNS2_20StringStorageDefaultIcEEEEPK17MessageIdentifierEENS_9allocatorISA_EEE26__swap_out_circular_bufferERNS_14__split_bufferISA_RSC_EEPSA_
ZAd:_Convert_ToInt16_m2896657713
Prg:_Vector3_get_zero_m1409827619
gVb:__Z29CullShadowCastersWithoutUmbraR9IndexListRK17CullingParametersPK4AABBjj
ioa:__ZN6Shader16GetDefaultOrNullEv
qp:__ZN4AABB8TransferI14SafeBinaryReadEEvRT_
PHf:_Array_InternalArray__ICollection_Contains_TisX509ChainStatus_t133602714_m795171973_gshared
T8i:__ZN6il2cpp2vm8Liveness8FromRootEP12Il2CppObjectPv
zbb:__ZN12MeshRenderer23VirtualRedirectTransferER19StreamedBinaryWriteILb0EE
U4a:__ZN18StreamedBinaryReadILb0EE21TransferSTLStyleArrayI13dynamic_arrayI12LightmapDataLj4EEEEvRT_17TransferMetaFlags
LNa:__ZNK17ArchiveFileSystem9EnumerateEPKcP19dynamic_block_arrayI13FileEntryInfoLj32EEbPPv19FileEnumerationFlag
X$b:__Z11MD5ToStringPh
qhc:__Z38Input_Get_Custom_PropCompositionStringv
s$e:_Text_get_alignment_m1496827807
S6e:_ContentInfo_get_ASN1_m1776225219
CS:__ZN9JSONWrite8TransferIN4core12basic_stringIcNS1_20StringStorageDefaultIcEEEEEEvRT_PKc17TransferMetaFlags
SBd:_Convert_ToSingle_m2533452644
vyj:__ZNSt3__212basic_stringIcNS_11char_traitsIcEENS_9allocatorIcEEE6resizeEjc
Fdb:__ZN14PlayerSettings16CheckConsistencyEv
jO:__ZN11AudioModule30GetOrCreateDSPFromCustomFilterEP17AudioCustomFilter
GTa:__ZN19AtomicPageAllocatorD2Ev
w$c:_EventTrigger_OnPointerEnter_m986348926
daj:__ZN6il2cpp6icalls8mscorlib6System13GlobalizationL20culture_lcid_locatorEPKvS5_
Ilf:_X509Certificate__ctor_m1413707489
S1a:__ZNK12CubemapArray16ExtractImageImplEP14ImageReferenceNS0_8BlitModeEbi
Whc:__Z63Register_UnityEngine_MonoBehaviour_StartCoroutine_Auto_Internalv
EDj:_glTexStorage3D__wrapper
Rdb:__ZN10VRSettings8TransferI14SafeBinaryReadEEvRT_
Hdg:_Type_IsMarshalByRefImpl_m914778231
Owd:_Hashtable__ctor_m2302711321
ja:invoke_viifiiii
trd:_Byte_TryParse_m1467448483
Muj:_DelegatePInvokeWrapper_OnCommandSentHandler_t613111342
xYc:__ZN20UnityWebRequestProtoI24UnityWebRequestTransport16AtomicRefCounter14RedirectHelper14ResponseHelper15DownloadHandler13UploadHandler12HeaderHelper14AsyncOperationE8FinalizeEv
rxg:_Texture2D_get_whiteTexture_m2176011403
L3:__ZN22PerThreadPageAllocator14AcquireNewPageEj
HK:__ZN24AudioScriptBufferManager15DidReloadDomainEv
Gdi:_Func_2_Invoke_m3516477887_gshared
kLh:__ZL65SelectionBaseAttribute_t3493465804_CustomAttributesCacheGeneratorP21CustomAttributesCache
frf:_String_ToString_m3872792296
Vtb:__Z18Transfer_BlittableI24GenerateTypeTreeTransferLb1E9BoundsIntEvRK29SerializationCommandArgumentsR31RuntimeSerializationCommandInfo
qJd:_FileStream_GetSecureFileName_m449783930
nRb:__ZN6Camera13ClearNoSkyboxEb
cOd:_UnexceptionalStreamWriter_Flush_m82278468
Soe:_InternalEnumerator_1_get_Current_m3911557813_gshared
NOi:__ZNK15dense_hashtableI10KeyWrapperIPK17Il2CppGenericInstES4_N6il2cpp8metadata21Il2CppGenericInstHashEN14dense_hash_setIS4_S7_NS4_14EqualsComparerINS6_24Il2CppGenericInstCompareEEENSt3__29allocatorIS4_EEE8IdentityESB_SE_E12test_deletedEj
YRa:__ZN19StreamedBinaryWriteILb0EE21TransferSTLStyleArrayI13dynamic_arrayI17SortingLayerEntryLj4EEEEvRT_17TransferMetaFlags
f_c:_BaseInput_get_touchCount_m1263753282
t7d:_ASN1Convert_FromOid_m3844102704
BKe:_RemotingSurrogate_SetObjectData_m2713731796
Lsf:_DecoderReplacementFallbackBuffer_Reset_m3943028589
uEa:__ZN18GfxFramebufferGLES10InvalidateEv
YZf:_Enumerator_System_Collections_IEnumerator_get_Current_m282279808_AdjustorThunk
mSe:_LayoutRebuilder_MarkLayoutRootForRebuild_m1241498911
h9f:_CompressedStack_CreateCopy_m2591279216
ljf:_RSAPKCS1KeyExchangeFormatter_CreateKeyExchange_m1611814432
u9:__ZN10MemoryPoolD2Ev
bnc:__ZNSt3__26__treeINS_12__value_typeIN4core12basic_stringIcNS2_20StringStorageDefaultIcEEEEN5IMGUI12NamedControlEEENS_19__map_value_compareIS6_S9_NS_4lessIS6_EELb1EEENS_9allocatorIS9_EEE7destroyEPNS_11__tree_nodeIS9_PvEE
Mbf:_AsnEncodedData_KeyUsageExtension_m1792651780
Hfj:__ZN6il2cpp2os5posix15PosixWaitObjectD2Ev
XMb:__ZNK25CameraStackRenderingState28GetDstTextureForImageFiltersEv
exj:___mmap
y8b:__ZN9Scripting26RaiseArgumentNullExceptionEPKc
PKj:b120
gX:__ZL18InternalLogConsolePKcz
_vj:_lseek
wme:_InternalEnumerator_1_get_Current_m685192625_gshared
YNd:_UnexceptionalStreamReader_Read_m16956299
z3d:_ResourceReader_ReadValueVer1_m183253382
F$:__Z37scripting_method_get_nth_argumenttype18ScriptingMethodPtri
MM:__ZN11AudioSource16UpdatePauseStateEv
Wca:__ZL52StaticUnregisterSceneLoadedCallback_LightmapSettingsPv
Vjg:_Camera_get_main_m3643453163
Bsj:__ZN6il2cpp5utils25NativeDelegateMethodCache17AddNativeDelegateEPFvvEPK10MethodInfo
NTe:_LayoutRebuilder_U3CRebuildU3Em__5_m1288787547
yQb:__ZN27DeviceViewProjMatricesStateD2Ev
zwg:_SendMouseEvents__cctor_m2378365934
I6h:_ReadOnlyCollection_1_System_Collections_IList_set_Item_m3582274843_gshared
Dpg:_Mathf_Pow_m856735666
Ffa:__ZL39CreateRegisteredMessageIdentifiersArrayPv
Gtb:__Z18Transfer_BlittableI24GenerateTypeTreeTransferLb0E8Vector3fEvRK29SerializationCommandArgumentsR31RuntimeSerializationCommandInfo
X0e:_SimpleCollator_FilterExtender_m72900315
zIc:__ZNK13TextRendering4Font22GetTypeVirtualInternalEv
F6e:_SymmetricTransform_CheckInput_m1829858759
pfb:__ZN19StreamedBinaryWriteILb0EE21TransferSTLStyleArrayINSt3__26vectorIN15ResourceManager10DependencyE13stl_allocatorIS5_L18MemLabelIdentifier52ELi16EEEEEEvRT_17TransferMetaFlags
DYe:_ScrollRect_EnsureLayoutHasRebuilt_m3415112783
OTd:_Binder_FindMostDerivedMatch_m239579024
Nzd:_Convert_ToByte_m3824130483
Xxi:_GUIUtility_EndContainerGUIFromException_m530164245
qya:__ZN6prcoreL10inner_flipILj2EEEvPhS1_j
t8a:__ZNK14Texture2DArray16ExtractImageImplEP14ImageReferenceNS0_8BlitModeEbi
m7f:_StringBuilder_Append_m2383614642
asc:__ZN9JSONWrite8TransferIbEEvRT_PKc17TransferMetaFlags
RKa:__ZN12TLSAllocatorI14StackAllocatorED0Ev
Dcb:__ZN11TimeManager16CheckConsistencyEv
VNb:__ZN21GfxDeviceAsyncCommand10ArgScratch15ThreadedCleanupEv
k8b:__Z14DoubleToStringd
Prf:_StringComparer_GetHashCode_m2080455020
ftb:__ZN12NativeBufferI27Converter_UnityEngineObjectE15SetupForWritingER9ArrayInfo
o1g:_List_1_CheckCollection_m2118769249_gshared
pe:_glTexImage3D
t7c:_DefaultControls_SetDefaultColorTransitionValues_m2033775311
x0:__ZN14SerializedFile27PatchRemapDeprecatedClassesEv
NQf:_Array_InternalArray__set_Item_TisChar_t3634460470_m741842250_gshared
Qki:_TlsServerSettings_set_RsaParameters_m853026166
J$a:__ZNSt3__26vectorINS_4pairI11ShaderTagIDS2_EENS_9allocatorIS3_EEE6insertENS_11__wrap_iterIPKS3_EERS8_
Suf:_DateTime_AddMilliseconds_m3713972790_AdjustorThunk
pid:_RC2_Create_m2052783340
pGf:_Guid__ctor_m3421080095_AdjustorThunk
FAd:_Convert_ToDouble_m217737046
ndc:__ZL34GetComponentsImplementationRecurseILb1ELi0ELi1EEbR10GameObjectbRK17CompareParametersRK39GetComponentsImplementation_ReturnValue
_Af:_Double_Equals_m1674752021
jQe:_InputField_OnDisable_m1824300767
fPc:__ZN2UI25AddCanvasRendererToCanvasER8JobFencePNS_12CanvasHandleERNS_10CanvasDataEi
Iyd:_SortedList_Clone_m928094797
neb:__ZN10VRSettings8TransferI18StreamedBinaryReadILb0EEEEvRT_
ow:__ZN22AnimationMixerPlayable12MixerProcessEP35AnimationPlayableEvaluationConstantP32AnimationPlayableEvaluationInputP33AnimationPlayableEvaluationOutputM17AnimationPlayableFvS1_S3_S5_EPFvS1_S3_S5_ESA_PFvS5_S1_S3_S5_PN7mecanim16ValueArrayWeightEfEPFvS1_S3_S5_SD_fE
Zve:_Enumerator_get_CurrentKey_m2230405065_gshared
Ude:_TlsClientFinished_ProcessAsSsl3_m3094597606
Quc:__ZN8JSONRead21TransferSTLStyleArrayI13dynamic_arrayIdLj8EEEEvRT_17TransferMetaFlags
Wjg:_Camera_get_allCamerasCount_m528453758
_Si:__ZN6il2cpp2vm10ThreadPool5QueueEP14Il2CppDelegatePPvS3_P12Il2CppObject
mxb:__Z19TransferField_ArrayI19StreamedBinaryWriteILb0EE27Converter_SimpleNativeClassI8GradientEEvRK23StaticTransferFieldInfoR31RuntimeSerializationCommandInfoRT0_
gaf:_IPv6Address__ctor_m2700673633
_tc:__Z18Transfer_BlittableI8JSONReadLb0E12PropertyNameEvRK29SerializationCommandArgumentsR31RuntimeSerializationCommandInfo
vHj:_glGetUniformBlockIndex__wrapper
Bnd:_Array_CreateInstance_m2696293787
z7f:_UnicodeEncoding__ctor_m1074918879
q7a:__ZN7SubMesh8TransferI18StreamedBinaryReadILb0EEEEvRT_
PZd:_OpCode_Equals_m1376200488_AdjustorThunk
g6c:_ColorBlock_op_Inequality_m2718216889
cf:_emscripten_glIsEnabled
ozb:__ZN18StreamedBinaryReadILb1EE21TransferSTLStyleArrayI13dynamic_arrayIdLj8EEEEvRT_17TransferMetaFlags
mgc:__Z45Register_UnityEngine_GameObject_get_transformv
_Vd:_DerivedType_GetConstructors_m483065502
WZ:__Z29scripting_class_instance_size17ScriptingClassPtr
vvc:__Z29Transfer_Blittable_ArrayFieldI8JSONRead5RectTIiEEvRT_R9ArrayInfoRK23StaticTransferFieldInfo
p$g:__Z68RuntimeInvoker_Boolean_t97287965_SByte_t1669577662_SByte_t1669577662PFvvEPK10MethodInfoPvPS4_
JRg:__Z165RuntimeInvoker_Void_t1185182177_RuntimeObject_Int32_t2950945753_Int32_t2950945753_RuntimeObject_Int32_t2950945753_Single_t1397266774_Single_t1397266774_RuntimeObjectPFvvEPK10MethodInfoPvPS4_
uc:invoke_iiiiiiiii
cV:__ZN11UnityEngine15CloudWebService19SessionEventManager26ProcessEventQueueJobStaticEPv
zpg:_Mathf_Min_m1073399594
fxg:_StackTraceUtility_ExtractStringFromExceptionInternal_m2686726792
rCc:_otv_Coverage_get_last
wV:__ZN11UnityEngine15CloudWebService19SessionEventManager37OnTimerExpiredPerformArchiveJobStaticEPv
Uqc:__Z18Transfer_BlittableI9JSONWriteLb1E9BoundsIntEvRK29SerializationCommandArgumentsR31RuntimeSerializationCommandInfo
G0e:_MSCompatUnicodeTable_FillCJKCore_m2347268515
nti:_Group_GetWidth_m3299755715
kzf:_Decimal_op_Implicit_m1920400487
nYa:__ZN10builtintex15GetWhiteTextureEv
rKe:_MonoMethodMessage_get_TypeName_m3758247133
zxd:_Enumerator_get_Entry_m2184304359
gu:__ZN7mecanim9animation16CreateClipMemoryEPKNS0_4ClipEiRNS_6memory9AllocatorE
Etj:__ZN6il2cpp6icalls8mscorlib6System10Reflection4Emit11DerivedType21create_unmanaged_typeEP20Il2CppReflectionType
bcd:_Image_set_fillCenter_m3776786491
nfa:__Z29GetOcclusionPortalManagerListv
$ic:__Z39Register_UnityEngine_Sprite_get_texturev
yJi:__ZL10rescale128PyS_Piiiii
QG:__ZN9AudioClip7WWWSeekEPvjS0_
Pnh:__ZL63FixedBufferAttribute_t3759792648_CustomAttributesCacheGeneratorP21CustomAttributesCache
L8:__ZL32StaticInitializeIUnityInterfacesPv
yNb:__Z13CameraProjectRK8Vector3fRK10Matrix4x4fS4_RK5RectTIiERS_b
igb:__ZN30RuntimeInitializeOnLoadManager15ClassMethodInfo8TransferI19StreamedBinaryWriteILb0EEEEvRT_
cca:__Z22CreateMutexLockedStackv
MIb:__ZNSt3__27__sort5IRNS_4lessIN22BuiltinResourceManager8ResourceEEEPS3_EEjT0_S7_S7_S7_S7_T_
nEd:_NumberFormatter_FormatNumber_m1763569482
ZUh:__ZL57FontData_t746620069_CustomAttributesCacheGenerator_m_FontP21CustomAttributesCache
vma:__ZN9ShaderLab11ShaderStateD2Ev
cGc:_Ins_DELTAP
VEb:__Z23TransferScriptingObjectI24GenerateTypeTreeTransferEvRT_18ScriptingObjectPtr17ScriptingClassPtrPK15MonoScriptCache
tqi:_PatternLinkStack_GetOffset_m3697714525
bmc:__ZN12GUIClipState5ApplyER10InputEvent
Uwb:__ZL17Transfer_GUIStyleI19StreamedBinaryWriteILb0EELb0EEvRK29SerializationCommandArgumentsR31RuntimeSerializationCommandInfo
rRb:__ZN10TextureRef4InitEP7Textureb
JJd:_MonoIO_GetFileType_m101289143
Sxa:__Z19ScheduleJobInternalR8JobFencePFvPvES1_11JobPriority
U8e:_KeysCollection_get_Count_m3943311735
qle:_InternalEnumerator_1_get_Current_m2832154098_gshared
vhg:_Version__ctor_m1550720073
$Ri:__ZNSt3__211__tree_nextIPNS_16__tree_node_baseIPvEEEET_S5_
Mcj:__ZN15dense_hashtableI10KeyWrapperIP18Il2CppGenericClassES3_N6il2cpp8metadata22Il2CppGenericClassHashEN14dense_hash_setIS3_S6_NS3_14EqualsComparerINS5_25Il2CppGenericClassCompareEEENSt3__29allocatorIS3_EEE8IdentityESA_SD_E14squash_deletedEv
xfj:__ZN6il2cpp2vm11MethodStack17GetStackFramesRawEv
RAa:__ZN6prcoreL17RemapGenericFloatI17TexFormatRGBAHalf17TexFormatRGBFloatEEvPKNS_9InnerInfoE
HDg:__Z52RuntimeInvoker_Double_t594665363_Decimal_t2948259380PFvvEPK10MethodInfoPvPS4_
Ype:_InternalEnumerator_1_get_Current_m784835552_gshared
vlc:__Z35Sprite_Get_Custom_PropPixelsPerUnitP12Il2CppObject
QOi:__ZNSt3__26__sortIRN6il2cpp5utils11collections13ArrayValueMapIPK10Il2CppType17Il2CppInteropData26InteropDataToTypeConverterNS1_8metadata14Il2CppTypeLessENSA_26Il2CppTypeEqualityComparerEE12SortComparerEPS8_EEvT0_SH_T_
$hb:__ZN11PreloadDataD2Ev
PXc:__ZN15DownloadHandler14ProcessHeadersERK9HeaderMap
RIc:__ZNSt3__26vectorINS_4pairIifEE13stl_allocatorIS2_L18MemLabelIdentifier35ELi16EEE6assignINS_11__wrap_iterIPS2_EEEENS_9enable_ifIXaasr21__is_forward_iteratorIT_EE5valuesr16is_constructibleIS2_NS_15iterator_traitsISC_E9referenceEEE5valueEvE4typeESC_SC_
Zb:invoke_iifi
Trd:_Char_System_IConvertible_ToInt16_m975497224_AdjustorThunk
Gzf:_Delegate_CreateDelegate_m995503480
JUi:__ZNK6il2cpp5utils10StringViewIcE5RFindEc
kWd:_DerivedType_get_Module_m3032466746
GUa:__ZN15SharedLightData15UpdateTransformERK9Transform
ZVh:__ZL71InputField_t3762917431_CustomAttributesCacheGenerator_m_OnValidateInputP21CustomAttributesCache
_fa:__ZN18AssetBundleManagerD2Ev
Zgc:__Z44Register_UnityEngine_RectOffset_get_verticalv
esj:__ZN6il2cpp2vm9LastError31InitializeLastErrorThreadStaticEv
EUe:_MaskableGraphic_set_maskable_m243551751
OMd:_StreamWriter_Dispose_m2818839127
Wda:__ZZN15DirectorManager15InitializeClassEvEN43PostLateUpdateDirectorLateUpdateRegistrator7ForwardEv
fh:_JS_SystemInfo_GetCurrentCanvasHeight
nie:_ArrayReadOnlyList_1_IndexOf_m1911574180_gshared
nUe:_Mask_OnEnable_m2186824439
VOe:_InputField_SetCaretVisible_m2216480850
rff:_X509EnhancedKeyUsageExtension_CopyFrom_m3750050754
z$a:__ZNK8Material22GetTypeVirtualInternalEv
koc:__Z34GUIStyle_Get_Custom_PropFixedWidthP12Il2CppObject
J8h:_ReadOnlyCollection_1_System_Collections_IList_Clear_m1076810235_gshared
R0f:_Enumerator_System_Collections_IEnumerator_get_Current_m3405349194_AdjustorThunk
aij:__ZN6il2cpp2gc16GarbageCollector11GetWeakLinkEPPv
igj:__GLOBAL__sub_I_Console_cpp
HAa:__ZN6prcoreL17RemapGenericFloatI14TexFormatRHalf17TexFormatRGBAHalfEEvPKNS_9InnerInfoE
R5d:_BigInteger_GetBytes_m1259701831
XUi:__ZN6il2cpp2vm7Runtime11InvokeArrayEPK10MethodInfoPvP11Il2CppArrayPP15Il2CppException
yrf:_String_memcpy_m2826223007
Jid:_RijndaelManaged_CreateDecryptor_m1421727258
MF:__ZN9AudioClip23VirtualRedirectTransferER14SafeBinaryRead
I0f:_Enumerator_MoveNext_m2407049913_gshared
h7f:_StringBuilder_Replace_m1682610486
LDa:__ZN4gles20EnsureTextureCreatedEP7ApiGLESP17RenderSurfaceGLES
iOb:__ZN15ReplacementPass13PrepareSubsetEjRK10RenderNodeifRK17ShaderReplaceData
rL:__Z32AudioMeasurement_GetTimeConstantff
Eij:__ZN6il2cpp8metadata11FieldLayout12LayoutFieldsEjjjRKNSt3__26vectorIPK10Il2CppTypeNS2_9allocatorIS6_EEEERNS1_15FieldLayoutDataE
Zlb:__ZNK20LocalFileSystemPosix9EnumerateEPKcP19dynamic_block_arrayI13FileEntryInfoLj32EEbPPv19FileEnumerationFlag
O$d:_MethodInfo_MakeGenericMethod_m1996785325
t_c:_BaseInputModule_DetermineMoveDirection_m770437496
VGe:_Context_get_HasGlobalDynamicSinks_m3672814609
gpi:_Match__ctor_m2464595873
KVb:__ZL27PrepareSceneNodesJobCombineP25ScheduleSceneNodesJobData
Nni:_X509CertificateEnumerator_Reset_m1825523691
Xpb:__Z22TransferField_NonArrayI14SafeBinaryRead27Converter_SimpleNativeClassI8GUIStyleEEvRK23StaticTransferFieldInfoR31RuntimeSerializationCommandInfoRT0_
F1i:__ZN14dense_hash_mapI10KeyWrapperIPK10Il2CppTypeEjN6il2cpp8metadata14Il2CppTypeHashENS4_14EqualsComparerINS6_26Il2CppTypeEqualityComparerEEENSt3__29allocatorINSB_4pairIKS4_jEEEEEC2EjRKS7_RKSA_
zoa:__ZN13GfxDeviceGLESD2Ev
Jha:__ZNSt3__26vectorIN9ShaderLab26SerializedShaderDependencyENS_9allocatorIS2_EEE6resizeEj
G2h:_Activator_CreateInstance_TisRuntimeObject_m729575857_gshared
Dda:__ZN18AsyncUploadManager13StaticDestroyEPv
cha:__ZN6Shader7SetNameEPKc
Ipd:_Convert_ToDouble_m954895424
fZb:__ZN19CustomRenderTexture22HandleBoundaryWrappingERKNS_14UpdateZoneInfoEj
sGi:_TextGenerationSettings_CompareColors_m3051734236
XRi:__ZN6il2cpp2vm13MetadataCache32GenerateCustomAttributeTypeCacheEi
fpf:_Single_Equals_m438106747
T6f:_StringBuilder__ctor_m2989139009
f4d:_RuntimeResourceSet__ctor_m2765575100
Ide:_TlsClientCertificate_ProcessAsSsl3_m3265529850
nr:__ZNK11UnityEngine9Animation30GenericBindingValueArrayUniqueclERKNS0_14GenericBindingES4_
_rf:_ASCIIEncoding_GetChars_m2543669481
$2e:_BigInteger_IsProbablePrime_m567194283
ZSf:_Dictionary_2_System_Collections_IDictionary_Remove_m3518952519_gshared
lof:_SecurityFrame_InitFromRuntimeFrame_m1714852458_AdjustorThunk
$Yd:_MethodBuilder_GetCustomAttributes_m731278908
mGc:_Direct_Move_Y
kGc:_Direct_Move_X
zKg:__Z51RuntimeInvoker_Single_t1397266774_Double_t594665363PFvvEPK10MethodInfoPvPS4_
Ci:_glClearDepthf
n4b:__ZN19SkinnedMeshRenderer7GetMeshEv
hkb:__ZN19RuntimeSceneManager14GetActiveSceneEv
Kzj:_memcpy
NIb:__ZNSt3__218__insertion_sort_3IRNS_4lessIN22BuiltinResourceManager8ResourceEEEPS3_EEvT0_S7_T_
bOe:_MultiArrayFixupRecord_FixupImpl_m1721674130
uUi:__ZN6il2cpp6icalls8mscorlib6SystemL8IsStaticEPK9EventInfo
cCc:_otv_LookupList_validate
Igc:__Z29RectOffset_Set_Custom_PropTopP12Il2CppObjecti
RZf:_GenericEqualityComparer_1_Equals_m687841776_gshared
$jc:__Z57Register_UnityEngine_Transform_INTERNAL_get_localPositionv
YTb:__ZNSt3__27__sort4IR15ReflProbeSorterPP15ReflectionProbeEEjT0_S6_S6_S6_T_
iUa:__ZN16GraphicsSettings10SmartResetEv
E9b:__ZN19StreamedBinaryWriteILb0EE4InitE24TransferInstructionFlags20BuildTargetSelection
EKd:_FileStream_Flush_m948103572
iKi:__ZN15dense_hashtableINSt3__24pairIK10KeyWrapperIPK22Il2CppGenericParameterEP11Il2CppClassEES6_N6il2cpp5utils11PointerHashIS4_EEN14dense_hash_mapIS6_S9_SE_NS6_14EqualsComparerINS0_8equal_toIS5_EEEENS0_9allocatorISA_EEE9SelectKeyESJ_SL_E9copy_fromERKSO_j
c4e:_ASN1Convert_ToInt32_m254930636
yeb:__ZN26PlayerSettingsSplashScreen16CheckConsistencyEv
xXa:__ZN20SphericalHarmonicsL28TransferI19StreamedBinaryWriteILb0EEEEvRT_
Kgg:_UInt64_ToString_m1529093114
P3b:__ZNK28RectTransformPropertyBinding9BindValueER6ObjectRKN11UnityEngine9Animation14GenericBindingERNS3_10BoundCurveE
wd:_emscripten_glLoadMatrixf
spg:_Material_SetInt_m1783799378
_md:_Array_GetLength_m2178203778
sog:_Input_GetMouseButtonDown_m2081676745
dDd:_Int16_System_IConvertible_ToDouble_m1661805412_AdjustorThunk
Zab:__ZN4Mesh14UploadMeshDataEb
z4b:__ZN14RenderSettings12CleanupClassEv
Yic:__Z43DataUtility_CUSTOM_INTERNAL_CALL_GetPaddingP12Il2CppObjectR8Vector4f
TN:__ZN21AudioScriptingClasses26InvokeOnAudioManagerUpdateEP21ScriptingExceptionPtr
Uxa:__ZN18AsyncUploadManager15DoDeCruncherJobEP26FileAssetUploadInstruction
Cra:__ZN9GfxDevice15ImmediateNormalEfff
Eyg:_Enumerator__ctor_m1351041375
Xub:__ZN13GUIStyleState8TransferI24GenerateTypeTreeTransferEEvRT_
J0:__ZN20dynamic_block_vectorI14FileIdentifierE22push_back_no_constructEv
hHj:_emscripten_glGetActiveAttrib__wrapper
L8a:__ZN9Texture3D23VirtualRedirectTransferER14SafeBinaryRead
a$h:_Array_InternalArray__set_Item_TisVector2_t2156229523_m2671087464_gshared
N3h:_Array_InternalArray__get_Item_TisVector4_t3319028937_m1117939728_gshared
lja:__ZNSt3__26vectorIN9ShaderLab20SerializedSubProgram16TextureParameterENS_9allocatorIS3_EEE8__appendEj
Fni:_X509CertificateCollection_Contains_m743657353
INf:_Array_InternalArray__ICollection_Add_TisSlot_t384495010_m3656484468_gshared
N3a:__ZN9Texture2D13UploadTextureEi
WAc:_cff_get_cid_from_glyph_index
tK:__ZN4FMOD6System19setSoftwareChannelsEi
Wsa:__ZN9GfxDevice19SetSinglePassStereoE16SinglePassStereo
hGj:_emscripten_glGenBuffers__wrapper
Izj:_bitshift64Lshr
Ysj:__ZN6il2cpp8metadata19Il2CppSignatureHash4HashERKNS_5utils13dynamic_arrayIPK10Il2CppTypeLj4EEE
Twd:_Hashtable_System_Collections_IEnumerable_GetEnumerator_m2751657639
jJe:_HeaderHandler_Invoke_m3513051789
tYh:__ZL77CanvasScaler_t2767979955_CustomAttributesCacheGenerator_m_ReferenceResolutionP21CustomAttributesCache
GEg:__Z144RuntimeInvoker_RuntimeObject_RuntimeObject_Int32_t2950945753_RuntimeObject_RuntimeObject_RuntimeObject_RuntimeObject_RuntimeObject_RuntimeObjectPFvvEPK10MethodInfoPvPS4_
_cg:_Type_get_IsPointer_m4067542339
k$e:_Text_get_supportRichText_m1837499160
Jhc:__Z60Register_UnityEngine_Input_INTERNAL_set_compositionCursorPosv
Org:_Vector3_Magnitude_m3447562852
Sig:_Component__ctor_m1928064382
iBj:dynCall_viiiii
nBj:dynCall_viiiif
zyd:_SortedList_PutImpl_m3408406199
lIc:_Cubic_To
ace:_Context_get_Protocol_m1078422015
lfc:__Z44Register_UnityEngine_Camera_get_farClipPlanev
Lq:__Z25InverseTransformDirection23TransformAccessReadOnlyRKN4math7_float3Eb
Oga:__ZN13RuntimeStaticINSt3__28multimapIj25DeferredSkinningOperationNS0_4lessIjEENS0_9allocatorINS0_4pairIKjS2_EEEEEELb0EE13StaticDestroyEPv
Ezi:_ToggleGroup_SetAllTogglesOff_m4184050071
Bdb:__ZNK17IAnimationBinding30CurveAttributeToSerializedPathERKN11UnityEngine9Animation10BoundCurveE
yej:__ZN6il2cpp2gc16GarbageCollector14GetOrCreateCCWEP12Il2CppObjectRK10Il2CppGuid
ncj:__ZN6il2cpp2vm5Image21FromTypeNameParseInfoEPK11Il2CppImageRKNS0_17TypeNameParseInfoEb
xPd:_MonoCustomAttrs_IsDefined_m2996012389
_ta:__ZN17BufferManagerGLES13AcquireBufferEjN14DataBufferGLES11BufferUsageEb
ZGi:_TextGenerator_PopulateAlways_m1922695746
gxf:_Decimal__ctor_m3650533794
LUe:_MaskableGraphic_UpdateClipParent_m2605828397
Clf:_TripleDESTransform_GetStrongKey_m292426577
NUd:_AssemblyBuilder_get_Location_m384539722
wWc:__ZN16UnityAdsSettingsD0Ev
vwa:__ZNK7ApiGLES10DebugLabelEN2gl10ObjectTypeEjPKc
fJd:_DirectoryNotFoundException__ctor_m4004339866
szj:__ZNK10__cxxabiv121__vmi_class_type_info16search_below_dstEPNS_19__dynamic_cast_infoEPKvib
CGi:_TextGenerator__ctor_m1349784994
Rva:__ZN19ConstantBuffersGLES13SetCBConstantEiiPKvi
vVe:_Navigation_Equals_m317484440
Nfh:_Collection_1_System_Collections_IList_set_Item_m876512695_gshared
Zic:__Z38DataUtility_CUSTOM_Internal_GetMinSizeP12Il2CppObjectP13Vector2fIcall
O8b:__ZN8PlayableC2E17ScriptingClassPtr18DirectorPlayerType
Gzg:_Vector3_Distance_m886789632
kNe:_ObjectReader_ReadObjectGraph_m1689734232
Yqg:_MonoBehaviour_StopCoroutine_m907039165
u3i:_il2cpp_class_has_attribute
L4e:_DSAManaged_get_KeySize_m2738463749
oza:__ZN6prcoreL12RemapGenericI15TexFormatRGB88817TexFormatARGB8888EEvPKNS_9InnerInfoE
dAg:_Vector4_op_Subtraction_m1632208160
Vu:__ZN7mecanim9animation30ValueFromSkeletonPoseRecursiveERKNS_8skeleton8SkeletonERKNS1_13SkeletonPoseTIN4math4trsXEEEPKNS0_14SkeletonTQSMapEPKiRNS_10ValueArrayEii
h$:__Z27FindOrCreateMonoScriptCache17ScriptingClassPtr22InitScriptingCacheTypeP6Objecti
MAb:__Z18Transfer_BlittableI18StreamedBinaryReadILb0EELb1E8Vector3fEvRK29SerializationCommandArgumentsR31RuntimeSerializationCommandInfo
vPc:__ZN2UI14CanvasRenderer13SyncVertexPtrER8JobFenceNS0_8SyncFlagE
QEf:_CultureInfo_GetFormat_m732021304
z$:__Z35scripting_method_get_argument_count18ScriptingMethodPtr
NLa:__ZN18AssetBundleManager18SortPreloadObjectsER13dynamic_arrayIiLj4EEb
MJg:__Z46RuntimeInvoker_RuntimeObject_Double_t594665363PFvvEPK10MethodInfoPvPS4_
m5f:_EncoderReplacementFallback__ctor_m2980727890
Htd:_ArrayList_Synchronized_m1327684267
vgc:__Z20Gradient_CUSTOM_InitP12Il2CppObject
F$d:_MethodBase_get_IsPublic_m2180846589
Moc:__Z48Register_UnityEngine_GUIUtility_Internal_ExitGUIv
zVf:_DefaultComparer_Equals_m2574572657_gshared
PJd:_FileStream_get_CanWrite_m1199612770
OVb:__ZL21CullDynamicObjectsJobP14CullingJobDataj
amc:__ZNSt3__26vectorI7GUIClipNS_9allocatorIS1_EEE21__push_back_slow_pathIKS1_EEvRT_
W_d:_TypeBuilder_get_IsGenericParameter_m1751799710
SZb:__ZN14ManagerContext17InitializeClassesEv
mLa:__ZN19StreamedBinaryWriteILb0EE21TransferSTLStyleArrayINSt3__26vectorI14ConstantStringNS2_9allocatorIS4_EEEEEEvRT_17TransferMetaFlags
czb:__ZN18StreamedBinaryReadILb1EE21TransferSTLStyleArrayI31ArrayOfManagedObjectsTransfererEEvRT_17TransferMetaFlags
Ghh:_Collection_1_System_Collections_ICollection_CopyTo_m787979241_gshared
nbi:_ReadOnlyCollection_1_System_Collections_Generic_ICollectionU3CTU3E_Clear_m1551418550_gshared
NHc:_t1_hints_open
pTc:__ZN11UnityEngine15PlatformWrapper24GetVRTrackedAreaGeometryER13dynamic_arrayI8Vector3fLj4EE
AQd:_MonoType_get_AssemblyQualifiedName_m2662925380
tfc:__Z60Register_UnityEngine_Camera_INTERNAL_CALL_WorldToScreenPointv
Uif:_RSACryptoServiceProvider__ctor_m2288290917
J5d:_BigInteger_GenerateRandom_m3872771375
x0g:__Z75RuntimeInvoker_RuntimeObject_Single_t1397266774_RuntimeObject_RuntimeObjectPFvvEPK10MethodInfoPvPS4_
nJ:__ZN4FMOD7Channel11getUserDataEPPv
aDc:_UNITY_tt_face_load_gasp
j5e:_KeyPairPersistence_ProtectMachine_m1313131097
x$e:_Text_set_fontSize_m3617617524
eLc:_ft_ansi_stream_close
hm:_JS_Sound_SetPitch
eag:_Thread_FreeLocalSlotValues_m1195763560
bof:_String_IndexOf_m1977622757
i4i:_il2cpp_runtime_invoke_convert_args
i3c:_TouchInputModule_Process_m3715678669
NFg:__Z114RuntimeInvoker_Int32_t2950945753_RuntimeObject_Int32_t2950945753_Int32_t2950945753_RuntimeObject_Int32_t2950945753PFvvEPK10MethodInfoPvPS4_
$sd:_ArrayList__cctor_m3052737821
j8i:__ZN6il2cpp6icalls8mscorlib6System2IO6MonoIO11GetFileStatEP12Il2CppStringPNS3_8FileStatEPi
psa:__ZN9GfxDevice33InsertCustomMarkerCallbackAndDataEPFviPvEiS0_j
XWc:__ZN11UnityEngine15PlatformWrapper16GenerateRandomIdEv
kOb:__ZNK9ShaderLab9IntShader6GetTagE11ShaderTagIDb
tvd:_BitArray_Set_m2486900776
nQc:__ZN2UI14CanvasRenderer11SetMaterialEP8Materiali
Cpf:_String__ctor_m229724522
yrh:__ZL54AssemblyName_t270931938_CustomAttributesCacheGeneratorP21CustomAttributesCache
OZa:__ZNK13RenderTexture37IsBoundMultisampledOnSecondaryTextureEv
Dmj:_GC_freehblk
Aki:_X509ExtensionCollection__ctor_m551870633
hZd:_MethodBuilder_MakeGenericMethod_m2175748754
Eqi:_QuickSearch_Search_m3063517397
rxe:_Enumerator_Reset_m2443320674_gshared
YGc:_ft_var_get_value_pointer
vdc:__ZN9Scripting35DestroyObjectFromScriptingImmediateEP6Objectb
Hod:_AsyncCallback_Invoke_m3156993048
EWb:__ZNK6Camera48AreVRStereoViewMatricesWithinSingleCullToleranceEv
lx:__ZN7mecanim5human25HumanPoseAddAdditiveLayerERNS0_9HumanPoseERKS1_fRKNS_6bitsetILj83EEE
NHj:_glGetRenderbufferParameteriv__wrapper
M6e:_SymmetricTransform_FinalDecrypt_m1677319445
MFd:_Int32_Equals_m3996243976_AdjustorThunk
Ska:__ZN24GenerateTypeTreeTransfer8TransferINSt3__26vectorIN9ShaderLab20SerializedSubProgram12UAVParameterENS1_9allocatorIS5_EEEEEEvRT_PKc17TransferMetaFlags
qc:invoke_iiiiiiiiiiiiiii
Ggj:__ZN6il2cpp2os6Thread33UnregisterCurrentThreadForCleanupEv
oKj:_emscripten_glIsRenderbuffer__wrapper
qCc:_otv_Coverage_get_first
RNc:__ZN2UI11CanvasGroup8TransferI19StreamedBinaryWriteILb0EEEEvRT_
bJd:_DirectoryInfo__ctor_m1000259829
LVa:__ZNK20IntermediateRenderer8GetLayerEv
HDf:_CultureInfo_ConstructInvariant_m3774343375
s5a:__ZN15QualitySettings8TransferI14SafeBinaryReadEEvRT_
Nnd:_Array_ClearInternal_m532048538
ltf:_DateTime__ctor_m12900168
Iii:_IndexedSet_1_Insert_m1432638049_gshared
VQd:_MulticastDelegate_GetInvocationList_m4256593605
I2h:_Array_FindLast_TisRuntimeObject_m1088586648_gshared
tUe:_Mask_GetModifiedMaterial_m2692272647
jlg:_CullingGroup_t2096318768_marshal_pinvoke_back
ycj:__ZNSt3__26vectorIN6il2cpp2vm5Image20EmbeddedResourceDataENS_9allocatorIS4_EEE21__push_back_slow_pathIS4_EEvOT_
Z7:__GLOBAL__sub_I_runtime_utilities_0_cpp
X1b:__ZN18BackgroundJobQueue29ScheduleMainThreadJobInternalEPFvPvES0_
DBj:dynCall_viiiiiif
Uxi:_GUIUtility_EndGUIFromException_m3524906492
CZ:__ZN14SerializedFile10ReadObjectEx18ObjectCreationModebPPK8TypeTreePbR6Object
Lsi:_Expression_GetFixedWidth_m945658
_6g:_List_1_RemoveAll_m818254423_gshared
qti:_Literal_Compile_m2228022079
QIb:__ZN14dynamic_bitset6resizeEjb
gHc:_tt_property_get
tHf:_Array_InternalArray__ICollection_Contains_TisSlot_t3975888750_m58971838_gshared
_S:__ZN11UnityEngine15CloudWebService10RestClientINS0_23WebRequestRestHeaderMapEE7SetDataEPKhj
mB:__ZN7mecanim8skeleton16SkeletonPoseCopyIN4math4trsXES3_EEvPKNS0_13SkeletonPoseTIT_EEPNS4_IT0_EE
AMi:__ZN14dense_hash_mapI10KeyWrapperIPK11Il2CppClassEPKcN6il2cpp5utils11PointerHashIS1_EENS4_14EqualsComparerINSt3__28equal_toIS3_EEEENSC_9allocatorINSC_4pairIKS4_S6_EEEEE15set_deleted_keyERSI_
Uoa:__ZN9GfxDevice34SetStencilRefWhenStencilWasSkippedEi
hdf:_X509Certificate2_Reset_m3988214799
xUc:__ZN11UnityEngine7Connect13ConnectConfig20RestoreTimeoutConfigERK13dynamic_arrayIiLj4EEjRS3_
pc:invoke_fi
Pqj:__ZN6il2cpp6icalls8mscorlib6System10Reflection4Emit11TypeBuilder20create_runtime_classEP27Il2CppReflectionTypeBuilderS7_
qyg:_Transform_set_localScale_m3053443106
HYa:__ZN8Playable13SetInputCountEi
fX:__ZL21InternalAssertConsolePKcz
nc:invoke_ff
d6e:_RSAManaged_add_KeyGenerated_m3688329863
Wxe:_Enumerator_get_CurrentKey_m3735262888_gshared
ehd:_HashAlgorithm_TransformFinalBlock_m3005451348
IGf:_Guid_NewGuid_m923091018
yd:_emscripten_glVertexAttrib3f
M_i:__ZN30dense_hashtable_const_iteratorINSt3__24pairIK10KeyWrapperINS1_IPK11Il2CppImageP11Il2CppClassEEEjEES9_17ReflectionMapHashIS8_EN14dense_hash_mapIS9_jSD_NS9_14EqualsComparerINS0_8equal_toIS8_EEEENS0_9allocatorISB_EEE9SelectKeyESI_SK_EppEv
plj:__ZThn8_N6il2cpp2vm13CachedCCWBaseINS0_13ManagedObjectEE7DestroyEv
vjf:_RSAPKCS1SignatureDeformatter_SetKey_m614724234
C7f:_UnicodeEncoding_GetByteCount_m3498858619
UIf:_Array_InternalArray__ICollection_Remove_TisX509ChainStatus_t133602714_m3635989134_gshared
Thi:_UnityEvent_1_FindMethod_Impl_m555893253_gshared
zJc:__ZN20TextRenderingPrivate8TextMesh11ApplyToMeshEv
FDj:_emscripten_glDrawRangeElements__wrapper
cTa:__Z28scripting_class_is_valuetype17ScriptingClassPtr
o0b:__ZNSt3__25dequeI10InputEventNS_9allocatorIS1_EEE19__add_back_capacityEv
MFa:__ZN13ComputeShader13SetValueParamERKN9ShaderLab16FastPropertyNameEiPKv
cbb:__ZN14BlendShapeDataD2Ev
SBa:__ZL18ProgramUniform3uivPK7ApiGLESjiihPKv
Wid:_RijndaelTransform_Encrypt128_m1940909042
MPd:_MonoEnumInfo_get_Cache_m752167006
VQc:__Z47CanvasRenderer_Set_Custom_PropHasPopInstructionP12Il2CppObjecth
yqg:_Mesh_get_uv3_m3614955461
CBa:__ZN5Image8SetImageEii13TextureFormatb
Q$:__ZN17MessageIdentifier21GetRegisteredMessagesEv
GV:__Z13RegisterClassI23CloudWebServicesManagerEvv
Gme:_InternalEnumerator_1_get_Current_m3900374024_gshared
Ooi:_DelegatePInvokeWrapper_CostDelegate_t1722821004
bvd:_SynchronizedArrayListWrapper_CopyTo_m2886332653
X7e:_HybridDictionary_Remove_m2295600623
lbj:__GLOBAL__sub_I_Image_cpp
Hne:_InternalEnumerator_1_get_Current_m2680116177_AdjustorThunk
L0a:__ZNSt3__27__sort5IRPFbRKNS_4pairIN9ShaderLab16FastPropertyNameEfEES6_EPS4_EEjT0_SB_SB_SB_SB_T_
Q2f:_List_1_CheckMatch_m1934407508_gshared
qsj:__ZNSt3__26vectorINS_12basic_stringIDsNS_11char_traitsIDsEENS_9allocatorIDsEEEENS4_IS6_EEE8__appendEj
O2e:_Kernel_LeftShift_m3302851050
Oij:__ZN14dense_hash_mapI10KeyWrapperIPK19Il2CppGenericMethodEP10MethodInfoN6il2cpp8metadata23Il2CppGenericMethodHashENS4_14EqualsComparerINS8_26Il2CppGenericMethodCompareEEENSt3__29allocatorINSD_4pairIKS4_S6_EEEEE15set_deleted_keyERSG_
nrb:__Z29Transfer_Blittable_ArrayFieldI14SafeBinaryRead4AABBEvRT_R9ArrayInfoRK23StaticTransferFieldInfo
Wee:_RecordProtocol_SendRecord_m515492272
HFe:_ConfigHandler_ReadProvider_m3620509535
TRh:__ZL56g_UnityEngine_UI_Assembly_CustomAttributesCacheGeneratorP21CustomAttributesCache
zSd:_Random__ctor_m4122933043
Ygc:__Z46Register_UnityEngine_RectOffset_get_horizontalv
u1a:__ZN18DelayedCallManager8ClearAllEv
kDg:__Z180RuntimeInvoker_RuntimeObject_RuntimeObject_Int32_t2950945753_RuntimeObject_Int32U26_t1369213839_BooleanU26_t4125257963_BooleanU26_t4125257963_Int32U26_t1369213839_SByte_t1669577662PFvvEPK10MethodInfoPvPS4_
Zkc:__Z22Mesh_CUSTOM_HasChannelP12Il2CppObject30InternalScriptingShaderChannel
G7i:__ZN6il2cpp2os8AutoLockD2Ev
KHi:_CanvasGroup_get_interactable_m1362547832
CUb:__ZNK25RenderPrePassObjectSorterclERK16RenderObjectDataS2_
Z3d:_ResourceSet_Dispose_m1823973062
pte:_InternalEnumerator_1_System_Collections_IEnumerator_get_Current_m3537550566_AdjustorThunk
nzb:__Z22TransferField_NonArrayI18StreamedBinaryReadILb1EE27Converter_SimpleNativeClassI8GUIStyleEEvRK23StaticTransferFieldInfoR31RuntimeSerializationCommandInfoRT0_
me:_Mix_LoadWAV_RW
Q8d:_EncryptedPrivateKeyInfo__ctor_m25839594
cQ:__Z45AudioSource_Get_Custom_PropSpatializeInternalP12Il2CppObject
qif:_RIPEMD160Managed_HH_m90236373
vVh:__ZL84GraphicRaycaster_t2999697109_CustomAttributesCacheGenerator_m_IgnoreReversedGraphicsP21CustomAttributesCache
YYd:_MethodBuilder_Invoke_m3837446660
Zr:__ZNSt3__27__sort4IRNS_6__lessIN11UnityEngine9Animation13CachedBindingES4_EEPS4_EEjT0_S8_S8_S8_T_
rai:_ReadOnlyCollection_1_System_Collections_IList_Clear_m12445504_gshared
wdj:__ZN6il2cpp2gcL12alloc_handleEPNS0_10HandleDataEP12Il2CppObjectb
AHj:_emscripten_glGetAttribLocation__wrapper
pog:_Input_GetAxisRaw_m2316819917
Woi:_Enumerator_MoveNext_m55255603
eLh:__ZL57SpaceAttribute_t3956583069_CustomAttributesCacheGeneratorP21CustomAttributesCache
vbf:_WebRequest_AddDynamicPrefix_m4246631209
RUb:__Z13InitIndexListR9IndexListj
XNf:_Array_InternalArray__ICollection_Add_TisRefEmitPermissionSet_t484390987_m1720891963_gshared
M0:__ZL16ReadTypeTreeImplILb1EEbR8TypeTreeRK16TypeTreeIteratorRPKhS6_i
srj:__ZN6il2cpp6icalls8mscorlib6System11Diagnostics10StackTrace9get_traceEP15Il2CppExceptionib
JCe:_Dictionary_2_set_Item_m3327106492_gshared
Ee:_glBlendEquationSeparate
rm:_emscripten_glDeleteVertexArrays
Jsa:__ZN13GfxDeviceGLES17SetComputeUniformE12ObjectHandleI18ComputeProgram_TagPvER18ComputeShaderParamjPKv
YIj:b95
Ari:_Parser_IsNameChar_m698176442
r1g:_List_1_RemoveAt_m3459335427_gshared
CJj:_emscripten_glValidateProgram__wrapper
Zac:__ZN13MeshScripting27PrintErrorCantAccessChannelEPK4Mesh30InternalScriptingShaderChannel
Jzg:_Vector3_get_sqrMagnitude_m1474274574_AdjustorThunk
Oli:_GeneralNames_ToString_m489778282
Le:_emscripten_glUniform3fv
bIf:_Array_InternalArray__ICollection_Contains_TisRaycastHit2D_t2279581989_m2733133723_gshared
Szd:_Convert_ToByte_m1442000130
Wif:_RSACryptoServiceProvider_get_KeySize_m2654153358
m9i:__ZN6il2cpp2vm9Exception20GetArgumentExceptionEPKcS3_
nwc:__Z29Transfer_Blittable_ArrayFieldI8JSONReadiEvRT_R9ArrayInfoRK23StaticTransferFieldInfo
l2f:_Enumerator_MoveNext_m625797905_AdjustorThunk
L$h:_Array_Resize_TisCustomAttributeTypedArgument_t2723150157_m3021884250_gshared
MHj:_glDrawArrays__wrapper
CO:__ZN9AudioClip27IsFormatSupportedByPlatformERKN4core12basic_stringIcNS0_20StringStorageDefaultIcEEEE
h2a:__ZN29SerializeTraitsForStringTypesIN4core12basic_stringIcNS0_20StringStorageDefaultIcEEEEE8TransferI24GenerateTypeTreeTransferEEvRS4_RT_
Dka:__ZN9ShaderLab26SerializedShaderDependency8TransferI24GenerateTypeTreeTransferEEvRT_
wgi:_InvokableCall_3_Invoke_m3141788616_gshared
jqi:_PatternCompiler_EmitUntil_m3644194775
qDc:_UNITY_FT_Match_Size
Vv:__ZN7mecanim20CreateValueArrayMaskEPKNS_18ValueArrayConstantERNS_6memory9AllocatorE
s5e:_KeyPairPersistence_ToXml_m812591779
hQd:_MonoType_GetFields_internal_m776921855
qTc:__ZN11UnityEngine7Connect14AppUpdateEventC2Ev
v3d:_ResourceReader_Dispose_m3597121875
NSa:__ZN12ImageFilters17RemoveImageFilterERK11ImageFilter
cmd:_Hashtable_CalcPrime_m550773117
Xvg:_RenderTexture_get_width_m2160921386
tje:_InternalEnumerator_1_get_Current_m3073360606_AdjustorThunk
qsa:__ZN9GfxDevice31InsertCustomBlitCallbackAndDataEPFviPvER33UnityRenderingExtCustomBlitParams
VJb:__Z32AddPathRemapsForBuiltinResourcesRKN4core12basic_stringIcNS_20StringStorageDefaultIcEEEE
VXa:__ZN14RenderSettings23VirtualRedirectTransferER24GenerateTypeTreeTransfer
Fsb:__ZL26Transfer_SimpleNativeClassI17RemapPPtrTransfer17AnimationCurveTplIfELb0EEvRK29SerializationCommandArgumentsR31RuntimeSerializationCommandInfo
lPe:_InputField_set_caretWidth_m707310868
tm:_glDeleteTransformFeedbacks
Wdi:_U3CCreateWhereIteratorU3Ec__Iterator1D_1_MoveNext_m612748497_gshared
qf:_JS_WebRequest_Send
Glj:__ZN6il2cpp2os4Time31GetTicks100NanosecondsMonotonicEv
qhj:__ZNSt3__26__treeINS_12basic_stringIcNS_11char_traitsIcEENS_9allocatorIcEEEENS_4lessIS6_EENS4_IS6_EEE16__construct_nodeIJRKS6_EEENS_10unique_ptrINS_11__tree_nodeIS6_PvEENS_22__tree_node_destructorINS4_ISH_EEEEEEDpOT_
aJd:_MonoIO_GetFileSystemEntries_m37351365
JBd:_Convert_ToSByte_m516918950
iVc:__ZN18UnityConnectClient32OnVrControllerStateChangedStaticEPS_13dynamic_arrayIN4core12basic_stringIcNS2_20StringStorageDefaultIcEEEELj4EE
_qg:_MonoBehaviour_print_m330341231
uvg:_ReapplyDrivenProperties_Invoke_m1151937880
Vid:_RijndaelTransform_ECB_m670662322
bTe:_LayoutGroup_OnDisable_m3483954898
ZRi:__ZN6il2cpp2vm13MetadataCache21GetFieldInfoFromIndexEj
LPh:__ZL62EventType_t3528516131_CustomAttributesCacheGenerator_mouseDragP21CustomAttributesCache
HQ:__ZN5physx14PxLightCpuTaskD2Ev
nq:__ZNSt3__26vectorIN4core12basic_stringIcNS1_20StringStorageDefaultIcEEEENS_9allocatorIS5_EEE6assignINS_11__wrap_iterIPS5_EEEENS_9enable_ifIXaasr21__is_forward_iteratorIT_EE5valuesr16is_constructibleIS5_NS_15iterator_traitsISE_E9referenceEEE5valueEvE4typeESE_SE_
Mvg:_Vector2_get_zero_m540426400
L2i:_il2cpp_init
fIg:__Z105RuntimeInvoker_RuntimeObject_RuntimeObject_StreamingContext_t3711869237_ISurrogateSelectorU26_t3801502798PFvvEPK10MethodInfoPvPS4_
hNc:__ZNSt3__26__treeIPN2UI14CanvasRendererENS_4lessIS3_EENS_9allocatorIS3_EEE7destroyEPNS_11__tree_nodeIS3_PvEE
$qa:__ZN13GfxDeviceGLES22UploadTextureSubData2DE9TextureIDPKhiiiiii14GraphicsFormat
sue:_DefaultComparer_Compare_m3648806637_gshared
Okc:__Z35Register_UnityEngine_Screen_get_dpiv
Fuc:__ZN8JSONRead8TransferIxEEvRT_PKc17TransferMetaFlagsb
$wc:__ZN13SpeedTreeWind7AdvanceEbd
Tke:_InternalEnumerator_1_get_Current_m923139215_AdjustorThunk
zPi:__ZN15dense_hashtableINSt3__24pairIK10KeyWrapperIN6il2cpp5utils13dynamic_arrayIPK10Il2CppTypeLj4EEEEPFvvEEESA_NS3_8metadata19Il2CppSignatureHashEN14dense_hash_mapISA_SD_SG_NSA_14EqualsComparerINSF_22Il2CppSignatureCompareEEENS0_9allocatorISE_EEE9SelectKeyESK_SM_E12expand_arrayEjN21dense_hash_map_traits17integral_constantIbLb0EEE
LLf:_Array_FindLastIndex_TisRuntimeObject_m2929523835_gshared
tcc:__ZN9Transform16SetLocalPositionERK8Vector3f
L0b:__ZN10BootConfig4Data12InitFromFileEPPKcjS2_
JAb:__Z15Transfer_StringI18StreamedBinaryReadILb0EELb0EEvRK29SerializationCommandArgumentsR31RuntimeSerializationCommandInfo
yKc:_ft_open_face_internal
_Cc:_UNITY_tt_face_free_name
cQe:_InputField_set_selectionAnchorPosition_m68980541
BCa:__ZN14DataBufferGLES3MapEjjj
cDd:_Int16_System_IConvertible_ToDouble_m1661805412
HIj:_emscripten_glGetShaderiv__wrapper
T2b:__Z13RegisterClassI9TransformEvv
Sti:_Repetition_Compile_m988726715
zY:__ZNK6Camera33CalculateFarPlaneWorldSpaceLengthEv
i_c:_BaseInput_GetButtonDown_m3789908809
w6g:_List_1_System_Collections_IList_Insert_m2401407093_gshared
vWd:_EnumBuilder_get_BaseType_m1707640163
K_i:__ZNK15dense_hashtableINSt3__24pairIK10KeyWrapperINS1_IPK11Il2CppImageP11Il2CppClassEEEjEES9_17ReflectionMapHashIS8_EN14dense_hash_mapIS9_jSD_NS9_14EqualsComparerINS0_8equal_toIS8_EEEENS0_9allocatorISB_EEE9SelectKeyESI_SK_E5beginEv
YJj:b98
Nyc:_cf2_stack_setReal
pI:__ZN4FMOD3DSP8getInputEiPPS0_PPNS_13DSPConnectionE
eN:__ZN11SoundHandle8Instance13CreateChannelERS_b
BRd:_NumberFormatter_NumberToString_m2529982306
jH:__ZN13AudioListenerD2Ev
JLc:_UNITY_FT_Done_Library
Erj:__ZN6il2cpp2os5MutexC2Eb
Fmi:_PKCS12__cctor_m3271060407
Lve:_Comparer_1__cctor_m2282308543_gshared
MPc:__ZN2UI13CanvasManager17EmitDataForCameraEP6Camera
L7d:_ARC4Managed_CheckInput_m1562172012
e1f:_Enumerator_MoveNext_m4018122760_gshared
V7:___cxx_global_var_init_66
lki:_TlsStream_ReadBytes_m2334803179
Gic:__Z44Register_UnityEngine_Material_GetTextureImplv
_bi:_ReadOnlyCollection_1_System_Collections_IList_Add_m2445024939_gshared
Alg:_Debug_Log_m4051431634
e5a:__ZN19StreamedBinaryWriteILb0EE21TransferSTLStyleArrayI13dynamic_arrayI31EnlightenSystemAtlasInformationLj8EEEEvRT_17TransferMetaFlags
jKd:_FileStream_EndRead_m3904255625
oGb:__ZL8MainLoopv
t9b:__ZN17TransformInternal25CopyTransformSubhierarchyER18TransformHierarchyjS1_yyjb
GIe:_CallContextRemotingData_Clone_m14303327
rRc:__Z47Register_UnityEngine_CanvasRenderer_SetMaterialv
qKj:_emscripten_glIsShader__wrapper
M4e:_DSAManaged_get_PublicOnly_m3575594967
jMc:__Z26CleanupTextRenderingModulev
rH:__ZN13AudioListener23VirtualRedirectTransferER24GenerateTypeTreeTransfer
ilb:__ZNK12HandlerChain9EnumerateEPKcP19dynamic_block_arrayI13FileEntryInfoLj32EEbPPv19FileEnumerationFlag
Hbb:__ZThn32_N12MeshRendererD1Ev
uZa:__ZN13RenderTexture23VirtualRedirectTransferER19StreamedBinaryWriteILb0EE
skj:__ZN6il2cpp2vm13ComObjectBase17GetMarshalSizeMaxERK10Il2CppGuidPvjS5_jPj
Rxj:_truncate
vla:__ZN9ShaderLab27SerializedShaderVectorValue8TransferI18StreamedBinaryReadILb0EEEEvRT_
tX:__ZN8Renderer21RendererBecameVisibleEv
mxj:___stpncpy
E9:__ZN10MemoryPool16StaticInitializeEPv
Ofa:__ZN11TypeManager21CleanupGlobalInstanceEv
pCf:_Enum_ToString_m2240012010
N:Math_atan
xa:invoke_iifii
SG:__ZNK10SampleClip11GetResourceEv
F0d:_MonoEvent_get_Name_m3774595291
gpa:__ZN9GfxDevice15GetStereoMatrixE21MonoOrStereoscopicEye24BuiltinShaderMatrixParamR10Matrix4x4f
DOa:__ZN4core12basic_stringIcNS_20StringStorageDefaultIcEEE6resizeEj
Ync:__Z43Register_UnityEngine_Event_set_displayIndexv
rwc:__GLOBAL__sub_I_CmEventProfiler_cpp
SOg:__Z128RuntimeInvoker_RuntimeObject_RuntimeObject_SByte_t1669577662_SByte_t1669577662_SByte_t1669577662_SByte_t1669577662_RuntimeObjectPFvvEPK10MethodInfoPvPS4_
M7f:_UnicodeEncoding_GetMaxByteCount_m3053620432
mIe:_ArgInfo__ctor_m1950205784
hei:_Nullable_1_Equals_m4046255732_AdjustorThunk
sQa:__ZN17GlobalGameManager23VirtualRedirectTransferER24GenerateTypeTreeTransfer
MVc:__ZN19UnityConnectServiceD0Ev
jzi:_ToggleGroup_ValidateToggleIsInGroup_m3201190739
QUi:__ZN6il2cpp2vm7Runtime17GetDelegateInvokeEP11Il2CppClass
Vqg:_MonoBehaviour_StartCoroutine_Auto_Internal_m2421197418
bxc:___cxx_global_var_init_128
Y1d:_MonoProperty_get_PropertyType_m4138957578
eUa:__ZNSt3__26vectorIfNS_9allocatorIfEEE8__appendEjRKf
$Tc:__ZN11UnityEngine15PlatformWrapper21GetCopyTextureSupportEv
yuf:_DateTime_get_Month_m1566006993_AdjustorThunk
_Gf:_Array_get_swapper_TisRaycastResult_t3360306849_m1267000905_gshared
Vfe:_SslClientStream__ctor_m3478574780
iO:__ZN11AudioModule27IsFormatSupportedByPlatformEPKc
jKc:_UNITY_FT_Render_Glyph
PVd:_DerivedType_GetFields_m3190137327
l$c:_EventSystem_OnDisable_m3820258344
fwc:__Z19TransferField_ArrayI8JSONRead16Converter_StringEvRK23StaticTransferFieldInfoR31RuntimeSerializationCommandInfoRT0_
Thd:_MACTripleDES_Setup_m560957914
v6b:__ZZN10MeshFilter15InitializeClassEvEN31FunctorImpl_108kDidAddComponent4CallEPviR11MessageData
YPi:__ZN15dense_hashtableINSt3__24pairIK10KeyWrapperIPK19Il2CppGenericMethodEPK26Il2CppGenericMethodIndicesEES6_N6il2cpp8metadata23Il2CppGenericMethodHashEN14dense_hash_mapIS6_SA_SE_NS6_14EqualsComparerINSD_26Il2CppGenericMethodCompareEEENS0_9allocatorISB_EEE9SelectKeyESI_SK_E6insertERKSB_
KUb:__Z19SetupShadowCullDataRK27ScriptableCullingParametersRK17ShaderReplaceDataPK22SceneCullingParametersf16ShadowProjectionR14ShadowCullData
MKa:__ZNK25ThreadsafeLinearAllocator22GetAllocatedMemorySizeEv
Pxc:_cff_size_request
M_a:__ZN15DirectorManager14ConnectionPool12SwitchBucketEP14ConnectionList
uNc:__ZN2UI11CompareFuncEPNS_6CanvasES1_
fJ:__ZN4FMOD7Channel11set3DSpreadEf
_rj:__ZN6il2cpp2os6Memory14AlignedReAllocEPvjj
QCe:_Dictionary_2_Resize_m1156965638_gshared
e2a:__ZN24GenerateTypeTreeTransfer16TransferTypelessEPjPKc17TransferMetaFlags
YMf:_Array_InternalArray__IndexOf_TisPlayableBinding_t354260709_m3544096311_gshared
Hkf:_SHA512Managed_processLength_m2162821715
TBa:__ZL18ProgramUniform4uivPK7ApiGLESjiihPKv
stg:_Vector3_get_normalized_m2454957984
O9f:_Mutex_CreateMutex_internal_m3763633491
RXh:__ZL74SpriteState_t1362986479_CustomAttributesCacheGenerator_m_HighlightedSpriteP21CustomAttributesCache
Qm:FUNCTION_TABLE_viiiiiiiiiiiiiii
Bac:__ZNK4Mesh19CanAccessFromScriptEv
d2:__Z15GetGraphicsCapsv
vEa:__ZN7ApiGLES15BindVertexArrayEN2gl6HandleILNS0_10ObjectTypeE3EEE
oRf:_Dictionary_2_System_Collections_IDictionary_Remove_m316877720_gshared
Fv:__ZN17AnimationPlayable17GetAnimationClipsER13dynamic_arrayIP13AnimationClipLj4EE
$Rb:__Z20IntersectionAABBAABBRK10MinMaxAABBS1_PS_
Vge:_SslStreamBase_get_SecurityProtocol_m596101988
rXi:__ZNSt3__212basic_stringIcNS_11char_traitsIcEENS_9allocatorIcEEE6__initIPKcEENS_9enable_ifIXsr21__is_forward_iteratorIT_EE5valueEvE4typeESA_SA_
una:__ZN9ShaderLab20SerializedSubProgram14AddMatrixParamEPKcii15ShaderParamTypei
fMg:__Z121RuntimeInvoker_Void_t1185182177_Int32_t2950945753_Int32_t2950945753_Int32_t2950945753_Int32_t2950945753_Int32_t2950945753PFvvEPK10MethodInfoPvPS4_
eHc:_ft_var_load_item_variation_store
gjd:_DeriveBytes_set_Salt_m441577179
nii:_UnityEvent_3_FindMethod_Impl_m1640458315_gshared
zqh:__ZL61ConstructorBuilder_t2813524108_CustomAttributesCacheGeneratorP21CustomAttributesCache
Tnb:__Z18Transfer_BlittableI14SafeBinaryReadLb1EhEvRK29SerializationCommandArgumentsR31RuntimeSerializationCommandInfo
z$e:_Text_get_verticalOverflow_m2420459396
xga:__ZNSt3__224__buffered_inplace_mergeIRNS_4lessIN4core12basic_stringIcNS2_20StringStorageDefaultIcEEEEEENS_11__wrap_iterIPS6_EEEEvT0_SC_SC_T_NS_15iterator_traitsISC_E15difference_typeESG_PNSF_10value_typeE
cc:invoke_viifff
Iaa:__Z22DestroyObjectHighLevelP6Objectb
Wfd:_KeySizes__ctor_m3113946058
mPb:__Z26BeginRenderQueueExtractionR15RenderNodeQueuePK16RendererCullDataRK13CullingOutputPK12LODDataArray15ExtractionFlagsP18JobBatchDispatcher
SJc:__ZNK13TextRendering4Font10GetTextureEv
oj:_emscripten_glVertexAttrib3fv
lIe:_LifetimeServices__cctor_m2128864873
Veg:_UInt16_TryParse_m3193697465
L7i:__ZN6il2cpp6icalls8mscorlib6System9Threading6Thread16SetName_internalEP12Il2CppThreadP12Il2CppString
pif:_RIPEMD160Managed_GG_m3020389474
azf:_Decimal_op_Division_m2407964042
UPe:_InputField_get_asteriskChar_m965956856
UUa:__ZN18JobBatchDispatcherC2E11JobPriorityi
$gd:_HashAlgorithm_Create_m644612360
Yrg:_Playable_get_Null_m3556999077
p2e:_BigInteger_TestBit_m1507066813
Vlc:__ZN8GUIStyle14GetBuiltinFontEv
Sra:__ZN9GfxDevice13EndFrameStatsEv
c5b:__Z7Empty2DP9Texture2DPhiiii
B_h:_Array_InternalArray__set_Item_TisRefEmitPermissionSet_t484390987_m3786305619_gshared
Stj:_DisplayBuffer_GetAllDisplayLines_m956916978
N6i:__ZN6il2cpp6icalls8mscorlib6System7Runtime15InteropServices7Marshal19copy_from_unmanagedEiiP11Il2CppArrayi
iH:__ZL34StaticDestroyAudioCustomFilterRootPv
mie:_ArrayReadOnlyList_1_GetEnumerator_m3931906247_gshared
SFa:__ZN19ComputeShaderKernelD2Ev
UKi:__ZN6il2cpp2vmL17SetupEventsLockedEP11Il2CppClassRKNS_2os12FastAutoLockE
u1b:__ZN10systeminfo21GetTemporaryCachePathEv
H5b:__ZZN8Renderer15InitializeClassEvEN28FunctorImpl_138kLayerChanged4CallEPviR11MessageData
Flj:__ZN6il2cpp2os4Time29GetTicksMillisecondsMonotonicEv
ybd:_GridLayoutGroup_CalculateLayoutInputVertical_m357562599
i9f:_CompressedStack_Capture_m3327262890
kub:__Z18Transfer_BlittableI24GenerateTypeTreeTransferLb1E10Matrix4x4fEvRK29SerializationCommandArgumentsR31RuntimeSerializationCommandInfo
z2c:_StandaloneInputModule_get_repeatDelay_m1143359059
X8f:_UTF8Encoding_GetMaxByteCount_m420651053
Csc:__ZN9JSONWrite8TransferI10Matrix4x4fEEvRT_PKc17TransferMetaFlags
xzc:_cf2_hintmap_map
Vuf:_DateTime_Compare_m2855073242
A1g:_List_1_get_Item_m1651423686_gshared
jUa:__ZNK16GraphicsSettings22GetTypeVirtualInternalEv
Ycg:_Type_get_IsExplicitLayout_m1182254884
Zqb:__ZN15SerializeTraitsI5RectTIfEE8TransferI14SafeBinaryReadEEvRS1_RT_
dLa:__ZNK14SerializedFile15GetTypeIfExistsEx
sjc:__Z41Register_UnityEngine_Texture_get_wrapModev
_Kc:_UNITY_FT_Raccess_Get_DataOffsets
H8b:__ZN14PlayableOutputC2EjP13PlayableGraph
IX:__ZThn32_NK8Renderer11GetMaterialEi
i7c:_FloatTween_AddOnChangedCallback_m2814315272
Nlj:__ZN6il2cpp6icalls8mscorlib6System7Runtime15InteropServices8GCHandle15GetTargetHandleEP12Il2CppObjectii
Zjg:_CameraCallback_Invoke_m3308824940
xcb:__ZN9InputAxis8TransferI18StreamedBinaryReadILb0EEEEvRT_
xW:__ZN13MemoryManager12GetAllocatorE10MemLabelId
S5d:_BigInteger_ToString_m3260066955
Loa:__ZN9GfxDevice29GetMinimumNodesPerGraphicsJobEv
FKh:__ZL63RuntimePlatform_t4159857903_CustomAttributesCacheGenerator_NaClP21CustomAttributesCache
vab:__ZN17BlendShapeChannel8TransferI24GenerateTypeTreeTransferEEvRT_
ZZe:_Slider__ctor_m873361617
P4d:_GCHandle__ctor_m2690474163_AdjustorThunk
Tea:__ZN15DirectorManager17OnSampleFixedTimeEv
cWb:__ZNK13RendererScene21GetDynamicObjectCountEv
gBf:_Double_Parse_m1135962389
Bki:_X509Extension__ctor_m710637961
mvf:_CultureInfo_get_CurrentCulture_m1632690660
G5e:_PKCS1_OS2IP_m65970018
Ck:_Mix_HaltMusic
q8h:_ReadOnlyCollection_1_System_Collections_IList_set_Item_m70952451_gshared
Sfb:__ZNSt3__26vectorIN30RuntimeInitializeOnLoadManager9ClassInfoE13stl_allocatorIS2_L18MemLabelIdentifier13ELi16EEE8__appendEj
Sub:__ZN24GenerateTypeTreeTransfer32TransferSTLStyleArrayWithElementI23ManagedObjectTransfererEEvRT_17TransferMetaFlags
uij:__ZN6il2cpp6icalls8mscorlib6System11Environment12get_PlatformEv
N9e:_HttpWebRequest__cctor_m1467954389
bbe:_CipherSuiteCollection_System_Collections_IList_Remove_m2463347416
_5h:_ReadOnlyCollection_1_System_Collections_IList_RemoveAt_m1980090087_gshared
Pog:_DefaultValueAttribute_GetHashCode_m3368187153
ksj:__ZN6il2cpp6icalls8mscorlib6System7Runtime8Remoting16RemotingServices16GetVirtualMethodEP20Il2CppReflectionTypeP22Il2CppReflectionMethod
Sec:__Z42Register_UnityEngine_Behaviour_get_enabledv
Nge:_SslStreamBase_EndNegotiateHandshake_m1124299797
Jee:_SslStreamBase__ctor_m3009266308
tWi:__ZN6il2cpp2vm14TypeNameParser23ParseNestedTypeOptionalERi
Ibg:_TimeSpan_get_Seconds_m1883479191_AdjustorThunk
Krj:__ZN6il2cpp2os13FastMutexImplC2Ev
u4d:_RuntimeHelpers_InitializeArray_m4077124945
Pfb:__ZN30RuntimeInitializeOnLoadManager9ClassInfo8TransferI14SafeBinaryReadEEvRT_
_5d:_BigInteger_op_Equality_m1194739960
s8f:_UTF7Encoding_GetCharCount_m2792854727
wSb:__ZL13RenderCastersiRK8Vector3fS1_RK13ShadowJobDataR17ShaderPassContextRKNSt3__26vectorI16ShadowCasterData13stl_allocatorIS9_L18MemLabelIdentifier2ELi16EEEERKNS8_I20ShadowCasterPartDataSA_ISG_LSB_2ELi16EEEERK15RenderNodeQueuebPKj
nl:_emscripten_glGetShaderInfoLog
y$e:_Text_get_horizontalOverflow_m4155575610
HNe:_ObjectReader_RecordFixup_m4125245357
uDc:_UNITY_ft_glyphslot_set_bitmap
Cl:_glUniform1i
AQe:_InputField_Validate_m4147207871
z1b:__ZN6prcoreL11inner_clearILj3EEEvPhjjj
rDf:_CCGregorianCalendar_dmy_from_fixed_m494173177
B4g:_List_1_System_Collections_IList_IndexOf_m3211997095_gshared
u5:__Z29FindReflectionProbeFromAnchorP9TransformRK4AABBRS1_RsS5_
hrd:_Byte_System_IConvertible_ToUInt64_m371883985_AdjustorThunk
MFc:_Read_CVT_Stretched
UTi:__ZN6il2cpp6icalls8mscorlib6System18CollectTypeMethodsINS_5utils10functional10TrueFilterEEEvP11Il2CppClassPKS7_jRKT_RNSt3__26vectorIPK10MethodInfoNSE_9allocatorISI_EEEERA65535_b
xGb:__Z14SetPlayerPause11PlayerPauseb
Svd:_CollectionBase_System_Collections_ICollection_CopyTo_m2850099809
B7h:_ReadOnlyCollection_1_System_Collections_IEnumerable_GetEnumerator_m3042843502_gshared
N2c:_StandaloneInputModule_ActivateModule_m2232892298
X4d:_GCHandle_Free_m1457699368_AdjustorThunk
oag:_Thread_get_CurrentUICulture_m1397429997
nAc:_cff_done_blend
$if:_RSACryptoServiceProvider_Dispose_m1199148535
Nad:_Graphic_RegisterDirtyLayoutCallback_m1235519898
s_:__Z30scripting_stack_trace_info_for21ScriptingExceptionPtrR14StackTraceInfo
ozg:_Vector2_op_Inequality_m3858779880
CCj:_glCompressedTexSubImage3D__wrapper
GYa:__ZN18ShadowMapJobHeaderD0Ev
RZe:_Selectable_Select_m1465131241
j$i:__ZN15dense_hashtableINSt3__24pairIK10KeyWrapperINS1_IPK12PropertyInfoP11Il2CppClassEEEjEES9_17ReflectionMapHashIS8_EN14dense_hash_mapIS9_jSD_NS9_14EqualsComparerINS0_8equal_toIS8_EEEENS0_9allocatorISB_EEE9SelectKeyESI_SK_EC2ERKSN_j
zI:__ZN15AudioReverbZone7CleanupEv
voa:__ZN10BufferGLESD0Ev
dGb:__Z20scripting_gc_disablev
Rod:_Attribute_IsDefined_m1430686743
$hf:_IntervalCollection_Optimize_m161975983
b6c:__Z9NullCheckPv
whg:_Version__ctor_m417728625
Bfa:__ZN16memory_pool_implILi68EE15AutoPoolWrapper10InitializeEPv
Xzd:_Convert_ToByte_m3567528984
Ifi:_InvokableCall_1_Invoke_m3497872319_gshared
GEb:__ZN9Scripting35ErrorMessageForUnsupportedEnumFieldE17ScriptingFieldPtr
j0e:_Level2MapComparer__cctor_m1866197409
vAb:__Z29Transfer_Blittable_ArrayFieldI18StreamedBinaryReadILb1EEfEvRT_R9ArrayInfoRK23StaticTransferFieldInfo
efe:_RecordProtocol_ReadRecordBuffer_m180543381
gwe:_Enumerator_get_CurrentKey_m2230405065_AdjustorThunk
OBi:__ZL24UnresolvedVirtualCall_10P12Il2CppObjectPK10MethodInfo
lvd:_BitArray__ctor_m2765908219
Mrf:_StringComparer_get_InvariantCultureIgnoreCase_m2404489191
dGi:_Font_get_material_m1471867149
tlj:__ZN6il2cpp6icalls8mscorlib6System7Runtime16CompilerServices14RuntimeHelpers15InitializeArrayEP11Il2CppArrayi
bHe:_Context_Freeze_m2594571993
bXc:__ZZN18UnityConnectClient23RegisterGlobalCallbacksEvEN46EarlyUpdateUnityConnectClientUpdateRegistrator7ForwardEv
t6c:_ContentSizeFitter_HandleSelfFittingAlongAxis_m3992075504
SOf:_Array_InternalArray__ICollection_CopyTo_TisInt32_t2950945753_m3102754797_gshared
itg:_Quaternion_ToString_m2203056442
yVd:_ModuleBuilder_GetTokenGenerator_m4177350090
Eab:__ZN10Matrix4x4f8TransferI18StreamedBinaryReadILb0EEEEvRT_
uag:_Thread_Start_m2860771284
A9g:_List_1_AddEnumerable_m2295992518_gshared
wM:__ZN4FMOD7Channel19getReverbPropertiesEP29FMOD_REVERB_CHANNELPROPERTIES
oVb:__ZL23NormalizeRobustInternalRK8Vector3fRfS2_f
exc:__GLOBAL__sub_I_modules_terrain_public_2_cpp
vPe:_InputField_get_selectionColor_m2548343601
kNf:_Array_LastIndexOf_TisRuntimeObject_m2701366436_gshared
KTi:__ZN6il2cpp6icalls8mscorlib6System8MonoType13GetInterfacesEP20Il2CppReflectionType
IT:__ZN11UnityEngine15CloudWebService25WebRequestDownloadHandler7OnAbortEv
YLb:__ZN6Camera12CustomRenderER11CullResultsR17ShaderPassContextPK21CameraRenderingParamsNS_10RenderFlagEPNS_21PerformRenderFunctionEPFvvE
ycf:_PublicKey_GetUnsignedBigInteger_m3873409673
Egj:__ZN6il2cpp2os6Thread22SetNativeThreadCleanupEPFvPvE
tZf:_GenericEqualityComparer_1_Equals_m2669134646_gshared
sec:__Z35Application_Get_Custom_PropPlatformv
_2i:_il2cpp_class_from_system_type
_dd:_RuntimeMethodHandle__ctor_m2867240657
zsf:_DecoderFallback_get_StandardSafeFallback_m2130338133
bn:FUNCTION_TABLE_vdd
Rtb:__Z18Transfer_BlittableI24GenerateTypeTreeTransferLb1E10ColorRGBAfEvRK29SerializationCommandArgumentsR31RuntimeSerializationCommandInfo
oAa:__ZN6prcoreL17RemapGenericFloatI18TexFormatRGBAFloat16TexFormatRGFloatEEvPKNS_9InnerInfoE
jTi:__ZN6il2cpp6icalls8mscorlib6System8MonoType8get_NameEP20Il2CppReflectionType
C1e:_SimpleCollator_LastIndexOf_m2130553617
oqb:__ZNSt3__26vectorI10RectOffset13stl_allocatorIS1_L18MemLabelIdentifier1ELi16EEE8__appendEj
Tt:__ZN21AnimationClipPlayable22PrepareAnimationEventsEfR13dynamic_arrayI22AnimationClipEventInfoLj4EE
gue:_DefaultComparer_Compare_m1920986590_gshared
rcg:_TimeSpan_op_Equality_m1999885032
Xge:_SslStreamBase_get_ServerCertificates_m2154373069
Wbj:__ZN6il2cpp2vmL29AddTypeToNametoClassHashTableEPK11Il2CppImagei
Ro:FUNCTION_TABLE_ff
To:FUNCTION_TABLE_fi
zEd:_NumberFormatter_ZeroTrimEnd_m3065471008
chi:_UnityAction_2_Invoke_m2304474703_gshared
Pjd:_X509Certificate_get_DSA_m1760272844
nag:_Thread_get_CurrentCulture_m349116646
gag:_Thread_Thread_internal_m4184414727
rd:_emscripten_glGetAttribLocation
EKb:__ZZ23InitPlayerLoopCallbacksvEN39PostLateUpdateResetInputAxisRegistrator7ForwardEv
kL:__ZN4FMOD12ChannelGroup14getParentGroupEPPS0_
vd:_emscripten_set_blur_callback
kdh:_Collection_1_IsValidItem_m1475436662_gshared
dya:__ZNK14ImageReference9ClipImageEiiii
x6b:__ZN4MeshC2E10MemLabelId18ObjectCreationMode
fTb:__ZN10Matrix4x4f30SetPositionAndOrthoNormalBasisERK8Vector3fS2_S2_S2_
oKa:__ZN5RectTIfE8TransferI24GenerateTypeTreeTransferEEvRT_
_5c:_ColorBlock_Equals_m518833916
Rfj:__ZN6il2cpp6icalls8mscorlib6System4Enum8ToObjectEP20Il2CppReflectionTypeP12Il2CppObject
x$h:_Array_qsort_TisUIVertex_t4057497605_m4120916435_gshared
mNb:__ZN12FlareManager6UpdateEv
N9i:__ZN6il2cpp6icalls8mscorlib6System4Type29GetGenericTypeDefinition_implEP20Il2CppReflectionType
tdb:__ZN27GenericSlowGarbageCollector16ProcessReferenceEi
DRf:_Dictionary_2_get_Item_m1749337561_gshared
fGe:_LifetimeServices_set_SponsorshipTimeout_m2538334028
u0h:_Array_Sort_TisCustomAttributeTypedArgument_t2723150157_m3248988944_gshared
Hwj:_fopen
_ma:__ZN20GpuProgramParameters15AddTextureParamEPKciib16TextureDimensionP16PropertyNamesSet
zLc:__ZN20TextRenderingPrivate8FontImplD2Ev
zV:__ZN19CloudServiceHandler8SaveFileERKN4core12basic_stringIcNS0_20StringStorageDefaultIcEEEEPKvj
l9i:__ZN6il2cpp2vm9Exception5RaiseEib
lmj:_GC_init
sQd:_MonoType_IsPointerImpl_m3340652279
dFj:_glFramebufferTexture2D__wrapper
_sj:__ZN6il2cpp6icalls8mscorlib6System7Runtime8Remoting7Proxies9RealProxy27InternalGetTransparentProxyEP12Il2CppObjectP12Il2CppString
vhj:__ZN6il2cpp2vm6Method10IsInflatedEPK10MethodInfo
Klj:__ZNK6il2cpp8metadata14Il2CppTypeLessclEPK10Il2CppTypeS4_
Hmj:_GC_remove_header
lWa:__ZL17InstanceBufferJobIN10Instancing14RenderLoopArgsEEvP21InstanceBufferJobDataIT_E
Hfb:__ZNSt3__26vectorIi13stl_allocatorIiL18MemLabelIdentifier13ELi16EEE8__appendEj
YVe:_ReflectionMethodsCache__ctor_m3826472948
UKe:_ReturnMessage_get_OutArgs_m1641976511
XHe:_SynchronizationAttribute_IsContextOK_m324067792
hfj:__ZN6il2cpp2vm6Object6IsInstEP12Il2CppObjectP11Il2CppClass
bxb:__Z19TransferField_ArrayI19StreamedBinaryWriteILb0EE27Converter_UnityEngineObjectEvRK23StaticTransferFieldInfoR31RuntimeSerializationCommandInfoRT0_
OVi:_RemoteSettings_CallOnUpdate_m2821567430
bAe:_Enumerator_Dispose_m3503748991_gshared
Vua:__Z16GetMSAALevelDesc9MSAALevel
HCf:_Environment_GetMachineConfigPath_m43519138
doe:_InternalEnumerator_1_System_Collections_IEnumerator_get_Current_m4203917072_gshared
oyf:_Decimal_decimal2Int64_m2102545213
lMb:__ZN8Renderer27EnsureTransformInfoUpToDateEv
OJj:_emscripten_glFrontFace__wrapper
rDe:_Dictionary_2_System_Collections_ICollection_CopyTo_m534867526_gshared
La:invoke_fiffi
G0:__ZN14SerializedFile14SerializedType8ReadTypeILb1EEEbibRPKhS3_Pi
pgi:_InvokableCall_1_Invoke_m1160628299_gshared
x_c:_ExecuteEvents_get_pointerEnterHandler_m1185301724
Rji:_InternalAsyncResult__ctor_m2194591319
NYa:__ZN8Playable7SetTimeEd
laa:__ZN13RuntimeStaticI12GraphicsCapsLb0EE16StaticInitializeEPv
U8a:__ZN9Texture3D17UploadToGfxDeviceEv
smd:_ArgumentException__ctor_m3761792013
AEc:_tt_cmap2_validate
DAc:_cff_cmap_unicode_done
bEe:_ActivationServices_CreateProxyFromAttributes_m3864561181
VFb:__ZN9Scripting20SendScriptingMessageER10GameObjectPKc18ScriptingObjectPtr
RPg:__Z67RuntimeInvoker_Void_t1185182177_Scene_t2348375561_Int32_t2950945753PFvvEPK10MethodInfoPvPS4_
tGb:__Z26IsSplashScreenFadeCompletev
rfc:__Z42Register_UnityEngine_Camera_get_clearFlagsv
MTi:__ZNSt3__26__treeIP11Il2CppClassNS_4lessIS2_EENS_9allocatorIS2_EEED2Ev
M_e:_Slider_FindSelectableOnRight_m3576909722
uZb:__ZN13RenderManager27UpdatePreviousFrameMatricesEv
myb:__Z35Transfer_Blittable_FixedBufferFieldI18StreamedBinaryReadILb1EExEvRK29SerializationCommandArgumentsR31RuntimeSerializationCommandInfo
M2h:_Array_InternalArray__get_Item_TisByte_t1134296376_m3566214066_gshared
uba:__Z22SetManagerPtrInContextiP6Object
qeb:__ZN14PlayerSettings8TransferI19StreamedBinaryWriteILb0EEEEvRT_
ztc:__Z18Transfer_BlittableI8JSONReadLb0E10ColorRGBAfEvRK29SerializationCommandArgumentsR31RuntimeSerializationCommandInfo
NDf:_NumberFormatInfo_set_NumberNegativePattern_m1999304795
t7g:_List_1_System_Collections_IList_Insert_m2238786360_gshared
JXd:_GenericTypeParameterBuilder_IsSubclassOf_m2266644074
RPi:__ZN15dense_hashtableINSt3__24pairIK10KeyWrapperIN6il2cpp5utils13dynamic_arrayIPK10Il2CppTypeLj4EEEEPFvvEEESA_NS3_8metadata19Il2CppSignatureHashEN14dense_hash_mapISA_SD_SG_NSA_14EqualsComparerINSF_22Il2CppSignatureCompareEEENS0_9allocatorISE_EEE9SelectKeyESK_SM_E14squash_deletedEv
kEf:_CompareInfo_ToString_m2684143229
Mda:__ZN15DirectorManagerD2Ev
l_e:_Slider_get_maxValue_m414465787
$Zi:__ZN15dense_hashtableINSt3__24pairIK10KeyWrapperINS1_IPK10MethodInfoP11Il2CppClassEEEjEES9_17ReflectionMapHashIS8_EN14dense_hash_mapIS9_jSD_NS9_14EqualsComparerINS0_8equal_toIS8_EEEENS0_9allocatorISB_EEE9SelectKeyESI_SK_E9copy_fromERKSN_j
Fef:_X509CertificateEnumerator_System_Collections_IEnumerator_get_Current_m4218613192
HTc:__ZN11UnityEngine15PlatformWrapper12GetInfoFlagsEv
GWe:_Scrollbar_set_direction_m473480640
U7f:_UTF32Encoding__ctor_m1635603592
Cgg:_UInt64_Equals_m1879425698_AdjustorThunk
jui:_Uri_IsPredefinedScheme_m1188665625
dXc:__ZN18UnityConnectClient13StaticDestroyEv
Z9i:__ZN6il2cpp6icalls8mscorlib6System13Globalization11CultureInfo45construct_internal_locale_from_current_localeEP17Il2CppCultureInfo
zPf:_Array_InternalArray__ICollection_CopyTo_TisUIVertex_t4057497605_m487823430_gshared
Waf:_ServicePointManager_get_CheckCertificateRevocationList_m1645465614
JVi:_SessionStateChanged_Invoke_m1365949269
iGa:__ZN15TextureTFMethod16BindForRenderingEj
JQh:__ZL49Canvas_t3310196443_CustomAttributesCacheGeneratorP21CustomAttributesCache
dLe:_SoapMethodAttribute_SetReflectionObject_m503748123
EGf:_Guid_Equals_m3683678873_AdjustorThunk
Xbj:__ZN15dense_hashtableINSt3__24pairIK10KeyWrapperINS1_IPKcS4_EEEiEES6_24NamespaceAndNamePairHashN14dense_hash_mapIS6_iS9_NS6_14EqualsComparerI26NamespaceAndNamePairEqualsEENS0_9allocatorIS8_EEE9SelectKeyESD_SF_E4findERS7_
oJc:__ZN20TextRenderingPrivate8FontImpl13CharacterInfo8TransferI19StreamedBinaryWriteILb0EEEEvRT_
bSi:__ZN6il2cpp2os19SocketHandleWrapper7ReleaseEv
lig:_BeforeRenderHelper_Invoke_m50072094
yJe:_MethodCall_get_MethodBase_m550047245
edb:__ZNSt3__27__sort4IRNS_6__lessINS_4pairIPKN5Unity4TypeE7Hash128EES8_EEPS8_EEjT0_SC_SC_SC_T_
Wac:__Z33AllocExtractMeshIndicesFromScriptRK4Meshib
noa:__ZNK11NamedObject22GetTypeVirtualInternalEv
$ti:_Uri_EscapeString_m2061933484
jpe:_InternalEnumerator_1_System_Collections_IEnumerator_get_Current_m1096730143_gshared
CAd:_Convert_ToDecimal_m3815908452
vkg:_Color_op_Equality_m1112359053
lkg:_Color__ctor_m286683560_AdjustorThunk
JKd:_DelegatePInvokeWrapper_ReadDelegate_t714865915
gwd:_CollectionBase_Clear_m1509125218
znc:__ZN11IMGUIModule21QueryGUIDisplayTargetE17ScriptingClassPtr
TOi:__ZNSt3__27__sort4IRN6il2cpp5utils11collections13ArrayValueMapIPK10Il2CppType17Il2CppInteropData26InteropDataToTypeConverterNS1_8metadata14Il2CppTypeLessENSA_26Il2CppTypeEqualityComparerEE12SortComparerEPS8_EEjT0_SH_SH_SH_T_
hAj:dynCall_vidi
BMd:_StreamReader_ReadToEnd_m371831293
Jpg:_Mathf_RoundToInt_m1874334613
uPd:_MonoCustomAttrs_GetCustomAttributes_m1775925192
zgc:__Z42NoAllocHelpers_CUSTOM_ExtractArrayFromListP12Il2CppObject
DDj:_glVertexAttribPointer__wrapper
xhd:_HMAC_Create_m2148924157
Uzj:___udivdi3
QCf:_Exception__ctor_m1406832249
E0f:_Enumerator_System_Collections_IEnumerator_get_Current_m2339378585_gshared
Gcc:__ZN11PlayerPrefs9SetStringERKN4core12basic_stringIcNS0_20StringStorageDefaultIcEEEES6_
zpj:__ZN6il2cpp6icalls8mscorlib6System8Delegate18SetMulticastInvokeEP14Il2CppDelegate
Qve:_Enumerator_VerifyCurrent_m2197239943_gshared
sT:__ZN11UnityEngine15CloudWebService20WebRequestRestClient5BeginEv
B6b:__ZN8Material12CleanupClassEv
Vwj:_fseek
rxc:__ZN16memory_pool_implILi40EE15AutoPoolWrapper10InitializeEPv
euf:_DateTimeFormatInfo_GetEraName_m3151483707
C7e:_PKCS12_AddCertificate_m3618696508
AM:__ZN20SoundChannelInstance11set3DSpreadEf
s_f:_HashSet_1_Init_m2976925848_gshared
er:__ZNSt3__26__sortIRN11UnityEngine9Animation11BindingSortEPNS_4pairINS2_14GenericBindingEPNS2_10BoundIndexEEEEEvT0_SB_T_
Qee:_HttpsClientStream_U3CHttpsClientStreamU3Em__0_m2058474197
lCd:_Convert_ToUInt32_m2215525276
geb:__ZN24GenerateTypeTreeTransfer32TransferSTLStyleArrayWithElementI16SplashScreenLogoEEvRT_17TransferMetaFlags
zYi:__ZN15dense_hashtableINSt3__24pairIK10KeyWrapperINS1_IPK9FieldInfoP11Il2CppClassEEEjEES9_17ReflectionMapHashIS8_EN14dense_hash_mapIS9_jSD_NS9_14EqualsComparerINS0_8equal_toIS8_EEEENS0_9allocatorISB_EEE9SelectKeyESI_SK_E6insertERKSB_
Cne:_InternalEnumerator_1_get_Current_m2680116177_gshared
XMi:__ZN14dense_hash_mapI10KeyWrapperIPKcEP11Il2CppClassN6il2cpp5utils11StringUtils12StringHasherIS2_EENS3_14EqualsComparerINS7_13VmStringUtils21CaseSensitiveComparerEEENSt3__29allocatorINSF_4pairIKS3_S5_EEEEEC2EjRKSA_RKSE_
Tca:__Z37InitializeIntermediateRendererManagerPv
M8i:__ZN6il2cpp2vm13LivenessState16AddProcessObjectEP12Il2CppObjectPS1_
Dqf:_String_IndexOfOrdinal_m962178384
yhd:_HMACMD5__ctor_m3129799368
YWd:_TypeBuilder_GetEvent_m2166527753
Jad:_Graphic_CrossFadeColor_m678806803
jaa:__ZN23DefaultMeshVertexFormatC2E17ShaderChannelMask
Hyb:__ZL26Transfer_SimpleNativeClassI18StreamedBinaryReadILb1EE8GradientLb1EEvRK29SerializationCommandArgumentsR31RuntimeSerializationCommandInfo
tJg:__Z102RuntimeInvoker_Int32_t2950945753_RuntimeObject_Int32_t2950945753_CharU26_t1697032762_SByte_t1669577662PFvvEPK10MethodInfoPvPS4_
JQd:_MonoType_get_Namespace_m2015358851
Jii:_IndexedSet_1_RemoveAt_m3002732320_gshared
Gxd:_HashKeys_CopyTo_m4219627824
aPe:_InputField_GetLineStartPosition_m2947412579
yua:__ZN7ApiGLES10InvalidateERK14GfxContextGLES
jpd:_Convert_ToType_m2406080310
Gai:_ReadOnlyCollection_1_IndexOf_m2659941036_gshared
_9h:_ReadOnlyCollection_1_System_Collections_IList_set_Item_m3570269385_gshared
tVh:__ZL85Graphic_t1660335611_CustomAttributesCacheGenerator_Graphic_OnPopulateMesh_m2916877004P21CustomAttributesCache
D7c:_DefaultControls_CreateToggle_m1236643913
k4e:_BitConverterLE_ToSingle_m1153793442
Hrj:__ZN6il2cpp2os5Mutex7TryLockEjb
WCd:_Int16_System_IConvertible_ToByte_m3161982419
X4:__Z20IsVectorBuiltinParamPKcPi
Jej:__ZN6il2cpp2vm5Field8GetFlagsEP9FieldInfo
hid:_MD5CryptoServiceProvider_HashFinal_m2625727830
q$h:_Array_qsort_TisRaycastResult_t3360306849_m3861320071_gshared
Yof:_Single_System_IConvertible_ToUInt32_m289030200
p7i:__ZN6il2cpp6icalls8mscorlib6System10ReflectionL16LoadResourceFileEP24Il2CppReflectionAssembly
GAf:_Double_System_IConvertible_ToDouble_m3692611612
i0:__Z13IsFileCreatedRKN4core12basic_stringIcNS_20StringStorageDefaultIcEEEE
K$e:_Text_OnPopulateMesh_m1525268284
UJd:_FileStream_FlushBuffer_m914568182
s4a:__ZN16LightmapSettings18TransferDeprecatedI14SafeBinaryReadEEvRT_
r7f:_StringBuilder_AppendFormat_m921870684
Fej:__ZN15dense_hashtableINSt3__24pairIK10KeyWrapperIP12Il2CppObjectEN6il2cpp2gc9CachedCCWEEES5_NS7_5utils11PointerHashIS3_EEN14dense_hash_mapIS5_S9_SD_NS5_14EqualsComparerINS0_8equal_toIS4_EEEENS0_9allocatorISA_EEE9SelectKeyESI_SK_E5eraseE30dense_hashtable_const_iteratorISA_S5_SD_SM_SI_SK_E
Jwd:_Hashtable__ctor_m1684344284
ry:__ZThn152_NK26AnimatorControllerPlayable41GetStateMachineBehaviourVectorDescriptionEv
Eld:_Activator_CheckAbstractType_m2015247896
ejf:_RSACryptoServiceProvider_ImportParameters_m614616705
K7:__GLOBAL__sub_I_runtime_camera_renderloops_1_cpp
Nde:_SslHandshakeHash_CreateSignature_m1634235041
Bye:_ShimEnumerator_get_Current_m3504536618_gshared
cUa:__ZN12FlareManager9AddCameraER6Camera
lYc:__ZN15UnityWebRequestD0Ev
LTe:_LayoutRebuilder_U3CRebuildU3Em__3_m523803689
rN:__ZN11AudioSource8TransferI14SafeBinaryReadEEvRT_
EJd:_FileNotFoundException__ctor_m2477162036
KVf:_EqualityComparer_1__cctor_m149356781_gshared
Pxf:_Decimal_System_IConvertible_ToDouble_m3125524987
ov:__ZN7mecanim9animation23TransformDeltasFromClipEiiiRKNS0_18ClipMuscleConstantERKNS0_12ClipBindingsERKNS_14ValueArrayMaskERN4math4trsXESC_SC_
uBb:__Z18Transfer_BlittableI18StreamedBinaryReadILb0EELb0E12PropertyNameEvRK29SerializationCommandArgumentsR31RuntimeSerializationCommandInfo
_zj:___divdi3
hma:__ZN9ShaderLab9IntShader26CreateFromSerializedShaderERKNS_16SerializedShaderERNSt3__26vectorI4PPtrI6ShaderENS4_9allocatorIS8_EEEEbPS7_
kpi:_Match_get_Empty_m2060287462
fnb:__ZN19ShaderPropertySheet16SetComputeBufferEN9ShaderLab16FastPropertyNameE15ComputeBufferIDNS_8SetFlagsE
rrg:_U3CInvokeMessageIdSubscribersU3Ec__AnonStorey0_U3CU3Em__0_m444206473
QRf:_Dictionary_2_ContainsValue_m256968015_gshared
Yij:__ZNK15dense_hashtableINSt3__24pairIK10KeyWrapperIPK19Il2CppGenericMethodEP10MethodInfoEES6_N6il2cpp8metadata23Il2CppGenericMethodHashEN14dense_hash_mapIS6_S9_SD_NS6_14EqualsComparerINSC_26Il2CppGenericMethodCompareEEENS0_9allocatorISA_EEE9SelectKeyESH_SJ_E5beginEv
eie:_ArrayReadOnlyList_1_get_Item_m1974867852_gshared
Ecd:_Image_AddQuad_m969836764
x0e:_MSCompatUnicodeTable_IsIgnorableNonSpacing_m47098938
Zih:_Collection_1_IsSynchronized_m2655903966_gshared
AFd:_Int32_System_IConvertible_ToSingle_m896140682_AdjustorThunk
sv:__ZN7mecanim21CreateFloatValueArrayEPKNS_18ValueArrayConstantERNS_6memory9AllocatorE
uWb:__ZL12CullGroupJobP20CullingGroupsJobDataj
dnj:_GC_remove_dangling_disappearing_links
jU:__ZN11UnityEngine15CloudWebService14RestDownloader9IsAbortedEv
Ay:__ZN7mecanim12statemachine28DestroyStateMachineWorkspaceEPNS0_21StateMachineWorkspaceERNS_6memory9AllocatorE
poc:__Z30GUIStyle_CUSTOM_SetDefaultFontP12Il2CppObject
zwe:_Enumerator_System_Collections_IDictionaryEnumerator_get_Key_m3435754782_AdjustorThunk
io:FUNCTION_TABLE_f
Wo:FUNCTION_TABLE_i
ksi:_AnchorInfo_get_Position_m1133366486
zMd:_StreamReader_FindNextEOL_m2574298119
Sfa:__ZN11TypeManager12RegisterTypeERK20TypeRegistrationDesc
Bn:FUNCTION_TABLE_v
jab:__ZNSt3__26vectorI17BlendShapeChannelNS_9allocatorIS1_EEE8__appendEj
Ep:__ZN18StreamedBinaryReadILb0EE21TransferSTLStyleArrayI13dynamic_arrayI8Vector3fLj4EEEEvRT_17TransferMetaFlags
KKb:__ZZ23InitPlayerLoopCallbacksvEN43PostLateUpdateUpdateAllRenderersRegistrator7ForwardEv
ghb:__ZN21LightProbeProxyVolume13GetRenderDataER27LightProbeProxyVolumeSample
CGe:_Context_get_ContextProperties_m3283598326
afh:_Collection_1_System_Collections_IList_set_Item_m4249768453_gshared
Tuj:_Keyboard_PlayRandomSound_m629210842
Mcb:__ZN11TimeManager8TransferI24GenerateTypeTreeTransferEEvRT_
gqc:__ZN8JSONRead8TransferItEEvRT_PKc17TransferMetaFlagsb
Rr:__ZNK11UnityEngine9Animation28GenericAnimationBindingCache10BindCustomERKNS0_14GenericBindingER9TransformRNS0_10BoundCurveE
RWi:__ZN6il2cpp2vm17TypeNameParseInfoC2ERKS1_
HVc:__ZN18UnityConnectClient17InitConnectClientEv
vvj:_memcmp
OCd:_GuidParser_ParseHexPrefix_m3148550086
nUc:__ZN11UnityEngine7Connect18ConnectSessionInfo8TransferER9JSONWrite
oQ:__Z74Register_UnityEngine_AudioListener_INTERNAL_CALL_ReadExtensionPropertyNamev
W_h:_Array_InternalArray__set_Item_TisHitInfo_t3229609740_m1576844560_gshared
bcb:__ZN9Scripting32GetCachedPtrFromScriptingWrapperE18ScriptingObjectPtr
mge:_SslClientStream_OnBeginNegotiateHandshake_m3734240069
jPc:__ZN2UI29ScheduleUIJobsForInstructionsERNS_7BatchesEjPKNS_13UIInstructionEfjjPNS_13CanvasJobDataE
ZK:__ZN5audio5mixer22CreateAudioMixerMemoryERKNS0_18AudioMixerConstantEPN4FMOD6SystemERN7mecanim6memory9AllocatorEib
wEb:__ZL65EmitSerializationCommandsForLinearCollectionOfManagedObjectsFieldRK31TransferFunctionScriptingTraitsRK23TransferArrayField_InfoR20SerializationCommandR32SerializationCommandQueueBuilderRP20AllowNameConversions
y2h:_LayoutGroup_SetProperty_TisInt32_t2950945753_m3911895589_gshared
eV:__ZN11UnityEngine15CloudWebService19SessionEventManager31SetupNextActiveSessionContainerEv
YCg:__Z121RuntimeInvoker_Void_t1185182177_Int32_t2950945753_Int32_t2950945753_Int32_t2950945753_SByte_t1669577662_SByte_t1669577662PFvvEPK10MethodInfoPvPS4_
AKg:__Z52RuntimeInvoker_Single_t1397266774_Single_t1397266774PFvvEPK10MethodInfoPvPS4_
wud:_FixedSizeArrayListWrapper_InsertRange_m1706982628
Ygg:_UIntPtr_ToString_m984583492_AdjustorThunk
mIb:__ZL20ShaderWarmupFuncImplP6ShaderiPN9ShaderLab4PassERK16ShaderKeywordSetP10DynamicVBOPvR17ShaderPassContext
kJb:__ZN13GfxDeviceGLESC2E10MemLabelId
wGi:_TextGenerationSettings_Equals_m3618607189
JOi:__ZN15dense_hashtableI10KeyWrapperIPK17Il2CppGenericInstES4_N6il2cpp8metadata21Il2CppGenericInstHashEN14dense_hash_setIS4_S7_NS4_14EqualsComparerINS6_24Il2CppGenericInstCompareEEENSt3__29allocatorIS4_EEE8IdentityESB_SE_E6insertERKS4_
QXi:__ZN15dense_hashtableINSt3__24pairIK10KeyWrapperINS1_IPK14Il2CppAssemblyP11Il2CppClassEEEjEES9_17ReflectionMapHashIS8_EN14dense_hash_mapIS9_jSD_NS9_14EqualsComparerINS0_8equal_toIS8_EEEENS0_9allocatorISB_EEE9SelectKeyESI_SK_E3endEv
pVc:__ZN11UnityEngine7Connect17DeviceStatusEventC2Ev
u9f:_NativeEventCalls_ResetEvent_internal_m885886540
LPd:_MonoEnumInfo_get_enum_info_m1661176095
Lvi:_GUIUtility_CheckOnGUI_m3924092168
yva:__ZN14DataBufferGLES12RecordUpdateEv
kke:_InternalEnumerator_1_get_Current_m1481634550_gshared
tKc:__ZN20TextRenderingPrivate15DynamicFontData28GetFaceForFontRefFromOSFontsERKNS_7FontRefE
ode:_Context_ClearKeyInfo_m1155154290
wtg:_Ray_GetPoint_m1852405345
mfj:__ZN6il2cpp2vm12GenericClass12SetupMethodsEP11Il2CppClass
amb:__ZNK20LocalFileSystemPosix18GetApplicationPathEv
d9g:_List_1_set_Item_m658432263_gshared
tEb:__ZN9Scripting30IsSystemCollectionsGenericListE17ScriptingClassPtr
a2:__ZN21ScalableBufferManager20GetHeightScaleFactorEv
FSf:_Dictionary_2_Add_m1279427033_gshared
EPc:__ZN2UI23InitializeCanvasManagerEv
xQa:__ZN10GameObject16CheckConsistencyEv
M1c:_PointerInputModule_GetMousePointerEventData_m4273240034
x4b:__ZN14RenderSettings15InitializeClassEv
K3c:_AspectRatioFitter_set_aspectMode_m4140288987
qgc:__Z46Register_UnityEngine_GameObject_get_activeSelfv
Cya:__ZL35stbir__resample_horizontal_upsampleP11stbir__infoPf
q0g:__Z82RuntimeInvoker_RuntimeObject_RaycastResult_t3360306849_RuntimeObject_RuntimeObjectPFvvEPK10MethodInfoPvPS4_
Rah:_Enumerator__ctor_m3419056812_AdjustorThunk
Npe:_InternalEnumerator_1_System_Collections_IEnumerator_get_Current_m1299775605_gshared
Qtb:__Z18Transfer_BlittableI24GenerateTypeTreeTransferLb0E10ColorRGBAfEvRK29SerializationCommandArgumentsR31RuntimeSerializationCommandInfo
bUf:_DefaultComparer_Equals_m1713730345_gshared
jOc:__ZN2UI16GetCanvasManagerEv
$ac:__ZN15GUIEventManager8PopEventER10InputEvent
Fgc:__Z31RectOffset_Get_Custom_PropRightP12Il2CppObject
JMc:__Z54Register_UnityEngine_TextGenerator_GetVerticesInternalv
xid:__Z3BoxP11Il2CppClassPv
Dog:_Input_get_touchSupported_m1480684970
Bbd:_GridLayoutGroup_SetLayoutVertical_m2106427802
Uqg:_MonoBehaviour_StartCoroutine_m3411253000
nGa:__ZN21UniformBufferTFMethodD2Ev
lpe:_InternalEnumerator_1_System_Collections_IEnumerator_get_Current_m1096730143_AdjustorThunk
fdc:__ZL34GetComponentsImplementationRecurseILb1ELi1ELi2EEbR10GameObjectbRK17CompareParametersRK39GetComponentsImplementation_ReturnValue
hza:__ZN6prcoreL12RemapGenericI15TexFormatRGB56515TexFormatRGB888EEvPKNS_9InnerInfoE
Wpj:__ZN6il2cpp5utils10MemoryPool9AddRegionEj
Qcf:_X509Certificate2__ctor_m3336405942
yad:_Graphic_get_workerMesh_m997382591
plc:__Z38PlayableHandle_CUSTOM_IsValid_InjectedP9HPlayable
Umd:_Array_System_Collections_IList_RemoveAt_m41405158
lyi:_SymmetricTransform_CBC_m3648398454
B5c:_CanvasUpdateRegistry_IsRebuildingLayout_m3530790142
KQc:__Z41CanvasGroup_Get_Custom_PropBlocksRaycastsP12Il2CppObject
Tkj:__ZN6il2cpp2os11Environment17GetProcessorCountEv
Kha:__ZNSt3__26vectorIN9ShaderLab26SerializedShaderDependencyENS_9allocatorIS2_EEE8__appendEj
Xaa:__ZN32TransformHierarchyChangeDispatch26DispatchSelfAndAllChildrenE15TransformAccessNS_12InterestTypeE
uQ:__Z46Register_UnityEngine_AudioSource_get_isPlayingv
k$c:_EventSystem_OnEnable_m3237278246
eca:__ZN13RuntimeStaticI22VirtualJoystickManagerLb0EE13StaticDestroyEPv
Pgf:_Interpreter_Balance_m1978770534
xH:__ZN13AudioListener12ApplyFiltersEv
l9g:_List_1_System_Collections_IList_Contains_m353431064_gshared
vBi:_AudioConfigurationChangeHandler_BeginInvoke_m4104069447
Drj:__ZN6il2cpp8metadata27Il2CppGenericContextCompare7CompareEPK20Il2CppGenericContextS4_
hBj:dynCall_viiii
gEf:_CompareInfo_IsPrefix_m796715920
IKi:__ZNK15dense_hashtableINSt3__24pairIK10KeyWrapperIPK22Il2CppGenericParameterEP11Il2CppClassEES6_N6il2cpp5utils11PointerHashIS4_EEN14dense_hash_mapIS6_S9_SE_NS6_14EqualsComparerINS0_8equal_toIS5_EEEENS0_9allocatorISA_EEE9SelectKeyESJ_SL_E23find_position_with_hashERS7_j
V6d:_PrimalityTest_Invoke_m2948246884
zMb:__Z11CopyTextureP7TextureiiS0_ii
Aie:_ArrayReadOnlyList_1_Contains_m2459654648_gshared
bSh:__ZL65EventTrigger_t1076084509_CustomAttributesCacheGenerator_delegatesP21CustomAttributesCache
VWi:__ZNSt3__214__split_bufferIN6il2cpp2vm17TypeNameParseInfoERNS_9allocatorIS3_EEED2Ev
o8g:_List_1_System_Collections_IList_Contains_m3717811284_gshared
A0d:_MonoEvent_get_Attributes_m3048829315
Zub:__Z22TransferField_NonArrayI24GenerateTypeTreeTransfer27Converter_SimpleNativeClassI8GUIStyleEEvRK23StaticTransferFieldInfoR31RuntimeSerializationCommandInfoRT0_
Wea:__ZN15DirectorManager14ConnectionPool16GrowEmptyBucketsEv
Pvd:_CaseInsensitiveHashCodeProvider_AreEqual_m3534448780
UY:__ZN17PersistentManager32CopyToAwakeFromLoadQueueInternalER18AwakeFromLoadQueue
h7b:__ZN10GameObject15InitializeClassEv
sMg:__Z104RuntimeInvoker_Boolean_t97287965_Int32_t2950945753_Int64U5BU5DU26_t194432655_StringU5BU5DU26_t2154486980PFvvEPK10MethodInfoPvPS4_
vLg:__Z106RuntimeInvoker_RuntimeObject_Int16_t2552820387_RuntimeObject_BooleanU26_t4125257963_BooleanU26_t4125257963PFvvEPK10MethodInfoPvPS4_
fMb:__ZNK6Camera16SetActiveVRUsageEv
AWe:_Scrollbar_set_handleRect_m1170237786
duc:__ZL26Transfer_SimpleNativeClassI8JSONRead8GradientLb1EEvRK29SerializationCommandArgumentsR31RuntimeSerializationCommandInfo
Yvj:_open
soi:_X509CrlEntry_get_SerialNumber_m3627212772
S6i:__ZN6il2cpp6icalls8mscorlib6System5Array5CloneEP11Il2CppArray
BZb:__Z30GetPlayerShouldRunInBackgroundv
WPc:__Z13RegisterClassIN2UI6CanvasEEvv
Spg:_Mathf__cctor_m1175545152
H0d:_MonoEvent_IsDefined_m10931749
$8e:_NameValueCollection_AsSingleString_m3776180906
bza:__ZN6prcoreL12RemapGenericI11TexFormatI815TexFormatRGB565EEvPKNS_9InnerInfoE
vFd:_Int32_System_IConvertible_ToInt64_m3520470966
Fua:__ZNK13TranslateGLES17FramebufferTargetEN2gl17FramebufferTargetE
Rhj:__ZL11on_gc_event11GCEventType
fqe:_InternalEnumerator_1_System_Collections_IEnumerator_get_Current_m1612699335_gshared
gce:_TlsServerHello__ctor_m3887266572
_kg:_Coroutine_ReleaseCoroutine_m809189848
rFj:b62
cFj:b61
eEj:b60
IGj:b67
HGj:b66
wFj:b65
KGj:b69
JGj:b68
Voi:_Enumerator_get_Current_m359737019
vTa:__ZNSt3__26__treeINS_12__value_typeIi17ShadowCachingDataEENS_19__map_value_compareIiS3_NS_4lessIiEELb1EEE13stl_allocatorIS3_L18MemLabelIdentifier66ELi16EEE7destroyEPNS_11__tree_nodeIS3_PvEE
cpd:_BitConverter_ToInt64_m349022421
qbc:__Z9SetIIMGUIP6IIMGUI
z4g:_List_1_System_Collections_IList_Add_m1142950911_gshared
gEc:_tt_cmap10_get_info
VGb:__Z28SetupPixelCorrectCoordinatesi
l9b:__ZNSt3__218__insertion_sort_3IRN10vector_mapIiiNS_4lessIiEE13stl_allocatorINS_4pairIiiEEL18MemLabelIdentifier1ELi16EEE13value_compareEPS6_EEvT0_SD_T_
_ua:__Z5SplitRKN4core12basic_stringIcNS_20StringStorageDefaultIcEEEEcRNSt3__26vectorIS3_NS6_9allocatorIS3_EEEEi
qnb:__ZN11MonoManager23VirtualRedirectTransferER24GenerateTypeTreeTransfer
Myi:_AesTransform__ctor_m3143546745
HIf:_Array_InternalArray__ICollection_Remove_TisRuntimeObject_m2110193223_gshared
OPh:__ZL64EventType_t3528516131_CustomAttributesCacheGenerator_scrollWheelP21CustomAttributesCache
Dqg:_Mesh_SetTangents_m1615111656
M8b:__ZN13PlayableGraph16DestroyRecursiveEP8Playable
i9i:__ZN6il2cpp2vm9Exception20GetArgumentExceptionERKNS_5utils10StringViewIDsEES6_
dah:_Enumerator_System_Collections_IEnumerator_Reset_m1487823313_AdjustorThunk
QJe:_MethodCallDictionary__cctor_m2213329406
IH:__ZN12AudioManagerD0Ev
nPe:_InputField_set_textComponent_m2547304131
Tb:invoke_viiififii
a1e:_SortKeyBuffer_Initialize_m3786111493
Sva:__ZN10Matrix3x3faSERK10Matrix4x4f
SZh:__ZL58IVertexModifier_t3404627876_CustomAttributesCacheGeneratorP21CustomAttributesCache
vdb:__ZNK22GenericPropertyBinding13SetFloatValueERKN11UnityEngine9Animation10BoundCurveEf
F5f:_Encoding__cctor_m1936558127
o6g:_List_1__ctor_m163821521_gshared
$hd:_MD5_Create_m3289886172
Ysg:_QualitySettings_set_vSyncCount_m3131636076
Zlf:_X509Certificate_get_Subject_m2638144878
QKc:_raccess_guess_darwin_ufs_export
Fig:_AsyncOperation_Finalize_m1841265672
dKb:__ZN11TypeManager18InitializeAllTypesEv
WOe:_InputField_MarkGeometryAsDirty_m817808086
iTe:_LayoutGroup_get_isRootLayoutGroup_m1082645254
DF:__ZN9AudioClipD0Ev
d3i:_il2cpp_class_from_name
uVb:__ZN13dynamic_arrayI11ActiveLightLj4EE26emplace_back_uninitializedEv
TVe:_RectMask2D_OnDisable_m809267607
eAe:_Enumerator_MoveNext_m2602845255_AdjustorThunk
Hah:_Queue_1__ctor_m1971992302_gshared
fx:__ZN27AnimationLayerMixerPlayable26ProcessAnimationLayerBeginEP35AnimationPlayableEvaluationConstantP32AnimationPlayableEvaluationInputP33AnimationPlayableEvaluationOutput
u2b:__Z13RegisterClassI8GUILayerEvv
E0b:__ZN25ThreadsafeLinearAllocatorC2EiiPKc
gqg:_Mesh_GetIndicesImpl_m3233954035
fQd:_MonoType_GetEvent_m28975240
NCa:__ZN14GfxContextGLES11MakeCurrentER7ApiGLESN2gl13ContextHandleE
L_h:_Array_InternalArray__set_Item_TisUInt16_t2177724958_m1951465847_gshared
qKd:_MonoIO_Write_m3999708352
wCj:dynCall_viffffi
DOf:_Array_InternalArray__ICollection_CopyTo_TisChar_t3634460470_m3599063464_gshared
t8f:_UTF7Encoding_InternalGetChars_m2722395139
Iuf:_DateTime_get_Today_m2788644320
jIb:__ZN16GraphicsSettings22WarmupPreloadedShadersEv
XRc:__Z34Canvas_Set_Custom_PropSortingOrderP12Il2CppObjecti
Fed:_SByte_System_IConvertible_ToSingle_m1083054891
Qoi:_CostDelegate_Invoke_m898648402
m8f:_UTF7Encoding_Equals_m227704363
fmg:_DisplaysUpdatedDelegate_Invoke_m3203573844
mCb:__ZN18StreamedBinaryReadILb0EE8TransferI13dynamic_arrayI12PropertyNameLj4EEEEvRT_PKc17TransferMetaFlags
Ama:__ZN9ShaderLab4Pass6RetainEv
c5e:_KeyPairPersistence_get_ContainerName_m4274536094
Wv:__ZN7mecanim9animation22CopyAnimationNodeStateEPKNS0_18AnimationNodeStateEPS1_bbRKNS_6bitsetILj83EEE
pcb:__Z10AddGUIAxesR13dynamic_arrayI9InputAxisLj4EE
ab:invoke_iiiiiiffiiiiiiiiiffffiii
xug:_Rect_op_Equality_m3986168348
xxe:_Enumerator_System_Collections_IDictionaryEnumerator_get_Key_m4039922590_AdjustorThunk
lNc:__ZN2UI6Canvas8TransferI14SafeBinaryReadEEvRT_
aZi:__ZN6il2cpp2gc19AppendOnlyGCHashMapIPK10Il2CppTypeP20Il2CppReflectionTypeNS_8metadata14Il2CppTypeHashENS7_26Il2CppTypeEqualityComparerEE3AddERKS4_S6_
mR:__ZN11UnityEngine15CloudWebService17CloudJobScheduler11ScheduleJobEPFvPvES2_
y1e:_SimpleCollator_IsSuffix_m1291687763
vS:__ZN11UnityEngine15CloudWebService17CloudServiceEvent12ToJsonStringER9JSONWrite
Gbe:_TlsClientHello__ctor_m1986768336
Jca:__ZNK18VertexChannelsInfoltERKS_
SNg:__Z89RuntimeInvoker_Boolean_t97287965_Int32_t2950945753_Int32U26_t1369213839_Int32_t2950945753PFvvEPK10MethodInfoPvPS4_
Qbc:__Z18SetTargetFrameRatei
Erd:_Char_System_IConvertible_ToType_m4138905176_AdjustorThunk
cqc:__ZN9JSONWrite8TransferIfEEvRT_PKc17TransferMetaFlags
bxf:_DBNull_System_IConvertible_ToUInt16_m643477279
VOa:__ZN10MemoryFileD0Ev
Wcc:__ZN10MonoScript27InitializeAndRegisterScriptERKN4core12basic_stringIcNS0_20StringStorageDefaultIcEEEES6_S6_S6_b
dhj:__ZN6il2cpp2os10ThreadImpl22SetNativeThreadCleanupEPFvPvE
lwf:_DateTimeOffset__cctor_m3610253033
IDf:_NumberFormatInfo_get_InvariantInfo_m349577018
jrd:_Byte_CompareTo_m4285128861_AdjustorThunk
$Fe:_ConfigHandler_ExtractAssembly_m2143791058
qdj:__ZN6il2cpp8metadataL24RecursiveGenericDepthForEPK17Il2CppGenericInst
Fyg:_Transform_GetChild_m1092972975
Qpb:__ZN13GUIStyleState8TransferI14SafeBinaryReadEEvRT_
Md:_glDrawArrays
sBi:_AudioSource_get_clip_m1234340632
G3d:_ResourceCacheItem_t51292791_marshal_pinvoke_back
RD:__ZN23AnimatedPropertyBuilder5BuildEP13AnimationClip18ScriptingObjectPtr
zab:__ZN14BlendShapeData8TransferI18StreamedBinaryReadILb0EEEEvRT_
TFc:_Round_To_Grid
KEc:_UNITY_FT_Stream_Close
C$c:_EventTrigger_OnPointerClick_m1385968891
Tfg:_UInt32_ToString_m4293943134_AdjustorThunk
Rvg:_Renderer_get_sortingLayerID_m3902855301
Vhf:_Interval_CompareTo_m3282557545_AdjustorThunk
Bue:_Comparer_1__cctor_m1018589532_gshared
hMg:__Z54RuntimeInvoker_TimeSpan_t881159249_TimeSpan_t881159249PFvvEPK10MethodInfoPvPS4_
pga:__ZL20FormatOrderedProcessPKcP17FormatOrderedDataPc
cPf:_Array_InternalArray__ICollection_CopyTo_TisResourceCacheItem_t51292791_m766230259_gshared
jsf:_Decoder_set_Fallback_m3834517714
Nfc:__Z35DebugLogHandler_CUSTOM_Internal_Log7LogTypeP12Il2CppStringP12Il2CppObject
pca:__ZNSt3__26__treeINS_12__value_typeI18VertexChannelsInfoP16MeshVertexFormatEENS_19__map_value_compareIS2_S5_NS_4lessIS2_EELb1EEE13stl_allocatorIS5_L18MemLabelIdentifier17ELi16EEE7destroyEPNS_11__tree_nodeIS5_PvEE
vYh:__ZL76CanvasScaler_t2767979955_CustomAttributesCacheGenerator_m_MatchWidthOrHeightP21CustomAttributesCache
pFj:_emscripten_glShaderBinary__wrapper
WBa:__ZL17ProgramUniform3ivPK7ApiGLESjiihPKv
ktd:_ArrayList_Shift_m395607654
Dqa:__ZN9GfxDevice25GetBackBufferColorSurfaceEv
mPa:__ZN25SingleBlockMemoryFileData9SetLengthEy
y9b:__Z29AwakeAndActivateClonedObjectsPP6ObjectRK10vector_mapIiiNSt3__24lessIiEE13stl_allocatorINS3_4pairIiiEEL18MemLabelIdentifier1ELi16EEE
R1i:__ZN15dense_hashtableINSt3__24pairIK10KeyWrapperINS1_IPK10MethodInfoP11Il2CppClassEEEjEES9_17ReflectionMapHashIS8_EN14dense_hash_mapIS9_jSD_NS9_14EqualsComparerINS0_8equal_toIS8_EEEENS0_9allocatorISB_EEE9SelectKeyESI_SK_E14squash_deletedEv
I4e:_KeyGeneratedEventHandler_Invoke_m4131555809
r1b:__Z13RegisterClassI6ShaderEvv
Grf:_String_CharCopyReverse_m1548661297
xZc:__ZN13RuntimeStaticI11WindManagerLb0EE13StaticDestroyEPv
xrc:__Z18Transfer_BlittableI9JSONWriteLb1EaEvRK29SerializationCommandArgumentsR31RuntimeSerializationCommandInfo
M1i:__ZN13Il2CppHashMapINSt3__24pairIPK10MethodInfoP11Il2CppClassEEj17ReflectionMapHashIS7_ENS0_8equal_toIS7_EENS0_9allocatorINS1_IK10KeyWrapperIS7_EjEEEEEC2EjRKS9_RKSB_
VPb:__ZN11HaloManager11HasAnyHalosEPK11CullResults
H8a:__ZN9Texture3D23VirtualRedirectTransferER19StreamedBinaryWriteILb0EE
Anj:_GC_reclaim_block
bP:__Z13RegisterClassI10SampleClipEvv
cMg:__Z81RuntimeInvoker_Void_t1185182177_Int32_t2950945753_Int32_t2950945753_RuntimeObjectPFvvEPK10MethodInfoPvPS4_
LSb:__ZNK23ForwardShaderRenderLoop18RenderObjectSorterILb1EEclERK21ForwardRenderPassDataS4_
Fvd:_CaseInsensitiveComparer__ctor_m1508720200
nQi:__ZN15dense_hashtableI10KeyWrapperIPK19Il2CppGenericMethodES4_N6il2cpp8metadata23Il2CppGenericMethodHashEN14dense_hash_setIS4_S7_NS4_14EqualsComparerINS6_26Il2CppGenericMethodCompareEEENSt3__29allocatorIS4_EEE8IdentityESB_SE_E12maybe_shrinkEv
hHa:__ZN10BufferGLES10BeginWriteEjj
lQi:__ZNK15dense_hashtableI10KeyWrapperIPK19Il2CppGenericMethodES4_N6il2cpp8metadata23Il2CppGenericMethodHashEN14dense_hash_setIS4_S7_NS4_14EqualsComparerINS6_26Il2CppGenericMethodCompareEEENSt3__29allocatorIS4_EEE8IdentityESB_SE_E12test_deletedEj
eB:__ZN7mecanim12statemachine18StateMachineMemory8TransferI9BlobWriteEEvRT_
KPa:__ZN20ArchiveStorageReader10InitializeER15FileSystemEntryyb
x4i:__GLOBAL__sub_I_ArrayMetadata_cpp
gHa:__ZN7ApiGLES11FlushBufferEjN2gl12BufferTargetEll
Mqb:__ZN14SafeBinaryRead21TransferSTLStyleArrayI13dynamic_arrayI8BitFieldLj4EEEEvRT_17TransferMetaFlags
uDa:__ZN12_GLOBAL__N_127PrepareReadback_ResolveMSAAER18GfxFramebufferGLESR7ApiGLESP17RenderSurfaceGLESS5_
b6b:__ZNK24RendererAnimationBinding9BindValueER6ObjectRKN11UnityEngine9Animation14GenericBindingERNS3_10BoundCurveE
xZd:_TypeBuilder_has_ctor_method_m2987175843
Me:_glBindBuffer
ZBb:__ZN8GUIStyle8TransferI18StreamedBinaryReadILb0EEEEvRT_
mme:_InternalEnumerator_1_get_Current_m3500427238_gshared
sda:__ZNSt3__213__stable_sortIRN10vector_mapIijNS_4lessIiEENS_9allocatorINS_4pairIijEEEEE13value_compareENS_11__wrap_iterIPS6_EEEEvT0_SE_T_NS_15iterator_traitsISE_E15difference_typeEPNSH_10value_typeEi
oeb:__ZN10VRSettings8Daydream8TransferI18StreamedBinaryReadILb0EEEEvRT_
jXa:__ZNSt3__218__insertion_sort_3IRNS_6__lessIN4core12basic_stringIcNS2_20StringStorageDefaultIcEEEES6_EEPS6_EEvT0_SA_T_
DBe:_ValueCollection_System_Collections_Generic_ICollectionU3CTValueU3E_Remove_m1748672125_gshared
ivj:_isupper
V$a:__ZNSt3__26__treeINS_12__value_typeIN9ShaderLab16FastPropertyNameEN18UnityPropertySheet11UnityTexEnvEEENS_19__map_value_compareIS3_S6_NS_4lessIS3_EELb1EEENS_9allocatorIS6_EEE7destroyEPNS_11__tree_nodeIS6_PvEE
x6h:_ReadOnlyCollection_1_System_Collections_IList_Clear_m108858531_gshared
wHg:__Z102RuntimeInvoker_RuntimeObject_Int32_t2950945753_RuntimeObject_RuntimeObject_RuntimeObject_RuntimeObjectPFvvEPK10MethodInfoPvPS4_
Nxi:_GUIUtility_set_guiIsExiting_m1558910088
Bbe:_Context_Clear_m2678836033
oWd:_DerivedType_IsDefined_m3906894566
ARi:__ZN6il2cpp2vm13MetadataCache24GetExportedTypeFromIndexEi
eYg:__Z54RuntimeInvoker_Void_t1185182177_RaycastHit_t1056001966PFvvEPK10MethodInfoPvPS4_
Fpc:__ZN5Unity9rapidjson6WriterI16TempBufferWriterNS0_4UTF8IcEES4_13JSONAllocatorE9WriteUintEj
Nxj:_getuid
YD:__ZN7mecanim5human8BoneNameEj
Z2b:__Z13RegisterClassI10MonoScriptEvv
_pg:_Matrix4x4_GetColumn_m461504848_AdjustorThunk
vDd:_Int16_System_IConvertible_ToUInt64_m134975563_AdjustorThunk
hJc:__ZN20TextRenderingPrivate8FontImpl8TransferI18StreamedBinaryReadILb0EEEEvRT_
QYe:_ScrollRect_UpdateScrollbarVisibility_m4226977273
hTi:__ZN6il2cpp6icalls8mscorlib6System8MonoType22get_IsGenericParameterEP20Il2CppReflectionType
Du:__ZN7mecanim5human14HumanPoseClearERNS0_9HumanPoseE
N6e:_SymmetricTransform_TransformFinalBlock_m4059448527
eCd:_Convert_ToUInt16_m3216249716
r0a:__ZN18StreamedBinaryReadILb0EE19TransferSTLStyleMapINSt3__23mapIN9ShaderLab16FastPropertyNameE10ColorRGBAfNS2_4lessIS5_EENS2_9allocatorINS2_4pairIKS5_S6_EEEEEEEEvRT_17TransferMetaFlags
Dta:__ZN13GfxDeviceGLES24DrawBufferRangesPlatformEP9GfxBufferiPK18VertexStreamSourceiPK16DrawBuffersRangeiP17VertexDeclaration17ShaderChannelMaskjb
Sah:_Enumerator_System_Collections_IEnumerator_Reset_m4269083576_gshared
kLe:_SoapServices_EncodeNs_m635167772
tZb:__ZN13RenderManager28AreCamerasUsingMotionVectorsEv
uca:__Z25InitializeLODGroupManagerPv
$oi:_Mark_get_IsDefined_m2539660708
Vsa:__ZN13GfxDeviceGLES12EndStereoEyeE15StereoscopicEye
Oed:_SByte_System_IConvertible_ToUInt64_m4151910932_AdjustorThunk
UMb:__ZNK12ImageFilters28ApplyAfterTransparentFiltersEv
Vng:_GameObject__ctor_m3707688467
pee:_HandshakeMessage_Compare_m2214647946
dVc:__ZN11UnityEngine7Connect15AppRunningEvent12ToJsonStringER9JSONWrite
W0a:__ZN19ShaderPropertySheet5ClearEb
Pif:_RSA_Create_m4065275734
VEf:_CultureInfo_GetCultureInfo_m630276874
sNb:__ZNK6Camera11GetPositionEv
_s:__ZN8Animator19CreatePlayableGraphEv
T$c:_ExecuteEvents_Execute_m3952332304
XIj:_emscripten_glClearDepth__wrapper
Dmb:__ZNK16MemoryFileSystem8FilenameERK13FileEntryData
Qf:_glUniform1fv
Uf:_JS_FileSystem_Sync
wEa:__ZNSt3__26__treeINS_12__value_typeI21GLESRenderTargetSetupN2gl6HandleILNS3_10ObjectTypeE9EEEEENS_19__map_value_compareIS2_S7_NS_4lessIS2_EELb1EEENS_9allocatorIS7_EEE7destroyEPNS_11__tree_nodeIS7_PvEE
x5e:_KeyPairPersistence__IsUserProtected_m438961964
sxa:__ZN4crnd11crnd_deleteINS_13prefix_coding14decoder_tablesEEEvPT_
Cwe:_Enumerator_System_Collections_IDictionaryEnumerator_get_Value_m512771145_AdjustorThunk
Zqf:_String_Replace_m1273907647
WLe:_RealProxy_InternalGetProxyType_m2154819545
yDa:__ZN4gles15BlitFramebufferERNS_23BlitFramebufferDrawQuadER9GfxDeviceii9TextureIDiiiiiiii
GRd:_NumberFormatter_NumberToString_m827252518
Sf:__emscripten_sample_gamepad_data
l1b:__Z22DelayedDestroyCallbackP6ObjectPv
emi:_PKCS12_set_Password_m4088935795
yFg:__Z96RuntimeInvoker_Void_t1185182177_SByte_t1669577662_ByteU5BU5DU26_t4057885439_Int32U26_t1369213839PFvvEPK10MethodInfoPvPS4_
JAg:__Z78RuntimeInvoker_Boolean_t97287965_RuntimeObject_RuntimeObject_SByte_t1669577662PFvvEPK10MethodInfoPvPS4_
Fjg:_Camera_get_nearClipPlane_m837839537
W$:__Z34scripting_class_get_declaring_type17ScriptingClassPtr
xVc:__ZN11UnityEngine7Connect20BasePersistentValues13RestoreValuesER8JSONRead
Bcb:__ZN11TimeManagerD0Ev
Svi:_GUIUtility_Internal_GetGUIDepth_m1169824684
BL:__ZN12AudioManager33GetAudioEffectInternalDefinitionsEv
o3a:__ZN9Texture2D16DeleteGfxTextureEv
xlb:__ZN20LocalFileSystemPosix4OpenER13FileEntryData14FilePermission16FileAutoBehavior
mcg:_TimeSpan_Subtract_m1264203589
CQe:_InputField_GetUnclampedCharacterLineFromPosition_m2611553547
G0i:__ZN6il2cpp2gc19AppendOnlyGCHashMapIPK10Il2CppTypeP20Il2CppReflectionTypeNS_8metadata14Il2CppTypeHashENS7_26Il2CppTypeEqualityComparerEEC2Ev
lUd:_CustomAttributeData_GetCustomAttributes_m2141595938
uPi:__ZN15dense_hashtableINSt3__24pairIK10KeyWrapperIN6il2cpp5utils13dynamic_arrayIPK10Il2CppTypeLj4EEEEPFvvEEESA_NS3_8metadata19Il2CppSignatureHashEN14dense_hash_mapISA_SD_SG_NSA_14EqualsComparerINSF_22Il2CppSignatureCompareEEENS0_9allocatorISE_EEE9SelectKeyESK_SM_ED2Ev
aNc:__ZN2UI6Canvas12AddToManagerEv
hDc:_UNITY_tt_face_load_sbit
P6c:_ColorTweenCallback__ctor_m2236520273
kQd:_MonoType_GetMethodsByName_m2005909471
uzc:_cf2_hint_isTop
uYb:__ZN23ManagedAttributeManager21GetRequiredComponentsE17ScriptingClassPtr
gki:_TlsCipherSuite_ComputeServerRecordMAC_m3941098609
Q6c:_ColorTween_AddOnChangedCallback_m3959760640_AdjustorThunk
HLe:_RemotingServices_Unmarshal_m3744595373
B5h:_ReadOnlyCollection_1_System_Collections_IList_get_Item_m2174806213_gshared
o_b:__Z23InitializeStdConvertersv
ORb:__ZN19ShaderPropertySheet17UpdateTextureInfoEiRK23FastTexturePropertyNamePK10TextureRef
Amf:_SecurityElement_IsValidAttributeName_m713904709
xCc:_ps_unicodes_init
VMd:_StreamWriter_Write_m2487601391
d6b:__ZN13ProduceHelperI14PlayerSettingsLb0EE7ProduceE10MemLabelId18ObjectCreationMode
DKb:__ZZ23InitPlayerLoopCallbacksvEN38PreUpdateCheckTexFieldInputRegistrator7ForwardEv
Gxa:__ZN4crnd12crn_unpacker22decode_color_endpointsEv
zbj:__ZNK10KeyWrapperINSt3__24pairIPKcS3_EEE14EqualsComparerI26NamespaceAndNamePairEqualsEclERKS5_SA_
j$d:_FieldInfo_get_IsLiteral_m534699794
Uca:__Z34CleanupIntermediateRendererManagerPv
Noi:_X509Stores_Open_m1553467177
$yf:_Decimal_op_Multiply_m2389849621
h1c:_PointerEventData_get_eligibleForClick_m3788762543
rpi:_MatchCollection_get_Count_m1667454419
J9f:_Monitor_Pulse_m82725344
HEf:_CultureInfo_get_NumberFormat_m1244033732
GKd:_FileStream_Dispose_m2599766137
_kd:_Array_Copy_m1988217701
Yjg:_Camera_FireOnPreCull_m2869588437
gh:_JS_WebRequest_GetResponseHeaders
yFb:__ZNSt3__26__treeINS_12__value_typeI26SerializedObjectIdentifieriEENS_19__map_value_compareIS2_S3_NS_4lessIS2_EELb1EEENS_9allocatorIS3_EEE7destroyEPNS_11__tree_nodeIS3_PvEE
fCc:_otv_Script_validate
G1b:__ZN9Scripting18RaiseNullExceptionEPKcz
kfa:__ZN13RuntimeStaticI13RendererSceneLb0EE16StaticInitializeEPv
rh:_glCreateProgram
r0i:__ZN6il2cpp2vm10Reflection7IsFieldEP12Il2CppObject
NWe:_Scrollbar_set_numberOfSteps_m3603299569
SRa:__ZN24GenerateTypeTreeTransfer32TransferSTLStyleArrayWithElementI17SortingLayerEntryEEvRT_17TransferMetaFlags
vEj:_glUniformMatrix3fv__wrapper
zUa:__ZN5Light9SetupHaloEv
EOe:_Text_set_horizontalOverflow_m2473787109
Dyb:__Z18Transfer_BlittableI18StreamedBinaryReadILb1EELb1E12PropertyNameEvRK29SerializationCommandArgumentsR31RuntimeSerializationCommandInfo
m1i:__ZN15dense_hashtableINSt3__24pairIK10KeyWrapperIPK22Il2CppGenericParameterEPK24MonoGenericParameterInfoEES6_N6il2cpp5utils11PointerHashIS4_EEN14dense_hash_mapIS6_SA_SF_NS6_14EqualsComparerINS0_8equal_toIS5_EEEENS0_9allocatorISB_EEE9SelectKeyESK_SM_EC2ERKSP_j
Koj:_GC_general_register_disappearing_link
K9:__ZN23TransformChangeDispatch12CleanupClassEPv
hcc:__ZN8UserList11SendMessageERK17MessageIdentifier
ORc:__Z33Canvas_Get_Custom_PropScaleFactorP12Il2CppObject
BC:__ZNK26AnimatorControllerPlayable21GetStateMachineMemoryEi
PWa:__ZN17CollisionMeshData20VertexDataHasChangedEv
Lpi:_PatternCompiler_Emit_m604664654
uIf:_Array_InternalArray__ICollection_Remove_TisKeyValuePair_2_t3842366416_m278128148_gshared
ySa:__ZNK6Camera16GetTargetTextureEv
d2h:_Component_GetComponentsInChildren_TisRuntimeObject_m35549932_gshared
IYc:__ZNK20UnityWebRequestProtoI24UnityWebRequestTransport16AtomicRefCounter14RedirectHelper14ResponseHelper15DownloadHandler13UploadHandler12HeaderHelper14AsyncOperationE17GetUploadProgressEv
tqf:_String_CompareTo_m3030934538
dqb:__Z35Transfer_Blittable_SingleValueFieldI14SafeBinaryReadyEvRT_R17GeneralMonoObjectRK23StaticTransferFieldInfo
RYa:__ZN8Playable20ClearInputConnectionEi
uOb:__ZN13BatchRenderer12EndLoopFlushEv
hkd:_X509CertificateEnumerator_System_Collections_IEnumerator_Reset_m2928805663
qac:__ZNK6Sprite11GetInnerUVsE20SpriteRenderDataMode
hD:__ZN11UnityEngine9Animation28DestroyAvatarBindingConstantEPNS0_21AvatarBindingConstantERN7mecanim6memory9AllocatorE
iff:_X509ChainElementEnumerator_System_Collections_IEnumerator_get_Current_m1913555061
Jof:_Single_System_IConvertible_ToDouble_m1584722292_AdjustorThunk
_wg:_DataUtility_INTERNAL_CALL_GetPadding_m650254139
jvb:__Z29Transfer_Blittable_ArrayFieldI24GenerateTypeTreeTransfer11ColorRGBA32EvRT_R9ArrayInfoRK23StaticTransferFieldInfo
o4b:__ZN16MessageForwarder23RegisterMessageCallbackEiPFvPviR11MessageDataEPKN5Unity4TypeE
e8d:_MD2Managed_HashFinal_m808964912
dwf:_DateTime_op_Equality_m1022058599
tWa:__ZN4Mesh30AcquireSharedMeshRenderingDataEv
bi:_gmtime
ii:_emscripten_glUniform3i
pua:__ZNK7ApiGLES10GetContextEv
Aob:__Z18Transfer_BlittableI14SafeBinaryReadLb1E5RectTIfEEvRK29SerializationCommandArgumentsR31RuntimeSerializationCommandInfo
R5a:__ZN15TextureSettings14SetAnisoLimitsEii
Bg:_glGetFramebufferAttachmentParameteriv
cvb:__Z19TransferField_ArrayI24GenerateTypeTreeTransfer27Converter_SimpleNativeClassI10RectOffsetEEvRK23StaticTransferFieldInfoR31RuntimeSerializationCommandInfoRT0_
xgg:_UInt64_System_IConvertible_ToUInt32_m2784653358_AdjustorThunk
KUa:__Z40ConfigureBlockRangesWithMinIndicesPerJobP10BlockRangeii
zAa:__ZN6prcoreL17RemapGenericFloatI18TexFormatARGBFloat15TexFormatRGHalfEEvPKNS_9InnerInfoE
Xvi:_GUILayout_Height_m3349769634
vnb:__ZNSt3__26vectorI4PPtrI10MonoScriptE13stl_allocatorIS3_L18MemLabelIdentifier78ELi16EEE8__appendEj
USe:_LayoutGroup_get_flexibleWidth_m2787597997
Rog:_LayerMask_op_Implicit_m3296792737
q6b:__ZL22PrepareMeshRenderNodesILb1EEvR35RenderNodeQueuePrepareThreadContext
_lb:__ZN20LocalFileSystemPosix5TouchER13FileEntryData
Jsc:__ZN9JSONWrite8TransferI13dynamic_arrayItLj2EEEEvRT_PKc17TransferMetaFlags
zi:_emscripten_glDrawElements
xEd:_NumberFormatter_AppendDecimalString_m10636623
qjg:_Bounds_get_max_m3756577669
syc:_cf2_blues_init
_qh:__ZL59ParameterBuilder_t1137139675_CustomAttributesCacheGeneratorP21CustomAttributesCache
PFj:_glVertexAttrib4fv__wrapper
MT:__ZN11UnityEngine15CloudWebService23WebRequestUploadHandlerD2Ev
CA:__ZN9BlobWriteD2Ev
Nob:__ZL26Transfer_SimpleNativeClassI14SafeBinaryRead8GradientLb0EEvRK29SerializationCommandArgumentsR31RuntimeSerializationCommandInfo
UEg:__Z68RuntimeInvoker_Boolean_t97287965_Int32_t2950945753_SByte_t1669577662PFvvEPK10MethodInfoPvPS4_
uPf:_Array_InternalArray__ICollection_CopyTo_TisRaycastHit2D_t2279581989_m3542049333_gshared
fTd:_Assembly_GetExecutingAssembly_m4021024968
XPe:_InputField_ClampPos_m2625258136
lNi:__ZNK15dense_hashtableINSt3__24pairIK10KeyWrapperIPKcEP11Il2CppClassEES5_N6il2cpp5utils11StringUtils12StringHasherIS4_EEN14dense_hash_mapIS5_S8_SE_NS5_14EqualsComparerINSB_13VmStringUtils21CaseSensitiveComparerEEENS0_9allocatorIS9_EEE9SelectKeyESJ_SL_E10test_emptyEj
iNe:_MessageFormatter_ReadMethodResponse_m1946725361
dmi:_PKCS12__ctor_m1587304645
vZa:__ZN13RenderTexture23VirtualRedirectTransferER18StreamedBinaryReadILb0EE
ADc:_UNITY_tt_face_lookup_table
M_c:_BaseRaycaster_ToString_m2535186737
opc:__ZN5Unity9rapidjson13GenericReaderINS0_4UTF8IcEES3_13JSONAllocatorE9ParseHex4INS0_25GenericInsituStringStreamIS3_EEEEjRT_
rFa:__Z17ComputeMipmapSizeiii14GraphicsFormat
_yc:_cf2_stack_pushFixed
C8c:_Dropdown_OnCancel_m1495594239
P4i:__ZNK15dense_hashtableINSt3__24pairIK10KeyWrapperINS1_IP11Il2CppClassjEEES4_EES6_N6il2cpp8metadata14ArrayClassHashEN14dense_hash_mapIS6_S4_SB_NS6_14EqualsComparerINSA_17ArrayClassCompareEEENS0_9allocatorIS8_EEE9SelectKeyESF_SH_E3endEv
rwd:_CollectionBase_OnValidate_m1606907366
Xqg:_MonoBehaviour_StopCoroutineViaEnumerator_Auto_m3883784228
lHc:_TT_Get_MM_Blend
pZ:__Z16realloc_internalPvjj10MemLabelId15AllocateOptionsPKci
WUg:__Z78RuntimeInvoker_Void_t1185182177_RuntimeObject_RuntimeObject_Single_t1397266774PFvvEPK10MethodInfoPvPS4_
fRc:__Z50CanvasRenderer_CUSTOM_CreateUIVertexStreamInternalP12Il2CppObjectS0_S0_S0_S0_S0_S0_S0_S0_S0_
yea:__ZN14PlayableOutput15PrepareTraverseERK9FrameData
fDb:__ZL19RequireCorLibMethodPKcS0_S0_
t2:__ZNK5Unity9Component22GetTypeVirtualInternalEv
yxc:_UNITY_FT_Outline_Get_CBox
$l:_emscripten_get_fullscreen_status
mBa:__ZN6prcoreL26RemapGenericIntegerToFloatI17TexFormatARGB888817TexFormatRGBFloatEEvPKNS_9InnerInfoE
cJe:_MethodDictionary_SetMethodProperty_m3032369066
hWb:__ZN15LODGroupManager27GarbageCollectCameraLODDataEv
wUg:__Z139RuntimeInvoker_Void_t1185182177_RuntimeObject_Color32_t2600501292_Int32_t2950945753_Int32_t2950945753_Single_t1397266774_Single_t1397266774PFvvEPK10MethodInfoPvPS4_
xZb:__ZN13ScreenManagerC2Ev
ZZf:_Enumerator_System_Collections_IEnumerator_Reset_m3289381690_gshared
Jw:__ZN7mecanim20ValueArrayBlendBeginILb1EEEvRNS_14ValueArrayMaskE
cmc:__ZN12GUIClipState20CalculateMouseValuesER10InputEvent
pub:__Z18Transfer_BlittableI24GenerateTypeTreeTransferLb0E12PropertyNameEvRK29SerializationCommandArgumentsR31RuntimeSerializationCommandInfo
lua:__ZN7ApiGLES4InitERK14GfxContextGLESR16GfxDeviceLevelGL
cEe:_RemotingServices_CreateClientProxy_m809906894
z5:__ZNK11LightProbes14LightProbeData33GetLightProbeInterpolationWeightsERK8Vector3fRiR8Vector4fRf
ZLd:_Stream_Dispose_m2589290611
MKe:_ReturnMessage_get_LogicalCallContext_m2352570297
Tfa:__ZN11TypeManager36FatalErrorOnPersistentTypeIDConflictEiPKc
OV:__ZN21UnityDefaultAllocatorI17LowLevelAllocatorED0Ev
BX:__ZN8Renderer15SetIsRenderableEb
vkh:__ZL54IEnumerator_t1853284238_CustomAttributesCacheGeneratorP21CustomAttributesCache
ABa:__Z14DecodeBC7BlockP9HDRColorAPKh
s3e:_BigInteger_op_RightShift_m2934036419
$5b:__ZNK24RendererAnimationBinding12GetPPtrValueERKN11UnityEngine9Animation10BoundCurveE
qRg:__Z95RuntimeInvoker_Boolean_t97287965_RuntimeObject_TextGenerationSettings_t1351628751_RuntimeObjectPFvvEPK10MethodInfoPvPS4_
Tpd:_Boolean_System_IConvertible_ToSByte_m806999
cqd:_Boolean_System_IConvertible_ToUInt32_m2723177447_AdjustorThunk
w$g:__Z84RuntimeInvoker_Boolean_t97287965_RaycastResult_t3360306849_RaycastResult_t3360306849PFvvEPK10MethodInfoPvPS4_
Soj:_GC_new_proc_inner
ic:invoke_fiiffi
q0e:_MSCompatUnicodeTable_BuildTailoringTables_m1316979344
Qnb:__Z35Transfer_Blittable_FixedBufferFieldI14SafeBinaryReadiEvRK29SerializationCommandArgumentsR31RuntimeSerializationCommandInfo
ZMb:__ZNK25CameraStackRenderingState21IsRenderingLastCameraEv
RVf:_EqualityComparer_1_System_Collections_IEqualityComparer_Equals_m1538289377_gshared
Mya:__ZL24stbir__filter_catmullromff
jnf:_SecurityElement_AddChild_m1606852781
rUi:__ZN6il2cpp6icalls8mscorlib6SystemL16CheckMemberMatchI9EventInfoNS_5utils10functional6FilterINSt3__212basic_stringIcNS8_11char_traitsIcEENS8_9allocatorIcEEEENS5_13VmStringUtils21CaseSensitiveComparerEEEEEbPKT_PK11Il2CppClassSN_iRKT0_
BVg:__Z83RuntimeInvoker_Boolean_t97287965_SpriteStateU26_t2382775785_SpriteState_t1362986479PFvvEPK10MethodInfoPvPS4_
jNf:_Array_LastIndexOf_TisRuntimeObject_m1677937501_gshared
qYb:__Z23ValidateScriptComponentP10MonoScriptPN4core12basic_stringIcNS1_20StringStorageDefaultIcEEEE
wXh:__ZL68Selectable_t3250028441_CustomAttributesCacheGenerator_m_InteractableP21CustomAttributesCache
yu:__ZN7mecanim9animation12GetHumanPoseIfEEvRKNS0_18ClipMuscleConstantEPKT_RNS_5human9HumanPoseE
V7a:__ZNSt3__215__inplace_mergeIRNS_4lessI4PPtrI11SpriteAtlasEEENS_11__wrap_iterIPS4_EEEEvT0_SA_SA_T_NS_15iterator_traitsISA_E15difference_typeESE_PNSD_10value_typeEi
XC:__ZN11UnityEngine9Animation30CreateAvatarBindingConstantOptER9TransformPKN7mecanim9animation14AvatarConstantERNS3_6memory9AllocatorE
rua:__ZN26SinglePassStereoSupportExt27InitSinglePassStereoSupportEP21ISinglePassStereoImplP9GfxDevice
Y0c:_PointerEventData_set_button_m2912797404
FV:__ZNSt3__23mapIN19CloudServiceHandler11ServiceTypeEPS1_NS_4lessIS2_EE13stl_allocatorINS_4pairIKS2_S3_EEL18MemLabelIdentifier88ELi16EEEixERS8_
DCc:_ft_get_adobe_glyph_index
xJe:_MethodCall_get_GenericArguments_m1010093584
drj:__ZNSt3__26__treeINS_12__value_typeINS_12basic_stringIcNS_11char_traitsIcEENS_9allocatorIcEEEEPFvvEEENS_19__map_value_compareIS7_SA_NS_4lessIS7_EELb1EEENS5_ISA_EEE25__emplace_unique_key_argsIS7_JRKNS_21piecewise_construct_tENS_5tupleIJOS7_EEENSL_IJEEEEEENS_4pairINS_15__tree_iteratorISA_PNS_11__tree_nodeISA_PvEEiEEbEERKT_DpOT0_
rjc:__Z47Register_UnityEngine_Texture_Internal_GetHeightv
qpf:_Single_ToString_m3947131094_AdjustorThunk
JEb:__Z25scripting_field_get_flags17ScriptingFieldPtr
v0e:_MSCompatUnicodeTable_Level3_m1870873670
ekb:__ZNSt3__218__insertion_sort_3IRPFbRK23TransformAccessReadOnlyS3_EPS1_EEvT0_S8_T_
tdf:_X509ChainStatus_GetInformation_m245493206
xzg:_Vector3_Lerp_m407887542
oih:_Collection_1__ctor_m2277581063_gshared
qpi:_MatchCollection__ctor_m4138850022
iYe:_ScrollRect_set_verticalScrollbarSpacing_m1091218920
Vuc:__ZN8JSONRead8TransferIyEEvRT_PKc17TransferMetaFlagsb
uob:__Z18Transfer_BlittableI14SafeBinaryReadLb0EtEvRK29SerializationCommandArgumentsR31RuntimeSerializationCommandInfo
_Ri:__ZN6il2cpp2vm13MetadataCache24InitializeMethodMetadataEj
FW:__ZNK20DynamicHeapAllocatorI17LowLevelAllocatorE8ContainsEPKv
uhd:_HMAC_HashFinal_m1921180827
vvf:_DateTime__ParseString_m2913931606
H9i:__ZN6il2cpp2vm14PlatformInvoke36MarshalCppStringToCSharpStringResultEPKc
QTb:__ZN8Material23GetStencilWriteMaterialEv
WDa:__Z12GetBlockSize14GraphicsFormat
BHf:_Array_InternalArray__ICollection_Contains_TisIntPtr_t_m272531112_gshared
aMe:_RemotingProxy_get_TypeName_m4085898624
KXd:_GenericTypeParameterBuilder_not_supported_m3358960901
RRa:__ZN10TagManager8TransferI24GenerateTypeTreeTransferEEvRT_
Xdh:_Collection_1_ConvertItem_m169929357_gshared
WId:_MonoIO_GetCurrentDirectory_m762333289
Uac:__Z35AllocExtractMeshComponentFromScriptRK4Mesh30InternalScriptingShaderChannel34InternalScriptingVertexChannelTypei
Kw:__ZN7mecanim12SetValueMaskILb1EEEvPNS_14ValueArrayMaskEb
HDe:_Dictionary_2_ContainsKey_m415531417_gshared
ERa:__ZN10TagManager23VirtualRedirectTransferER24GenerateTypeTreeTransfer
$Pf:_Array_InternalArray__Insert_TisCustomAttributeNamedArgument_t287865710_m3526512389_gshared
Gya:__ZL23stbir__filter_trapezoidff
lQ:__Z44Register_UnityEngine_AudioClip_get_ambisonicv
dfg:_UInt32_System_IConvertible_ToBoolean_m1763673183
eXb:__ZN23ScriptableRenderContextD2Ev
Doh:__ZL52ArrayList_t2718874744_CustomAttributesCacheGeneratorP21CustomAttributesCache
Led:_SByte_System_IConvertible_ToUInt32_m4275534457
Zqg:_MonoBehaviour_StopCoroutine_Auto_m820288890
OZi:__ZN15dense_hashtableINSt3__24pairIK10KeyWrapperINS1_IPK10MethodInfoP11Il2CppClassEEEjEES9_17ReflectionMapHashIS8_EN14dense_hash_mapIS9_jSD_NS9_14EqualsComparerINS0_8equal_toIS8_EEEENS0_9allocatorISB_EEE9SelectKeyESI_SK_E15insert_noresizeERKSB_
tMc:__Z32TextGenerator_CUSTOM_Dispose_cppP12Il2CppObject
e7i:__ZN6il2cpp6icalls8mscorlib6System19ExtractWidenedValueE14Il2CppTypeEnumPv
bkf:_SHA256Managed_HashFinal_m2914312286
iJb:__ZN12GPUFencePoolC2Ev
yoj:_GC_invoke_finalizers
grf:_String_Format_m2556382932
MJi:__ZL14adjustScale128PyS_i
TPh:__ZL59EventType_t3528516131_CustomAttributesCacheGenerator_ignoreP21CustomAttributesCache
Hob:__Z18Transfer_BlittableI14SafeBinaryReadLb0E8BitFieldEvRK29SerializationCommandArgumentsR31RuntimeSerializationCommandInfo
t3h:_Array_InternalArray__get_Item_TisTimeSpan_t881159249_m1885583191_gshared
lGf:_Guid__ctor_m3421080095
D5:__ZNK10GameObject25QueryComponentByExactTypeEPKN5Unity4TypeE
Dhe:_U3CGetEnumeratorU3Ec__Iterator0_System_Collections_Generic_IEnumeratorU3CTU3E_get_Current_m52354244_gshared
_3:__ZNK9ShaderLab22ShaderStencilStateDesc17ToGfxStencilStateEPK19ShaderPropertySheetS3_RK14GfxRasterStateR15GfxStencilState
cih:_Collection_1_Remove_m2372638279_gshared
xXe:_U3CClickRepeatU3Ec__Iterator0_MoveNext_m2800364313
DEc:_tt_cmap0_char_next
BBa:__Z15DecodeBC6HBlockP9HDRColorAPKh
Gjg:_Camera_get_farClipPlane_m538536689
t2b:__Z13RegisterClassI10GUIElementEvv
rgd:_DSA_Create_m1220983153
Foj:_GC_malloc_uncollectable
fjd:_Array_Clone_m2672907798
Cmb:__ZNK16MemoryFileSystem6ParentERK13FileEntryDataRN4core12basic_stringIcNS3_20StringStorageDefaultIcEEEE
pNd:_SynchronizedWriter_Write_m1297715977
U9c:_Graphic_get_rectTransform_m1167152468
wca:__ZN15LODGroupManagerD2Ev
uNe:_ObjectReader_ReadRefTypeObjectInstance_m3311150386
Zvc:__ZN8JSONRead21TransferSTLStyleArrayI13dynamic_arrayIN4math12int2_storageELj4EEEEvRT_17TransferMetaFlags
YSg:__Z115RuntimeInvoker_Boolean_t97287965_RuntimeObject_RuntimeObject_Single_t1397266774_SByte_t1669577662_Int32_t2950945753PFvvEPK10MethodInfoPvPS4_
KPh:__ZL62EventType_t3528516131_CustomAttributesCacheGenerator_mouseMoveP21CustomAttributesCache
K2e:_BigInteger_op_Multiply_m3801644593
Oog:_DefaultValueAttribute_Equals_m443523471
ROa:__ZN12IFileAdapter9SetLengthER13FileEntryDatay
Lic:__Z39SortingLayer_CUSTOM_GetLayerValueFromIDi
Kc:_Mix_PlayMusic
Otf:_DateTime_System_IConvertible_ToSByte_m4130251280
olg:_CullingGroup_SendEvents_m2491312335
yAc:_cff_cmap_encoding_init
_Xc:__Z34GetUnityWebRequestScriptingClassesv
NDj:___cxa_pure_virtual__wrapper
yFd:_Int32_System_IConvertible_ToSByte_m3133688512_AdjustorThunk
Rm:FUNCTION_TABLE_fii
sic:__Z57Register_UnityEngine_RectTransform_INTERNAL_set_sizeDeltav
mSg:__Z57RuntimeInvoker_Void_t1185182177_RaycastResult_t3360306849PFvvEPK10MethodInfoPvPS4_
tjg:_Bounds_op_Equality_m3322991400
P2c:_StandaloneInputModule_Process_m309156323
iZi:__ZNK15dense_hashtableINSt3__24pairIK10KeyWrapperIPK10Il2CppTypeEjEES6_N6il2cpp8metadata14Il2CppTypeHashEN14dense_hash_mapIS6_jSB_NS6_14EqualsComparerINSA_26Il2CppTypeEqualityComparerEEENS0_9allocatorIS8_EEE9SelectKeyESF_SH_E12test_deletedEj
jKa:__ZN10SpookyHash7Hash128EPKvjPyS2_
AVb:__ZL60CombineDirectionalShadowCasterCullingIndexListsAndDestroyJobP20ShadowCullingJobData
Kwd:_Hashtable__ctor_m3890751112
dzg:_Vector2_ToString_m1205609053_AdjustorThunk
IBc:_otv_MarkBasePos_validate
ska:__ZN9ShaderLab18SerializedPropertyC2ERKS0_
Dxc:_cff_driver_init
Fag:_ThreadPool_QueueUserWorkItem_m1526970260
gt:__ZN17AnimationPlayable23ConnectNoTopologyChangeEPS_S0_ii
L4b:__ZN16ReflectionProbes20DidChangeActiveSceneEP10UnitySceneS1_
drf:_String_ToUpperInvariant_m2531236323
L6a:__ZN16SpriteRenderData8TransferI14SafeBinaryReadEEvRT_
BDj:_emscripten_glVertexAttrib3f__wrapper
fgd:_DESTransform_GetStrongKey_m1464830895
Xid:_RijndaelTransform_Encrypt192_m3191066202
Uve:_Enumerator_Reset_m1314900927_gshared
Xlb:__ZN20LocalFileSystemPosix4CopyER13FileEntryDataS1_
zOi:__ZNK15dense_hashtableI10KeyWrapperIPK19Il2CppGenericMethodES4_N6il2cpp8metadata23Il2CppGenericMethodHashEN14dense_hash_setIS4_S7_NS4_14EqualsComparerINS6_26Il2CppGenericMethodCompareEEENSt3__29allocatorIS4_EEE8IdentityESB_SE_E3endEv
KTb:__ZL31SetRenderStateForStencilMarkingR9GfxDeviceR17ShaderPassContextjj
uPa:__ZN20ArchiveStorageReader20FillChunkCachedBlockEPNS_11CachedBlockE
FDe:_Dictionary_2_Add_m653869716_gshared
cMd:_StreamAsyncResult__ctor_m3118856368
evf:_DateTime_Equals_m611432332_AdjustorThunk
KM:__ZN10AudioMixer16ResumeProcessingEv
Y9c:_Graphic_OnBeforeTransformParentChanged_m4229077069
Cqb:__ZNSt3__26vectorI17AnimationCurveTplIfE13stl_allocatorIS2_L18MemLabelIdentifier1ELi16EEE7reserveEj
Ylg:_Display_GetRenderingExtImpl_m2069813991
NPc:__ZN2UI13CanvasManager21EmitGeometryForCameraEP6Camera
S$:__Z31AudioFilterReadValidateCallback18ScriptingMethodPtr17ScriptingClassPtrP6Object
UOe:_InputField_SetDrawRangeToContainCaretPosition_m1009661083
Ela:__ZN9ShaderLab16SerializedTagMap8TransferI19StreamedBinaryWriteILb0EEEEvRT_
ALd:_MonoIO_get_PathSeparator_m4045322458
KB:__ZN7mecanim5human30HumanPoseAdjustForMissingBonesEPKNS0_5HumanEPNS0_9HumanPoseE
Jff:_X509SubjectKeyIdentifierExtension_FromHex_m1011249985
W7i:__ZN6il2cpp6icalls8mscorlib6System9Threading6Thread25SetCachedCurrentUICultureEP12Il2CppThreadP12Il2CppObject
Dmd:_ArithmeticException__ctor_m479063094
vNe:_ObjectReader_ReadObjectInstance_m3952621118
tDc:_UNITY_FT_Bitmap_Convert
BVb:__Z22CullDirectionalShadowsR9IndexListPK9SceneNodePK4AABBR22DirectionalCullContext
PTd:_Default_BindToMethod_m490530316
bGd:_Int32_ToString_m2507389746
Wbf:_X509KeyUsageExtension_ToString_m3542316380
Gid:_RijndaelManaged__ctor_m1562735454
pbe:_SslCipherSuite__ctor_m1470082018
_Qi:__ZN15dense_hashtableINSt3__24pairIK10KeyWrapperIPK11Il2CppClassEPKcEES6_N6il2cpp5utils11PointerHashIS3_EEN14dense_hash_mapIS6_S9_SE_NS6_14EqualsComparerINS0_8equal_toIS5_EEEENS0_9allocatorISA_EEE9SelectKeyESJ_SL_E4findERS7_
cUe:_LayoutUtility_U3CGetMinHeightU3Em__4_m2382889764
Rfg:_UInt32_ToString_m2574561716_AdjustorThunk
BU:__ZN11UnityEngine15CloudWebService14RestDownloader7OnAbortEv
jnj:_alloc_mark_stack
IVi:_AnalyticsSessionInfo_CallSessionStateChanged_m2615824008
PL:__ZNK11AudioSource22GetTypeVirtualInternalEv
jsa:__ZNK13GfxDeviceGLES18GetDefaultRTFormatEv
NGc:_UNITY_FT_Get_Glyph_Name
s5:__Z13VFormatBufferPciPKcPi
dvb:__Z19TransferField_ArrayI24GenerateTypeTreeTransfer27Converter_SimpleNativeClassI8GradientEEvRK23StaticTransferFieldInfoR31RuntimeSerializationCommandInfoRT0_
Zai:_ReadOnlyCollection_1_System_Collections_IList_Remove_m913116894_gshared
fki:_TlsCipherSuite__ctor_m3580955828
x1f:_Enumerator_System_Collections_IEnumerator_Reset_m2355925297_AdjustorThunk
XR:__ZN11UnityEngine15CloudWebService16SessionContainer16MarkAsDispatchedERKN4core12basic_stringIcNS2_20StringStorageDefaultIcEEEE
jke:_InternalEnumerator_1_System_Collections_IEnumerator_get_Current_m2667908392_gshared
NOb:__Z16CopyActiveLightsRK12ActiveLightsRS_
Blc:__ZN16memory_pool_implILi28EE15AutoPoolWrapper10InitializeEPv
K1g:_List_1_System_Collections_IList_IndexOf_m3921550135_gshared
_If:_Array_InternalArray__ICollection_Remove_TisUInt64_t4134040092_m2664745791_gshared
Yjc:__Z26Transform_CUSTOM_IsChildOfP12Il2CppObjectS0_
gr:__ZN4core8hash_mapIN11UnityEngine9Animation14GenericBindingENS2_10BoundIndexENS2_25GenericBindingHashFunctorENS2_30GenericBindingValueArrayUniqueEE4findERKS3_
zqi:_PatternLinkStack_SetCurrent_m366511098
rsj:__ZNSt3__26vectorINS_12basic_stringIDsNS_11char_traitsIDsEENS_9allocatorIDsEEEENS4_IS6_EEE18__construct_at_endEj
Fkg:_Color32__ctor_m4150508762_AdjustorThunk
y8f:_UTF7Decoder__ctor_m546843796
VAf:_Double_System_IConvertible_ToUInt32_m271206838_AdjustorThunk
vpa:__ZNK13GfxDeviceGLES11GetViewportEv
Fbc:__ZN14AsyncOperation26ClearCachedScriptingObjectEv
KGc:_UNITY_tt_face_load_cvt
Tve:_Enumerator_System_Collections_IEnumerator_Reset_m4080198166_gshared
bgc:__Z31GameObject_Set_Custom_PropLayerP12Il2CppObjecti
_6h:_ReadOnlyCollection_1_System_Collections_IList_Add_m1881324749_gshared
VRi:__ZL32InitializeCustomAttributesCachesPv
ZPa:__ZN20ArchiveStorageReaderD0Ev
dha:__ZN6Shader23VirtualRedirectTransferER19StreamedBinaryWriteILb0EE
GXc:__ZN19TransportJavaScript7PrepareEv
s7g:_List_1_System_Collections_IList_IndexOf_m1088859899_gshared
vui:_Uri__ctor_m3848281005
iuc:__Z35Transfer_Blittable_FixedBufferFieldI8JSONReadaEvRK29SerializationCommandArgumentsR31RuntimeSerializationCommandInfo
bmb:__ZNK20LocalFileSystemPosix20GetApplicationFolderEv
Odd:_StreamingContext_Equals_m2722903674_AdjustorThunk
ZR:__ZN11UnityEngine15CloudWebService14DataDispatcher31SetupSessionContainerToDispatchEv
NCb:__Z29Transfer_Blittable_ArrayFieldI18StreamedBinaryReadILb0EE8Vector3fEvRT_R9ArrayInfoRK23StaticTransferFieldInfo
Qfd:_CspParameters__ctor_m1928090281
j$a:__ZN9ShaderLab11shaderprops9GetVectorEPK19ShaderPropertySheetS3_NS_16FastPropertyNameE
nI:__ZN4FMOD12ChannelGroup10getDSPHeadEPPNS_3DSPE
xFc:_UNITY_tt_size_run_prep
JH:__ZN12AudioManager17MainThreadCleanupEv
Ymf:_Evidence_CopyTo_m872435527
jld:_SecurityParser_OnEndElement_m2088612360
S1:__ZNK6Camera18ScreenToWorldPointERK8Vector3f
J7i:__ZN6il2cpp6icalls8mscorlib6System9Threading6Thread11GetDomainIDEv
sva:__ZNK13TranslateGLES13GetFormatDescE14GraphicsFormat
tx:__ZN7mecanim9animation22MotionAddOverrideLayerEPNS0_12MotionOutputEPKS1_fbbRKNS_6bitsetILj83EEE
$Ma:__ZN17ArchiveFileSystemD0Ev
Zqi:_BackslashNumber_ResolveReference_m4176908213
dme:_InternalEnumerator_1_System_Collections_IEnumerator_get_Current_m888718134_AdjustorThunk
Xud:_SynchronizedArrayListWrapper_IndexOf_m1028529531
_9c:_GraphicRegistry_UnregisterGraphicForCanvas_m2540204166
zSb:__ZN14qsort_internal5QSortIP20ShadowCasterSortDatai26ShadowCasterSortDataSorterEEvT_S4_T0_T1_
MU:__ZN11UnityEngine15CloudWebService19SessionEventManager5StartERKN4core12basic_stringIcNS2_20StringStorageDefaultIcEEEEii
zmc:__ZN16GUIKeyboardState16SaveFromGUIStateER8GUIState
xqb:__Z22TransferField_NonArrayI14SafeBinaryRead27Converter_SimpleNativeClassI8GradientEEvRK23StaticTransferFieldInfoR31RuntimeSerializationCommandInfoRT0_
zf:_emscripten_glBufferData
kii:_UnityEvent_2_FindMethod_Impl_m2569180594_gshared
RPb:__Z25DoForwardShaderRenderLoopRK17RenderLoopContextR13dynamic_arrayI16RenderObjectDataLj4EERK11CullResultsbbbN6Camera10RenderFlagE
FPc:__ZZN2UI23InitializeCanvasManagerEvEN53UIEventsCanvasManagerEmitOffScreenGeometryRegistrator7ForwardEv
Df:_glUniform3iv
Sqg:_Mesh_RecalculateBounds_m39931642
Mrg:_Plane__ctor_m2890438515
Tvi:_GUI_get_skin_m1874615010
x5g:_List_1_System_Collections_IList_Contains_m453976393_gshared
Tqc:__Z18Transfer_BlittableI9JSONWriteLb0E9BoundsIntEvRK29SerializationCommandArgumentsR31RuntimeSerializationCommandInfo
wdg:_Type_GetMethod_m1197120913
Axj:_fwrite
D4d:_COMException__ctor_m3707984232
wUf:_DefaultComparer_Equals_m962817516_gshared
rPg:__Z107RuntimeInvoker_Void_t1185182177_Single_t1397266774_Single_t1397266774_Single_t1397266774_Single_t1397266774PFvvEPK10MethodInfoPvPS4_
yDb:__ZN13MonoBehaviourD0Ev
$Oc:__ZN2UI6Canvas18UpdateEventIndexesEv
oyi:_SymmetricTransform_CTS_m764800021
dxj:_pipe
ami:_SubjectAltNameExtension_ToString_m3628154311
Jng:_RenderPipelineManager_get_currentPipeline_m1638613344
aIi:_CanvasRenderer_SetPopMaterial_m2720611463
fic:__Z50RectTransform_CUSTOM_INTERNAL_set_anchoredPositionP12Il2CppObjectRK13Vector2fIcall
hka:__ZNSt3__26vectorIN9ShaderLab19SerializedSubShaderENS_9allocatorIS2_EEE6resizeEj
LMa:__ZN4FileC2Ev
TLg:__Z81RuntimeInvoker_Void_t1185182177_RuntimeObject_Double_t594665363_Int32_t2950945753PFvvEPK10MethodInfoPvPS4_
g4e:_BitConverterLE_UIntFromBytes_m3974925535
Xcg:_Type_GetTypeFromHandle_m1620074514
VZi:__ZN15dense_hashtableINSt3__24pairIK10KeyWrapperINS1_IPK10MethodInfoP11Il2CppClassEEEjEES9_17ReflectionMapHashIS8_EN14dense_hash_mapIS9_jSD_NS9_14EqualsComparerINS0_8equal_toIS8_EEEENS0_9allocatorISB_EEE9SelectKeyESI_SK_E12maybe_shrinkEv
rRa:__ZN14BatchAllocator16AllocateInternalEPPvijjj
eog:_GameObject_SendMessage_m3720186693
L2b:__Z13RegisterClassI6SpriteEvv
dJf:_Array_InternalArray__ICollection_Remove_TisKeyframe_t4206410242_m3222074551_gshared
vmd:_ArgumentException_get_Message_m520762021
zje:_InternalEnumerator_1_System_Collections_IEnumerator_get_Current_m1641466962_AdjustorThunk
UNi:__ZN14dense_hash_setI10KeyWrapperIPK17Il2CppGenericInstEN6il2cpp8metadata21Il2CppGenericInstHashENS4_14EqualsComparerINS6_24Il2CppGenericInstCompareEEENSt3__29allocatorIS4_EEEC2EjRKS7_RKSA_
T7e:_HybridDictionary_Switch_m3818192922
Amj:_min_bytes_allocd
Dzb:__ZN17AnimationCurveTplIfE15InvalidateCacheEv
IZe:_Selectable_Awake_m2577497063
BLf:_Array_compare_TisUIVertex_t4057497605_m3950502696_gshared
alc:__Z29Mesh_Get_Custom_PropCanAccessP12Il2CppObject
t7a:__ZN6Sprite8TransferI19StreamedBinaryWriteILb0EEEEvRT_
Pve:_Enumerator_System_Collections_IEnumerator_get_Current_m2979767597_gshared
YOf:_Array_InternalArray__ICollection_CopyTo_TisLabelData_t360167391_m175414846_gshared
H2e:_BigInteger_op_Implicit_m378428706
prg:_PlayerConnection_DisconnectedCallback_m1697017309
Ffb:__Z14resize_trimmedINSt3__26vectorIi13stl_allocatorIiL18MemLabelIdentifier13ELi16EEEEEvRT_j
vE:__ZN7mecanim9animation18ControllerConstant15InitializeClassEv
FBf:_Enum_System_IConvertible_ToDateTime_m3823814707
uo:FUNCTION_TABLE_iiiiiiiffiiiiiiiiiffffiiii
bBf:_Double_CompareTo_m3151899116_AdjustorThunk
qRd:_NumberFormatter_Init_m2982613221
Dyc:_cf2_getMaxstack
TWd:_EnumBuilder_GetCustomAttributes_m166600193
Dyi:_Check_Source_m4098695967
Kwg:_SpaceAttribute__ctor_m2972541600
gBd:_Convert_ToInt32_m2128774575
yue:_DefaultComparer_Compare_m297694671_gshared
$ze:_Enumerator_System_Collections_IEnumerator_Reset_m2917956982_gshared
Qzc:_cff_parser_run
woj:_GC_notify_or_invoke_finalizers
Bgj:__ZN6il2cpp2os6Thread5SleepEjb
rqf:_String_Compare_m1293271421
nFd:_Int32_System_IConvertible_ToDateTime_m1824716955_AdjustorThunk
ADj:_emscripten_glUniform3f__wrapper
Hn:FUNCTION_TABLE_viiiifii
BMc:__Z38Register_UnityEngine_Font_get_materialv
b5f:_List_1_set_Item_m3289315279_gshared
JFd:_Int32_CompareTo_m2864982090
ijj:__ZN15dense_hashtableINSt3__24pairIK10KeyWrapperIPK19Il2CppGenericMethodEP10MethodInfoEES6_N6il2cpp8metadata23Il2CppGenericMethodHashEN14dense_hash_mapIS6_S9_SD_NS6_14EqualsComparerINSC_26Il2CppGenericMethodCompareEEENS0_9allocatorISA_EEE9SelectKeyESH_SJ_E4findERS7_
LRa:__ZN10TagManager23AddDefaultLayerIfNeededEv
$Ta:__ZN10FlareLayer12AddToManagerEv
Hda:__ZN18AsyncUploadManagerC2E10MemLabelId
pHa:__ZNSt3__26vectorINS_4pairI5CbKeyPN19ConstantBuffersGLES11ConstBufferEEENS_9allocatorIS6_EEE21__push_back_slow_pathIKS6_EEvRT_
b6i:__ZNK15dense_hashtableINSt3__24pairIK10KeyWrapperINS1_IP11Il2CppClassjEEES4_EES6_N6il2cpp8metadata14ArrayClassHashEN14dense_hash_mapIS6_S4_SB_NS6_14EqualsComparerINSA_17ArrayClassCompareEEENS0_9allocatorIS8_EEE9SelectKeyESF_SH_E12test_deletedEj
Wcb:__ZN13BuildSettings23VirtualRedirectTransferER24GenerateTypeTreeTransfer
Vub:__ZN24GenerateTypeTreeTransfer21TransferSTLStyleArrayINSt3__26vectorI8GUIStyle13stl_allocatorIS3_L18MemLabelIdentifier1ELi16EEEEEEvRT_17TransferMetaFlags
NAe:_Enumerator_get_Current_m926428745_AdjustorThunk
qzc:_cf2_arrstack_clear
utc:__Z18Transfer_BlittableI8JSONReadLb1E8Vector2fEvRK29SerializationCommandArgumentsR31RuntimeSerializationCommandInfo
Yge:_SslStreamBase_BeginRead_m3146234303
sBf:_Double_ToString_m1051753975
eOc:__ZN2UI14CanvasRenderer23VirtualRedirectTransferER24GenerateTypeTreeTransfer
mLb:__Z16PresentAfterDrawN9GfxDevice11PresentModeE
Owa:__ZN10DynamicVBO19FillQuadIndexBufferER21DynamicVBOChunkHandle
Zmi:_PKCS12_Clone_m2085085101
NYf:_EqualityComparer_1__cctor_m3880019879_gshared
Gjj:__ZN6il2cpp2vm6String8NewUtf16ERKNS_5utils10StringViewIDsEE
x8d:_MD5SHA1__ctor_m4081016482
JFj:_glGenFramebuffers__wrapper
iIj:_glBindBufferBase__wrapper
eTe:_LayoutGroup_GetAlignmentOnAxis_m1696038011
J9:__ZN23TransformChangeDispatch15InitializeClassEPv
wS:__ZN9JSONWrite8TransferIyEEvRT_PKc17TransferMetaFlags
iQb:__ZN22MotionVectorRenderLoop16PerformRenderingER8JobFence
mHj:_glTexSubImage2D__wrapper
eU:__ZN11UnityEngine15CloudWebService18RestFileDownloader13OnReceiveDataEPKvj
GFc:_UNITY_TT_RunIns
JFc:_Current_Ppem
Spc:__ZN5Unity9rapidjson6WriterI16TempBufferWriterNS0_4UTF8IcEES4_13JSONAllocatorE10StartArrayEv
v6h:_ReadOnlyCollection_1_System_Collections_IEnumerable_GetEnumerator_m610559569_gshared
IZf:_GenericEqualityComparer_1_Equals_m3279253448_gshared
vCj:dynCall_iiiiiiiii
Yga:__ZN6ShaderD0Ev
Y1b:__ZN18BackgroundJobQueue19ScheduleJobInternalEPFvPvES0_RKNS_8JobFenceE
zdj:__ZN6il2cpp2gc8GCHandle9GetTargetEj
LLb:__ZN25CameraStackRenderingState18EndStereoRenderingEv
Flb:__ZN20LocalFileSystemPosix9SetLengthER13FileEntryDatay
FHd:_IntPtr_op_Explicit_m1593085246
GTh:__ZL64StandaloneInputModule_t2760469101_CustomAttributesCacheGeneratorP21CustomAttributesCache
zsj:__ZN6il2cpp5utils25NativeDelegateMethodCache17GetNativeDelegateEPFvvE
yWa:__Z27ConvertSubMeshesToTrianglesItEvR13dynamic_arrayI7SubMeshLj4EERS0_IhLj1EE
ak:_emscripten_glGetProgramiv
Wtj:_InputBuffer_add_onCommandSent_m2926830140
ceb:__ZN26PlayerSettingsSplashScreen8TransferI24GenerateTypeTreeTransferEEvRT_
rAa:__ZN6prcoreL17RemapGenericFloatI18TexFormatRGBAFloat14TexFormatRHalfEEvPKNS_9InnerInfoE
vCf:_Environment_get_Platform_m520224871
iBf:_FormatException__ctor_m1479314061
zg:_glScissor
UEf:_CultureInfo_insert_into_shared_tables_m4239017467
HUc:__ZNSt3__26__treeINS_12__value_typeIN4core12basic_stringIcNS2_20StringStorageDefaultIcEEEE14CallbackArray2IRKS6_R8JSONReadEEENS_19__map_value_compareIS6_SD_NS_4lessIS6_EELb1EEE13stl_allocatorISD_L18MemLabelIdentifier6ELi16EEE7destroyEPNS_11__tree_nodeISD_PvEE
fIi:_CanvasRenderer_SplitUIVertexStreamsInternal_m3280623346
AUe:_CullStateChangedEvent__ctor_m4089558259
uki:_TlsClientSettings_set_ClientCertificate_m3374228612
iLd:_MemoryStream_Read_m337792459
_Pf:_Array_InternalArray__Insert_TisRuntimeObject_m1619219378_gshared
TMd:_StreamWriter_LowLevelWrite_m1318762026
UQd:_MulticastDelegate_GetHashCode_m3864330728
X6g:_List_1_Insert_m1643593161_gshared
lFg:__Z133RuntimeInvoker_Int32_t2950945753_RuntimeObject_RuntimeObject_Int32_t2950945753_Int32_t2950945753_RuntimeObject_ContextU26_t3937453398PFvvEPK10MethodInfoPvPS4_
Yqa:__ZN13GfxDeviceGLES21RegisterNativeTextureE9TextureIDi16TextureDimension
Kic:__Z44Register_UnityEngine_Material_DisableKeywordv
hn:FUNCTION_TABLE_iiiiiiif
WGg:__Z118RuntimeInvoker_Int32_t2950945753_IntPtr_t_RuntimeObject_Int32_t2950945753_Int32_t2950945753_MonoIOErrorU26_t1548853198PFvvEPK10MethodInfoPvPS4_
GIj:_emscripten_glUniform4fv__wrapper
en:FUNCTION_TABLE_iiiiiiii
Ufa:__ZN4core8hash_mapIiP4RTTIN11TypeManager27HashFunctorPersistentTypeIDENSt3__28equal_toIiEEEixERKi
o7c:_DefaultControls_CreateUIElementRoot_m3904573408
Lwc:__ZN19ControllerHitReportD2Ev
Zme:_InternalEnumerator_1_System_Collections_IEnumerator_get_Current_m4189894603_gshared
iqj:__ZN6il2cpp2os11MutexHandle4WaitEv
VT:__ZN11UnityEngine15CloudWebService23WebRequestUploadHandler8GetBytesEv
Cof:_Single_System_IConvertible_ToChar_m1898259383
dza:__ZN6prcoreL12RemapGenericI11TexFormatI817TexFormatARGB4444EEvPKNS_9InnerInfoE
BPf:_Array_InternalArray__ICollection_CopyTo_TisVector2_t2156229523_m4226925582_gshared
BGf:_Guid_Equals_m1866984197_AdjustorThunk
Idb:__ZNK14PlayerSettings22GetTypeVirtualInternalEv
M8h:_ReadOnlyCollection_1_System_Collections_IList_Insert_m2216746332_gshared
cAd:_Convert_ToChar_m2261593104
Gbj:__ZN15dense_hashtableINSt3__24pairIK10KeyWrapperINS1_IPKcS4_EEEiEES6_24NamespaceAndNamePairHashN14dense_hash_mapIS6_iS9_NS6_14EqualsComparerI26NamespaceAndNamePairEqualsEENS0_9allocatorIS8_EEE9SelectKeyESD_SF_EC2ERKSI_j
Nnh:__ZL61ComImportAttribute_t1295173782_CustomAttributesCacheGeneratorP21CustomAttributesCache
UBf:_Enum_FormatSpecifier_X_m2932245600
LVd:_DerivedType_GetInterfaces_m2159651138
Rjg:_Camera_ScreenToViewportPoint_m3569032523
jea:__ZN15DirectorManager12RegisterJobsEP13PlayableGraph
izd:_Stack_Push_m2529252115
Gnc:__Z38Event_CUSTOM_Internal_GetMousePositionP12Il2CppObjectP13Vector2fIcall
HU:__ZN11UnityEngine15CloudWebService14DataDispatcher10InitializeERKN4core12basic_stringIcNS2_20StringStorageDefaultIcEEEEPvjRNS0_18ICloudJobSchedulerE
lXc:__ZN22CrashReportingSettingsC2Ev
yzc:_cff_free_glyph_data
kgd:_DESTransform__cctor_m244488330
sqa:__ZN13GfxDeviceGLES23ResolveDepthIntoTextureE12ObjectHandleI17RenderSurface_TagP17RenderSurfaceBaseES4_
DTd:_AssemblyName_OnDeserialization_m3779987437
sV:__ZN11UnityEngine15CloudWebService14DataDispatcher17PlayerLoopHandlerEv
DAd:_Convert_ToDouble_m1177445661
Ubd:_HorizontalOrVerticalLayoutGroup_set_childControlHeight_m1806657287
Kgf:_Interpreter_GetString_m94448266
Avg:_RectTransform_set_offsetMin_m1512629941
bVc:__ZN11UnityEngine7Connect15AppRunningEventC2Ejjjj
p9i:__ZN6il2cpp2vm9Exception23GetInvalidCastExceptionEPKc
J$:__Z26GetManagedAttributeManagerv
Atj:__ZN6il2cpp6icalls8mscorlib6System8DateTime16GetTimeMonotonicEv
VFa:__ZN19ComputeShaderKernelC2ERKS_
OWa:__ZN4Mesh14ClearSkinCacheEv
nVc:__ZN11UnityEngine7Connect17DeviceStatusEvent12ToJsonStringER9JSONWrite
XEd:_NumberFormatter_InitDecHexDigits_m829694854
zrc:__Z18Transfer_BlittableI9JSONWriteLb0EjEvRK29SerializationCommandArgumentsR31RuntimeSerializationCommandInfo
hhi:_UnityAction_2_BeginInvoke_m1769266175_gshared
zVi:__ZN6il2cpp2os4File10DeleteFileERKNSt3__212basic_stringIcNS2_11char_traitsIcEENS2_9allocatorIcEEEEPi
Zla:__ZL15GetIndexForNameRNSt3__23mapIN4core12basic_stringIcNS1_20StringStorageDefaultIcEEEEiNS_4lessIS5_EENS_9allocatorINS_4pairIKS5_iEEEEEERSA_
Og:__exit
ML:__ZN11AudioSource13AwakeFromLoadE17AwakeFromLoadMode
DHd:_IntPtr_op_Inequality_m3063970704
OSc:__ZN22BaseUnityConnectClient19OnEnterStateStoppedEv
YFb:__ZL31FindActiveTransformWithPathImplPKcR10GameObjectb
xEj:_glViewport__wrapper
MRe:_InputField_get_preferredWidth_m2499328890
K5h:_ReadOnlyCollection_1_System_Collections_Generic_ICollectionU3CTU3E_Add_m3521523143_gshared
ECj:b5
Yee:_SendRecordAsyncResult__ctor_m425551707
Tsh:__ZL57DispIdAttribute_t491906453_CustomAttributesCacheGeneratorP21CustomAttributesCache
xCj:b0
yCj:b1
zCj:b2
oab:__ZN4Mesh8TransferI24GenerateTypeTreeTransferEEvRT_
aBg:__Z128RuntimeInvoker_Boolean_t97287965_Int32U26_t1369213839_RuntimeObject_SByte_t1669577662_SByte_t1669577662_ExceptionU26_t3600731591PFvvEPK10MethodInfoPvPS4_
Tsc:__ZN9JSONWrite8TransferI13dynamic_arrayI10ColorRGBAfLj4EEEEvRT_PKc17TransferMetaFlags
HCj:b8
ICj:b9
YSi:__ZN6il2cpp2vm21ThreadPoolCompartmentC2Ev
f0a:__Z14resize_trimmedINSt3__26vectorIN4core12basic_stringIcNS2_20StringStorageDefaultIcEEEE13stl_allocatorIS6_L18MemLabelIdentifier1ELi16EEEEEvRT_j
VR:__ZN11UnityEngine15CloudWebService16SessionContainer13DeleteArchiveERKN4core12basic_stringIcNS2_20StringStorageDefaultIcEEEE
MBf:_Enum_System_IConvertible_ToSingle_m1234919892
zaf:_IPv6Address_Parse_m3004687047
dIc:_Vertical_Sweep_Step
tZi:__ZN15dense_hashtableINSt3__24pairIK10KeyWrapperIPK10Il2CppTypeEjEES6_N6il2cpp8metadata14Il2CppTypeHashEN14dense_hash_mapIS6_jSB_NS6_14EqualsComparerINSA_26Il2CppTypeEqualityComparerEEENS0_9allocatorIS8_EEE9SelectKeyESF_SH_E9copy_fromERKSK_j
NU:__ZN19CloudServiceHandler17PauseEventHandlerEb
HOc:__ZN2UI6Canvas29EncapsulateChildrenMeshBoundsEv
doa:__ZN19ShaderPropertySheetD0Ev
S0h:_Array_Sort_TisVector3_t3722313464_TisVector3_t3722313464_m3923377973_gshared
jUf:_DefaultComparer_GetHashCode_m605456464_gshared
vif:_RIPEMD160Managed_HHH_m2839246531
Teg:_UInt32_Parse_m2778221109
xub:__Z18Transfer_BlittableI24GenerateTypeTreeTransferLb0EaEvRK29SerializationCommandArgumentsR31RuntimeSerializationCommandInfo
gRe:_InputField_ProcessEvent_m2195684349
mad:_Graphic_OnEnable_m3893553015
CR:__ZN11UnityEngine15CloudWebService18CloudServiceConfigD2Ev
IAa:__ZN6prcoreL17RemapGenericFloatI15TexFormatRGHalf15TexFormatRFloatEEvPKNS_9InnerInfoE
Wjb:__ZN2UI13RectTransform8TransferI19StreamedBinaryWriteILb0EEEEvRT_
zPd:_MonoCustomAttrs_IsDefinedInternal_m2193933235
J1d:_MonoMethod_get_IsGenericMethodDefinition_m3024870835
vPa:__ZN20ArchiveStorageReader18DestroyCachedBlockEPNS_11CachedBlockE
T0i:__ZN15dense_hashtableINSt3__24pairIK10KeyWrapperIPK14Il2CppAssemblyEPK22Il2CppMonoAssemblyNameEES6_N6il2cpp5utils11PointerHashIS4_EEN14dense_hash_mapIS6_SA_SF_NS6_14EqualsComparerINS0_8equal_toIS5_EEEENS0_9allocatorISB_EEE9SelectKeyESK_SM_E9copy_fromERKSP_j
oma:__ZN9ShaderLab4Pass24CreateFromSerializedPassERKNS_14SerializedPassEPK6Shader
vjc:__Z61Register_UnityEngine_Texture2D_INTERNAL_CALL_GetPixelBilinearv
rhd:_HMAC_Dispose_m3665032088
sl:_emscripten_set_deviceorientation_callback
d8a:__ZNK14Texture2DArray22GetTypeVirtualInternalEv
nje:_InternalEnumerator_1_System_Collections_IEnumerator_get_Current_m1277470738_gshared
h0i:__ZN6il2cpp2vm10Reflection15GetParamObjectsEPK10MethodInfoP11Il2CppClass
Eea:__ZN8Playable16ProcessPlayStateERK19DirectorVisitorInfo
yjd:_X501_ToString_m2278029064
Pm:FUNCTION_TABLE_fif
sVh:__ZL80Graphic_t1660335611_CustomAttributesCacheGenerator_Graphic_OnFillVBO_m1026749972P21CustomAttributesCache
ocb:__ZN14SafeBinaryRead21TransferSTLStyleArrayI13dynamic_arrayI9InputAxisLj4EEEEvRT_17TransferMetaFlags
J8i:__ZN6il2cpp2vm13LivenessState14TraverseObjectEP12Il2CppObjectPS1_
Eb:invoke_viifiii
DZa:__ZNK13RenderTexture12IsMemorylessEv
wna:__ZN9ShaderLab20SerializedSubProgram15AddTextureParamEPKciib16TextureDimension
Dfb:__ZN14SafeBinaryRead21TransferSTLStyleArrayINSt3__26vectorIN30RuntimeInitializeOnLoadManager15ClassMethodInfoE13stl_allocatorIS4_L18MemLabelIdentifier13ELi16EEEEEEvRT_17TransferMetaFlags
Wqi:_Parser_NewParseException_m686511029
rJi:_HumanBone_t2465339518_marshal_pinvoke
yWh:__ZL96Mask_t1803652131_CustomAttributesCacheGenerator_Mask_OnSiblingGraphicEnabledDisabled_m2583294479P21CustomAttributesCache
idi:_Comparison_1_Invoke_m941130260_gshared
mdg:_Type_GetType_m3605423543
a8h:_ReadOnlyCollection_1_System_Collections_Generic_IListU3CTU3E_set_Item_m375376101_gshared
FPd:_MonoEnumInfo__ctor_m3350651181_AdjustorThunk
Kxa:__ZN4crnd12crn_unpacker22decode_alpha_selectorsEv
Onj:_GC_print_heap_sects
FQg:__Z74RuntimeInvoker_Vector2_t2156229523_Vector2_t2156229523_Vector2_t2156229523PFvvEPK10MethodInfoPvPS4_
FJb:__ZN16GeometryJobTasksC2E10MemLabelId
xdc:__ZN9Scripting30CreateScriptableObjectWithTypeE28ScriptingSystemTypeObjectPtrb
gLg:__Z131RuntimeInvoker_Int32_t2950945753_RuntimeObject_Int32_t2950945753_RuntimeObject_RuntimeObject_SByte_t1669577662_Int32U26_t1369213839PFvvEPK10MethodInfoPvPS4_
Xoa:__ZN13GfxDeviceGLES19SetUserBackfaceModeEb
eSb:__ZN30ForwardShaderRenderLoopScratchD2Ev
xeg:_UInt16_System_IConvertible_ToInt64_m3635199533_AdjustorThunk
bgi:_InvokableCall_1_Invoke_m4150391468_gshared
slj:__ZN6il2cpp6icalls8mscorlib6System7Runtime16CompilerServices14RuntimeHelpers22get_OffsetToStringDataEv
OVc:__ZN20UnityConnectSettingsD0Ev
w_c:_ExecuteEvents_get_pointerExitHandler_m659239743
BUa:__Z15GetLightManagerv
jcc:__ZN18UnityPropertySheet21AddNewSerializedPropsERKS_
UWe:_Scrollbar_OnEnable_m665096645
aWa:__ZN9GfxDevice24GetMaxStaticBatchIndicesEv
Iuj:_InputBuffer_UpdateCurrentInputLine_m2113149539
Fpg:_Mathf_Floor_m1195858412
Hli:_ExtendedKeyUsageExtension_Decode_m2326833343
